   1              		.syntax unified
   2              		.cpu cortex-m4
   3              		.fpu softvfp
   4              		.eabi_attribute 20, 1
   5              		.eabi_attribute 21, 1
   6              		.eabi_attribute 23, 3
   7              		.eabi_attribute 24, 1
   8              		.eabi_attribute 25, 1
   9              		.eabi_attribute 26, 1
  10              		.eabi_attribute 30, 4
  11              		.eabi_attribute 34, 1
  12              		.eabi_attribute 18, 4
  13              		.thumb
  14              		.file	"stm32303c_eval.c"
  15              		.section	.text.STM_EVAL_LEDInit,"ax",%progbits
  16              		.align	1
  17              		.global	STM_EVAL_LEDInit
  18              		.thumb
  19              		.thumb_func
  21              	STM_EVAL_LEDInit:
  22              		@ args = 0, pretend = 0, frame = 8
  23              		@ frame_needed = 0, uses_anonymous_args = 0
  24 0000 104B     		ldr	r3, .L2
  25 0002 73B5     		push	{r0, r1, r4, r5, r6, lr}
  26 0004 0446     		mov	r4, r0
  27 0006 0121     		movs	r1, #1
  28 0008 53F82000 		ldr	r0, [r3, r0, lsl #2]
  29 000c 0E4E     		ldr	r6, .L2+4
  30 000e FFF7FEFF 		bl	RCC_AHBPeriphClockCmd
  31 0012 0E4B     		ldr	r3, .L2+8
  32 0014 56F82400 		ldr	r0, [r6, r4, lsl #2]
  33 0018 33F81450 		ldrh	r5, [r3, r4, lsl #1]
  34 001c 0123     		movs	r3, #1
  35 001e 8DF80430 		strb	r3, [sp, #4]
  36 0022 0023     		movs	r3, #0
  37 0024 8DF80630 		strb	r3, [sp, #6]
  38 0028 8DF80730 		strb	r3, [sp, #7]
  39 002c 6946     		mov	r1, sp
  40 002e 0323     		movs	r3, #3
  41 0030 8DF80530 		strb	r3, [sp, #5]
  42 0034 0095     		str	r5, [sp, #0]
  43 0036 FFF7FEFF 		bl	GPIO_Init
  44 003a 56F82430 		ldr	r3, [r6, r4, lsl #2]
  45 003e 9D61     		str	r5, [r3, #24]
  46 0040 7CBD     		pop	{r2, r3, r4, r5, r6, pc}
  47              	.L3:
  48 0042 00BF     		.align	2
  49              	.L2:
  50 0044 00000000 		.word	.LANCHOR0
  51 0048 00000000 		.word	.LANCHOR2
  52 004c 00000000 		.word	.LANCHOR1
  54              		.section	.text.STM_EVAL_LEDOn,"ax",%progbits
  55              		.align	1
  56              		.global	STM_EVAL_LEDOn
  57              		.thumb
  58              		.thumb_func
  60              	STM_EVAL_LEDOn:
  61              		@ args = 0, pretend = 0, frame = 0
  62              		@ frame_needed = 0, uses_anonymous_args = 0
  63              		@ link register save eliminated.
  64 0000 034B     		ldr	r3, .L5
  65 0002 044A     		ldr	r2, .L5+4
  66 0004 53F82030 		ldr	r3, [r3, r0, lsl #2]
  67 0008 32F81020 		ldrh	r2, [r2, r0, lsl #1]
  68 000c 1A85     		strh	r2, [r3, #40]	@ movhi
  69 000e 7047     		bx	lr
  70              	.L6:
  71              		.align	2
  72              	.L5:
  73 0010 00000000 		.word	.LANCHOR2
  74 0014 00000000 		.word	.LANCHOR1
  76              		.section	.text.STM_EVAL_LEDOff,"ax",%progbits
  77              		.align	1
  78              		.global	STM_EVAL_LEDOff
  79              		.thumb
  80              		.thumb_func
  82              	STM_EVAL_LEDOff:
  83              		@ args = 0, pretend = 0, frame = 0
  84              		@ frame_needed = 0, uses_anonymous_args = 0
  85              		@ link register save eliminated.
  86 0000 034B     		ldr	r3, .L8
  87 0002 044A     		ldr	r2, .L8+4
  88 0004 53F82030 		ldr	r3, [r3, r0, lsl #2]
  89 0008 32F81020 		ldrh	r2, [r2, r0, lsl #1]
  90 000c 9A61     		str	r2, [r3, #24]
  91 000e 7047     		bx	lr
  92              	.L9:
  93              		.align	2
  94              	.L8:
  95 0010 00000000 		.word	.LANCHOR2
  96 0014 00000000 		.word	.LANCHOR1
  98              		.section	.text.STM_EVAL_LEDToggle,"ax",%progbits
  99              		.align	1
 100              		.global	STM_EVAL_LEDToggle
 101              		.thumb
 102              		.thumb_func
 104              	STM_EVAL_LEDToggle:
 105              		@ args = 0, pretend = 0, frame = 0
 106              		@ frame_needed = 0, uses_anonymous_args = 0
 107              		@ link register save eliminated.
 108 0000 044B     		ldr	r3, .L11
 109 0002 0549     		ldr	r1, .L11+4
 110 0004 53F82030 		ldr	r3, [r3, r0, lsl #2]
 111 0008 31F81010 		ldrh	r1, [r1, r0, lsl #1]
 112 000c 9A8A     		ldrh	r2, [r3, #20]
 113 000e 4A40     		eors	r2, r2, r1
 114 0010 9A82     		strh	r2, [r3, #20]	@ movhi
 115 0012 7047     		bx	lr
 116              	.L12:
 117              		.align	2
 118              	.L11:
 119 0014 00000000 		.word	.LANCHOR2
 120 0018 00000000 		.word	.LANCHOR1
 122              		.section	.text.STM_EVAL_PBInit,"ax",%progbits
 123              		.align	1
 124              		.global	STM_EVAL_PBInit
 125              		.thumb
 126              		.thumb_func
 128              	STM_EVAL_PBInit:
 129              		@ args = 0, pretend = 0, frame = 24
 130              		@ frame_needed = 0, uses_anonymous_args = 0
 131 0000 70B5     		push	{r4, r5, r6, lr}
 132 0002 0E46     		mov	r6, r1
 133 0004 86B0     		sub	sp, sp, #24
 134 0006 0028     		cmp	r0, #0
 135 0008 45D0     		beq	.L13
 136 000a 441E     		subs	r4, r0, #1
 137 000c 234B     		ldr	r3, .L20
 138 000e E4B2     		uxtb	r4, r4
 139 0010 0121     		movs	r1, #1
 140 0012 53F82400 		ldr	r0, [r3, r4, lsl #2]
 141 0016 FFF7FEFF 		bl	RCC_AHBPeriphClockCmd
 142 001a 0120     		movs	r0, #1
 143 001c 0146     		mov	r1, r0
 144 001e FFF7FEFF 		bl	RCC_APB2PeriphClockCmd
 145 0022 0223     		movs	r3, #2
 146 0024 8DF80F30 		strb	r3, [sp, #15]
 147 0028 1D4B     		ldr	r3, .L20+4
 148 002a 06A9     		add	r1, sp, #24
 149 002c 33F81420 		ldrh	r2, [r3, r4, lsl #1]
 150 0030 41F8102D 		str	r2, [r1, #-16]!
 151 0034 1B4A     		ldr	r2, .L20+8
 152 0036 0025     		movs	r5, #0
 153 0038 52F82400 		ldr	r0, [r2, r4, lsl #2]
 154 003c 8DF80C50 		strb	r5, [sp, #12]
 155 0040 FFF7FEFF 		bl	GPIO_Init
 156 0044 012E     		cmp	r6, #1
 157 0046 26D1     		bne	.L13
 158 0048 174B     		ldr	r3, .L20+12
 159 004a 185D     		ldrb	r0, [r3, r4]	@ zero_extendqisi2
 160 004c 174B     		ldr	r3, .L20+16
 161 004e 195D     		ldrb	r1, [r3, r4]	@ zero_extendqisi2
 162 0050 FFF7FEFF 		bl	SYSCFG_EXTILineConfig
 163 0054 164B     		ldr	r3, .L20+20
 164 0056 8DF81450 		strb	r5, [sp, #20]
 165 005a 33F81430 		ldrh	r3, [r3, r4, lsl #1]
 166 005e 012C     		cmp	r4, #1
 167 0060 0493     		str	r3, [sp, #16]
 168 0062 01D0     		beq	.L17
 169 0064 0823     		movs	r3, #8
 170 0066 00E0     		b	.L19
 171              	.L17:
 172 0068 0C23     		movs	r3, #12
 173              	.L19:
 174 006a 0125     		movs	r5, #1
 175 006c 04A8     		add	r0, sp, #16
 176 006e 8DF81530 		strb	r3, [sp, #21]
 177 0072 8DF81650 		strb	r5, [sp, #22]
 178 0076 FFF7FEFF 		bl	EXTI_Init
 179 007a 0E4B     		ldr	r3, .L20+24
 180 007c 8DF80750 		strb	r5, [sp, #7]
 181 0080 1B5D     		ldrb	r3, [r3, r4]	@ zero_extendqisi2
 182 0082 01A8     		add	r0, sp, #4
 183 0084 8DF80430 		strb	r3, [sp, #4]
 184 0088 0F23     		movs	r3, #15
 185 008a 8DF80530 		strb	r3, [sp, #5]
 186 008e 8DF80630 		strb	r3, [sp, #6]
 187 0092 FFF7FEFF 		bl	NVIC_Init
 188              	.L13:
 189 0096 06B0     		add	sp, sp, #24
 190 0098 70BD     		pop	{r4, r5, r6, pc}
 191              	.L21:
 192 009a 00BF     		.align	2
 193              	.L20:
 194 009c 00000000 		.word	.LANCHOR3
 195 00a0 00000000 		.word	.LANCHOR4
 196 00a4 00000000 		.word	.LANCHOR5
 197 00a8 00000000 		.word	.LANCHOR6
 198 00ac 00000000 		.word	.LANCHOR7
 199 00b0 00000000 		.word	.LANCHOR8
 200 00b4 00000000 		.word	.LANCHOR9
 202              		.section	.text.STM_EVAL_PBGetState,"ax",%progbits
 203              		.align	1
 204              		.global	STM_EVAL_PBGetState
 205              		.thumb
 206              		.thumb_func
 208              	STM_EVAL_PBGetState:
 209              		@ args = 0, pretend = 0, frame = 0
 210              		@ frame_needed = 0, uses_anonymous_args = 0
 211 0000 08B5     		push	{r3, lr}
 212 0002 50B1     		cbz	r0, .L24
 213 0004 431E     		subs	r3, r0, #1
 214 0006 DBB2     		uxtb	r3, r3
 215 0008 054A     		ldr	r2, .L25
 216 000a 52F82300 		ldr	r0, [r2, r3, lsl #2]
 217 000e 054A     		ldr	r2, .L25+4
 218 0010 32F81310 		ldrh	r1, [r2, r3, lsl #1]
 219 0014 FFF7FEFF 		bl	GPIO_ReadInputDataBit
 220 0018 08BD     		pop	{r3, pc}
 221              	.L24:
 222 001a FF20     		movs	r0, #255
 223 001c 08BD     		pop	{r3, pc}
 224              	.L26:
 225 001e 00BF     		.align	2
 226              	.L25:
 227 0020 00000000 		.word	.LANCHOR5
 228 0024 00000000 		.word	.LANCHOR4
 230              		.section	.text.STM_EVAL_COMInit,"ax",%progbits
 231              		.align	1
 232              		.global	STM_EVAL_COMInit
 233              		.thumb
 234              		.thumb_func
 236              	STM_EVAL_COMInit:
 237              		@ args = 0, pretend = 0, frame = 8
 238              		@ frame_needed = 0, uses_anonymous_args = 0
 239 0000 2DE9F743 		push	{r0, r1, r2, r4, r5, r6, r7, r8, r9, lr}
 240 0004 0446     		mov	r4, r0
 241 0006 8946     		mov	r9, r1
 242 0008 1F4E     		ldr	r6, .L28
 243 000a 204D     		ldr	r5, .L28+4
 244 000c 0121     		movs	r1, #1
 245 000e 4FF42010 		mov	r0, #2621440
 246 0012 FFF7FEFF 		bl	RCC_AHBPeriphClockCmd
 247 0016 0121     		movs	r1, #1
 248 0018 4FF48040 		mov	r0, #16384
 249 001c FFF7FEFF 		bl	RCC_APB2PeriphClockCmd
 250 0020 56F82400 		ldr	r0, [r6, r4, lsl #2]
 251 0024 0421     		movs	r1, #4
 252 0026 0722     		movs	r2, #7
 253 0028 FFF7FEFF 		bl	GPIO_PinAFConfig
 254 002c 0722     		movs	r2, #7
 255 002e 55F82400 		ldr	r0, [r5, r4, lsl #2]
 256 0032 0121     		movs	r1, #1
 257 0034 FFF7FEFF 		bl	GPIO_PinAFConfig
 258 0038 1023     		movs	r3, #16
 259 003a 0093     		str	r3, [sp, #0]
 260 003c 0323     		movs	r3, #3
 261 003e 4FF00208 		mov	r8, #2
 262 0042 8DF80530 		strb	r3, [sp, #5]
 263 0046 0127     		movs	r7, #1
 264 0048 0023     		movs	r3, #0
 265 004a 56F82400 		ldr	r0, [r6, r4, lsl #2]
 266 004e 8DF80630 		strb	r3, [sp, #6]
 267 0052 6946     		mov	r1, sp
 268 0054 8DF80480 		strb	r8, [sp, #4]
 269 0058 8DF80770 		strb	r7, [sp, #7]
 270 005c FFF7FEFF 		bl	GPIO_Init
 271 0060 55F82400 		ldr	r0, [r5, r4, lsl #2]
 272 0064 0A4D     		ldr	r5, .L28+8
 273 0066 CDF80080 		str	r8, [sp, #0]
 274 006a 6946     		mov	r1, sp
 275 006c FFF7FEFF 		bl	GPIO_Init
 276 0070 55F82400 		ldr	r0, [r5, r4, lsl #2]
 277 0074 4946     		mov	r1, r9
 278 0076 FFF7FEFF 		bl	USART_Init
 279 007a 55F82400 		ldr	r0, [r5, r4, lsl #2]
 280 007e 3946     		mov	r1, r7
 281 0080 FFF7FEFF 		bl	USART_Cmd
 282 0084 BDE8FE83 		pop	{r1, r2, r3, r4, r5, r6, r7, r8, r9, pc}
 283              	.L29:
 284              		.align	2
 285              	.L28:
 286 0088 00000000 		.word	.LANCHOR10
 287 008c 00000000 		.word	.LANCHOR11
 288 0090 00000000 		.word	.LANCHOR12
 290              		.section	.text.SD_LowLevel_DeInit,"ax",%progbits
 291              		.align	1
 292              		.global	SD_LowLevel_DeInit
 293              		.thumb
 294              		.thumb_func
 296              	SD_LowLevel_DeInit:
 297              		@ args = 0, pretend = 0, frame = 8
 298              		@ frame_needed = 0, uses_anonymous_args = 0
 299 0000 37B5     		push	{r0, r1, r2, r4, r5, lr}
 300 0002 1A4C     		ldr	r4, .L31
 301 0004 1A4D     		ldr	r5, .L31+4
 302 0006 0021     		movs	r1, #0
 303 0008 2046     		mov	r0, r4
 304 000a FFF7FEFF 		bl	SPI_Cmd
 305 000e 2046     		mov	r0, r4
 306 0010 FFF7FEFF 		bl	SPI_I2S_DeInit
 307 0014 0021     		movs	r1, #0
 308 0016 4FF48040 		mov	r0, #16384
 309 001a FFF7FEFF 		bl	RCC_APB1PeriphClockCmd
 310 001e 4FF40073 		mov	r3, #512
 311 0022 0093     		str	r3, [sp, #0]
 312 0024 6946     		mov	r1, sp
 313 0026 0023     		movs	r3, #0
 314 0028 1248     		ldr	r0, .L31+8
 315 002a 8DF80430 		strb	r3, [sp, #4]
 316 002e 8DF80730 		strb	r3, [sp, #7]
 317 0032 FFF7FEFF 		bl	GPIO_Init
 318 0036 4FF48043 		mov	r3, #16384
 319 003a 2846     		mov	r0, r5
 320 003c 6946     		mov	r1, sp
 321 003e 0093     		str	r3, [sp, #0]
 322 0040 4FF40044 		mov	r4, #32768
 323 0044 FFF7FEFF 		bl	GPIO_Init
 324 0048 2846     		mov	r0, r5
 325 004a 6946     		mov	r1, sp
 326 004c 0094     		str	r4, [sp, #0]
 327 004e FFF7FEFF 		bl	GPIO_Init
 328 0052 6946     		mov	r1, sp
 329 0054 0848     		ldr	r0, .L31+12
 330 0056 0094     		str	r4, [sp, #0]
 331 0058 FFF7FEFF 		bl	GPIO_Init
 332 005c 4023     		movs	r3, #64
 333 005e 0748     		ldr	r0, .L31+16
 334 0060 0093     		str	r3, [sp, #0]
 335 0062 6946     		mov	r1, sp
 336 0064 FFF7FEFF 		bl	GPIO_Init
 337 0068 3EBD     		pop	{r1, r2, r3, r4, r5, pc}
 338              	.L32:
 339 006a 00BF     		.align	2
 340              	.L31:
 341 006c 00380040 		.word	1073756160
 342 0070 00040048 		.word	1207960576
 343 0074 00140048 		.word	1207964672
 344 0078 00100048 		.word	1207963648
 345 007c 00080048 		.word	1207961600
 347              		.section	.text.SD_LowLevel_Init,"ax",%progbits
 348              		.align	1
 349              		.global	SD_LowLevel_Init
 350              		.thumb
 351              		.thumb_func
 353              	SD_LowLevel_Init:
 354              		@ args = 0, pretend = 0, frame = 32
 355              		@ frame_needed = 0, uses_anonymous_args = 0
 356 0000 2DE9F04F 		push	{r4, r5, r6, r7, r8, r9, sl, fp, lr}
 357 0004 0121     		movs	r1, #1
 358 0006 89B0     		sub	sp, sp, #36
 359 0008 DFF80C91 		ldr	r9, .L34+16
 360 000c 3E4E     		ldr	r6, .L34
 361 000e 4FF49800 		mov	r0, #4980736
 362 0012 FFF7FEFF 		bl	RCC_AHBPeriphClockCmd
 363 0016 0121     		movs	r1, #1
 364 0018 4FF48040 		mov	r0, #16384
 365 001c FFF7FEFF 		bl	RCC_APB1PeriphClockCmd
 366 0020 0025     		movs	r5, #0
 367 0022 0124     		movs	r4, #1
 368 0024 4FF40077 		mov	r7, #512
 369 0028 4FF00208 		mov	r8, #2
 370 002c 4FF0030A 		mov	sl, #3
 371 0030 4846     		mov	r0, r9
 372 0032 01A9     		add	r1, sp, #4
 373 0034 8DF80A50 		strb	r5, [sp, #10]
 374 0038 0197     		str	r7, [sp, #4]
 375 003a 8DF80880 		strb	r8, [sp, #8]
 376 003e 8DF809A0 		strb	sl, [sp, #9]
 377 0042 8DF80B40 		strb	r4, [sp, #11]
 378 0046 FFF7FEFF 		bl	GPIO_Init
 379 004a 4FF48043 		mov	r3, #16384
 380 004e 3046     		mov	r0, r6
 381 0050 01A9     		add	r1, sp, #4
 382 0052 0193     		str	r3, [sp, #4]
 383 0054 4FF4004B 		mov	fp, #32768
 384 0058 FFF7FEFF 		bl	GPIO_Init
 385 005c 3046     		mov	r0, r6
 386 005e 01A9     		add	r1, sp, #4
 387 0060 CDF804B0 		str	fp, [sp, #4]
 388 0064 FFF7FEFF 		bl	GPIO_Init
 389 0068 01A9     		add	r1, sp, #4
 390 006a 2848     		ldr	r0, .L34+4
 391 006c 8DF80A50 		strb	r5, [sp, #10]
 392 0070 CDF804B0 		str	fp, [sp, #4]
 393 0074 8DF80840 		strb	r4, [sp, #8]
 394 0078 8DF80B40 		strb	r4, [sp, #11]
 395 007c 8DF809A0 		strb	sl, [sp, #9]
 396 0080 FFF7FEFF 		bl	GPIO_Init
 397 0084 4023     		movs	r3, #64
 398 0086 01A9     		add	r1, sp, #4
 399 0088 2148     		ldr	r0, .L34+8
 400 008a 0193     		str	r3, [sp, #4]
 401 008c 8DF80850 		strb	r5, [sp, #8]
 402 0090 8DF80B40 		strb	r4, [sp, #11]
 403 0094 FFF7FEFF 		bl	GPIO_Init
 404 0098 4846     		mov	r0, r9
 405 009a 0921     		movs	r1, #9
 406 009c 0522     		movs	r2, #5
 407 009e FFF7FEFF 		bl	GPIO_PinAFConfig
 408 00a2 3046     		mov	r0, r6
 409 00a4 0E21     		movs	r1, #14
 410 00a6 0522     		movs	r2, #5
 411 00a8 FFF7FEFF 		bl	GPIO_PinAFConfig
 412 00ac 0522     		movs	r2, #5
 413 00ae 3046     		mov	r0, r6
 414 00b0 0F21     		movs	r1, #15
 415 00b2 FFF7FEFF 		bl	GPIO_PinAFConfig
 416 00b6 ADF80C50 		strh	r5, [sp, #12]	@ movhi
 417 00ba ADF81850 		strh	r5, [sp, #24]	@ movhi
 418 00be ADF81A50 		strh	r5, [sp, #26]	@ movhi
 419 00c2 4FF48273 		mov	r3, #260
 420 00c6 134D     		ldr	r5, .L34+12
 421 00c8 ADF80E30 		strh	r3, [sp, #14]	@ movhi
 422 00cc 4FF4E063 		mov	r3, #1792
 423 00d0 ADF81030 		strh	r3, [sp, #16]	@ movhi
 424 00d4 2846     		mov	r0, r5
 425 00d6 0723     		movs	r3, #7
 426 00d8 03A9     		add	r1, sp, #12
 427 00da ADF81C30 		strh	r3, [sp, #28]	@ movhi
 428 00de ADF81280 		strh	r8, [sp, #18]	@ movhi
 429 00e2 ADF81440 		strh	r4, [sp, #20]	@ movhi
 430 00e6 ADF81670 		strh	r7, [sp, #22]	@ movhi
 431 00ea FFF7FEFF 		bl	SPI_Init
 432 00ee 2846     		mov	r0, r5
 433 00f0 4FF48051 		mov	r1, #4096
 434 00f4 FFF7FEFF 		bl	SPI_RxFIFOThresholdConfig
 435 00f8 2846     		mov	r0, r5
 436 00fa 2146     		mov	r1, r4
 437 00fc FFF7FEFF 		bl	SPI_Cmd
 438 0100 09B0     		add	sp, sp, #36
 439 0102 BDE8F08F 		pop	{r4, r5, r6, r7, r8, r9, sl, fp, pc}
 440              	.L35:
 441 0106 00BF     		.align	2
 442              	.L34:
 443 0108 00040048 		.word	1207960576
 444 010c 00100048 		.word	1207963648
 445 0110 00080048 		.word	1207961600
 446 0114 00380040 		.word	1073756160
 447 0118 00140048 		.word	1207964672
 449              		.section	.text.TS751_LowLevel_DeInit,"ax",%progbits
 450              		.align	1
 451              		.global	TS751_LowLevel_DeInit
 452              		.thumb
 453              		.thumb_func
 455              	TS751_LowLevel_DeInit:
 456              		@ args = 0, pretend = 0, frame = 8
 457              		@ frame_needed = 0, uses_anonymous_args = 0
 458 0000 13B5     		push	{r0, r1, r4, lr}
 459 0002 144C     		ldr	r4, .L37
 460 0004 0021     		movs	r1, #0
 461 0006 2046     		mov	r0, r4
 462 0008 FFF7FEFF 		bl	I2C_Cmd
 463 000c 2046     		mov	r0, r4
 464 000e FFF7FEFF 		bl	I2C_DeInit
 465 0012 0021     		movs	r1, #0
 466 0014 4FF48000 		mov	r0, #4194304
 467 0018 FFF7FEFF 		bl	RCC_APB1PeriphClockCmd
 468 001c 4023     		movs	r3, #64
 469 001e 0093     		str	r3, [sp, #0]
 470 0020 6946     		mov	r1, sp
 471 0022 0023     		movs	r3, #0
 472 0024 0C48     		ldr	r0, .L37+4
 473 0026 8DF80430 		strb	r3, [sp, #4]
 474 002a 8DF80730 		strb	r3, [sp, #7]
 475 002e FFF7FEFF 		bl	GPIO_Init
 476 0032 4FF48063 		mov	r3, #1024
 477 0036 6946     		mov	r1, sp
 478 0038 4FF09040 		mov	r0, #1207959552
 479 003c 0093     		str	r3, [sp, #0]
 480 003e FFF7FEFF 		bl	GPIO_Init
 481 0042 4FF48073 		mov	r3, #256
 482 0046 4FF09040 		mov	r0, #1207959552
 483 004a 6946     		mov	r1, sp
 484 004c 0093     		str	r3, [sp, #0]
 485 004e FFF7FEFF 		bl	GPIO_Init
 486 0052 1CBD     		pop	{r2, r3, r4, pc}
 487              	.L38:
 488              		.align	2
 489              	.L37:
 490 0054 00580040 		.word	1073764352
 491 0058 00140048 		.word	1207964672
 493              		.section	.text.TS751_LowLevel_Init,"ax",%progbits
 494              		.align	1
 495              		.global	TS751_LowLevel_Init
 496              		.thumb
 497              		.thumb_func
 499              	TS751_LowLevel_Init:
 500              		@ args = 0, pretend = 0, frame = 8
 501              		@ frame_needed = 0, uses_anonymous_args = 0
 502 0000 13B5     		push	{r0, r1, r4, lr}
 503 0002 0121     		movs	r1, #1
 504 0004 4FF48000 		mov	r0, #4194304
 505 0008 FFF7FEFF 		bl	RCC_APB1PeriphClockCmd
 506 000c 1E4C     		ldr	r4, .L40
 507 000e 1F48     		ldr	r0, .L40+4
 508 0010 FFF7FEFF 		bl	RCC_I2CCLKConfig
 509 0014 0121     		movs	r1, #1
 510 0016 4FF48400 		mov	r0, #4325376
 511 001a FFF7FEFF 		bl	RCC_AHBPeriphClockCmd
 512 001e 2046     		mov	r0, r4
 513 0020 0621     		movs	r1, #6
 514 0022 0422     		movs	r2, #4
 515 0024 FFF7FEFF 		bl	GPIO_PinAFConfig
 516 0028 0A21     		movs	r1, #10
 517 002a 0422     		movs	r2, #4
 518 002c 4FF09040 		mov	r0, #1207959552
 519 0030 FFF7FEFF 		bl	GPIO_PinAFConfig
 520 0034 0422     		movs	r2, #4
 521 0036 0821     		movs	r1, #8
 522 0038 4FF09040 		mov	r0, #1207959552
 523 003c FFF7FEFF 		bl	GPIO_PinAFConfig
 524 0040 4023     		movs	r3, #64
 525 0042 0093     		str	r3, [sp, #0]
 526 0044 0223     		movs	r3, #2
 527 0046 8DF80430 		strb	r3, [sp, #4]
 528 004a 0323     		movs	r3, #3
 529 004c 8DF80530 		strb	r3, [sp, #5]
 530 0050 0123     		movs	r3, #1
 531 0052 8DF80630 		strb	r3, [sp, #6]
 532 0056 2046     		mov	r0, r4
 533 0058 0023     		movs	r3, #0
 534 005a 6946     		mov	r1, sp
 535 005c 8DF80730 		strb	r3, [sp, #7]
 536 0060 FFF7FEFF 		bl	GPIO_Init
 537 0064 4FF48063 		mov	r3, #1024
 538 0068 6946     		mov	r1, sp
 539 006a 4FF09040 		mov	r0, #1207959552
 540 006e 0093     		str	r3, [sp, #0]
 541 0070 FFF7FEFF 		bl	GPIO_Init
 542 0074 4FF48073 		mov	r3, #256
 543 0078 4FF09040 		mov	r0, #1207959552
 544 007c 6946     		mov	r1, sp
 545 007e 0093     		str	r3, [sp, #0]
 546 0080 FFF7FEFF 		bl	GPIO_Init
 547 0084 1CBD     		pop	{r2, r3, r4, pc}
 548              	.L41:
 549 0086 00BF     		.align	2
 550              	.L40:
 551 0088 00140048 		.word	1207964672
 552 008c 20000010 		.word	268435488
 554              		.section	.text.sEE_I2C_LowLevel_DeInit,"ax",%progbits
 555              		.align	1
 556              		.global	sEE_I2C_LowLevel_DeInit
 557              		.thumb
 558              		.thumb_func
 560              	sEE_I2C_LowLevel_DeInit:
 561              		@ args = 0, pretend = 0, frame = 8
 562              		@ frame_needed = 0, uses_anonymous_args = 0
 563 0000 13B5     		push	{r0, r1, r4, lr}
 564 0002 104C     		ldr	r4, .L43
 565 0004 0021     		movs	r1, #0
 566 0006 2046     		mov	r0, r4
 567 0008 FFF7FEFF 		bl	I2C_Cmd
 568 000c 2046     		mov	r0, r4
 569 000e FFF7FEFF 		bl	I2C_DeInit
 570 0012 0021     		movs	r1, #0
 571 0014 4FF48000 		mov	r0, #4194304
 572 0018 FFF7FEFF 		bl	RCC_APB1PeriphClockCmd
 573 001c 4023     		movs	r3, #64
 574 001e 0093     		str	r3, [sp, #0]
 575 0020 6946     		mov	r1, sp
 576 0022 0023     		movs	r3, #0
 577 0024 0848     		ldr	r0, .L43+4
 578 0026 8DF80430 		strb	r3, [sp, #4]
 579 002a 8DF80730 		strb	r3, [sp, #7]
 580 002e FFF7FEFF 		bl	GPIO_Init
 581 0032 4FF48063 		mov	r3, #1024
 582 0036 4FF09040 		mov	r0, #1207959552
 583 003a 6946     		mov	r1, sp
 584 003c 0093     		str	r3, [sp, #0]
 585 003e FFF7FEFF 		bl	GPIO_Init
 586 0042 1CBD     		pop	{r2, r3, r4, pc}
 587              	.L44:
 588              		.align	2
 589              	.L43:
 590 0044 00580040 		.word	1073764352
 591 0048 00140048 		.word	1207964672
 593              		.section	.text.sEE_I2C_LowLevel_Init,"ax",%progbits
 594              		.align	1
 595              		.global	sEE_I2C_LowLevel_Init
 596              		.thumb
 597              		.thumb_func
 599              	sEE_I2C_LowLevel_Init:
 600              		@ args = 0, pretend = 0, frame = 8
 601              		@ frame_needed = 0, uses_anonymous_args = 0
 602 0000 13B5     		push	{r0, r1, r4, lr}
 603 0002 1848     		ldr	r0, .L46
 604 0004 184C     		ldr	r4, .L46+4
 605 0006 FFF7FEFF 		bl	RCC_I2CCLKConfig
 606 000a 0121     		movs	r1, #1
 607 000c 4FF48400 		mov	r0, #4325376
 608 0010 FFF7FEFF 		bl	RCC_AHBPeriphClockCmd
 609 0014 0121     		movs	r1, #1
 610 0016 4FF48000 		mov	r0, #4194304
 611 001a FFF7FEFF 		bl	RCC_APB1PeriphClockCmd
 612 001e 2046     		mov	r0, r4
 613 0020 0621     		movs	r1, #6
 614 0022 0422     		movs	r2, #4
 615 0024 FFF7FEFF 		bl	GPIO_PinAFConfig
 616 0028 0A21     		movs	r1, #10
 617 002a 0422     		movs	r2, #4
 618 002c 4FF09040 		mov	r0, #1207959552
 619 0030 FFF7FEFF 		bl	GPIO_PinAFConfig
 620 0034 4023     		movs	r3, #64
 621 0036 0093     		str	r3, [sp, #0]
 622 0038 0223     		movs	r3, #2
 623 003a 8DF80430 		strb	r3, [sp, #4]
 624 003e 0323     		movs	r3, #3
 625 0040 8DF80530 		strb	r3, [sp, #5]
 626 0044 2046     		mov	r0, r4
 627 0046 0123     		movs	r3, #1
 628 0048 6946     		mov	r1, sp
 629 004a 8DF80630 		strb	r3, [sp, #6]
 630 004e FFF7FEFF 		bl	GPIO_Init
 631 0052 4FF48063 		mov	r3, #1024
 632 0056 4FF09040 		mov	r0, #1207959552
 633 005a 6946     		mov	r1, sp
 634 005c 0093     		str	r3, [sp, #0]
 635 005e FFF7FEFF 		bl	GPIO_Init
 636 0062 1CBD     		pop	{r2, r3, r4, pc}
 637              	.L47:
 638              		.align	2
 639              	.L46:
 640 0064 20000010 		.word	268435488
 641 0068 00140048 		.word	1207964672
 643              		.section	.text.sEE_SPI_LowLevel_DeInit,"ax",%progbits
 644              		.align	1
 645              		.global	sEE_SPI_LowLevel_DeInit
 646              		.thumb
 647              		.thumb_func
 649              	sEE_SPI_LowLevel_DeInit:
 650              		@ args = 0, pretend = 0, frame = 8
 651              		@ frame_needed = 0, uses_anonymous_args = 0
 652 0000 13B5     		push	{r0, r1, r4, lr}
 653 0002 174C     		ldr	r4, .L49
 654 0004 0021     		movs	r1, #0
 655 0006 2046     		mov	r0, r4
 656 0008 FFF7FEFF 		bl	SPI_Cmd
 657 000c 2046     		mov	r0, r4
 658 000e FFF7FEFF 		bl	SPI_I2S_DeInit
 659 0012 0021     		movs	r1, #0
 660 0014 4FF48040 		mov	r0, #16384
 661 0018 FFF7FEFF 		bl	RCC_APB1PeriphClockCmd
 662 001c 114C     		ldr	r4, .L49+4
 663 001e 1248     		ldr	r0, .L49+8
 664 0020 4FF40073 		mov	r3, #512
 665 0024 0093     		str	r3, [sp, #0]
 666 0026 6946     		mov	r1, sp
 667 0028 0023     		movs	r3, #0
 668 002a 8DF80430 		strb	r3, [sp, #4]
 669 002e 8DF80730 		strb	r3, [sp, #7]
 670 0032 FFF7FEFF 		bl	GPIO_Init
 671 0036 4FF48043 		mov	r3, #16384
 672 003a 2046     		mov	r0, r4
 673 003c 6946     		mov	r1, sp
 674 003e 0093     		str	r3, [sp, #0]
 675 0040 FFF7FEFF 		bl	GPIO_Init
 676 0044 4FF40043 		mov	r3, #32768
 677 0048 2046     		mov	r0, r4
 678 004a 6946     		mov	r1, sp
 679 004c 0093     		str	r3, [sp, #0]
 680 004e FFF7FEFF 		bl	GPIO_Init
 681 0052 8023     		movs	r3, #128
 682 0054 0548     		ldr	r0, .L49+12
 683 0056 0093     		str	r3, [sp, #0]
 684 0058 6946     		mov	r1, sp
 685 005a FFF7FEFF 		bl	GPIO_Init
 686 005e 1CBD     		pop	{r2, r3, r4, pc}
 687              	.L50:
 688              		.align	2
 689              	.L49:
 690 0060 00380040 		.word	1073756160
 691 0064 00040048 		.word	1207960576
 692 0068 00140048 		.word	1207964672
 693 006c 000C0048 		.word	1207962624
 695              		.section	.text.sEE_SPI_LowLevel_Init,"ax",%progbits
 696              		.align	1
 697              		.global	sEE_SPI_LowLevel_Init
 698              		.thumb
 699              		.thumb_func
 701              	sEE_SPI_LowLevel_Init:
 702              		@ args = 0, pretend = 0, frame = 32
 703              		@ frame_needed = 0, uses_anonymous_args = 0
 704 0000 2DE9F047 		push	{r4, r5, r6, r7, r8, r9, sl, lr}
 705 0004 0121     		movs	r1, #1
 706 0006 88B0     		sub	sp, sp, #32
 707 0008 DFF8F490 		ldr	r9, .L52+12
 708 000c 394D     		ldr	r5, .L52
 709 000e 4FF4A800 		mov	r0, #5505024
 710 0012 FFF7FEFF 		bl	RCC_AHBPeriphClockCmd
 711 0016 0121     		movs	r1, #1
 712 0018 4FF48040 		mov	r0, #16384
 713 001c FFF7FEFF 		bl	RCC_APB1PeriphClockCmd
 714 0020 0124     		movs	r4, #1
 715 0022 0026     		movs	r6, #0
 716 0024 4FF40077 		mov	r7, #512
 717 0028 4FF00208 		mov	r8, #2
 718 002c 4FF0030A 		mov	sl, #3
 719 0030 4846     		mov	r0, r9
 720 0032 01A9     		add	r1, sp, #4
 721 0034 0197     		str	r7, [sp, #4]
 722 0036 8DF80880 		strb	r8, [sp, #8]
 723 003a 8DF809A0 		strb	sl, [sp, #9]
 724 003e 8DF80A60 		strb	r6, [sp, #10]
 725 0042 8DF80B40 		strb	r4, [sp, #11]
 726 0046 FFF7FEFF 		bl	GPIO_Init
 727 004a 4FF48043 		mov	r3, #16384
 728 004e 2846     		mov	r0, r5
 729 0050 01A9     		add	r1, sp, #4
 730 0052 0193     		str	r3, [sp, #4]
 731 0054 FFF7FEFF 		bl	GPIO_Init
 732 0058 4FF40043 		mov	r3, #32768
 733 005c 2846     		mov	r0, r5
 734 005e 01A9     		add	r1, sp, #4
 735 0060 0193     		str	r3, [sp, #4]
 736 0062 FFF7FEFF 		bl	GPIO_Init
 737 0066 8023     		movs	r3, #128
 738 0068 01A9     		add	r1, sp, #4
 739 006a 2348     		ldr	r0, .L52+4
 740 006c 0193     		str	r3, [sp, #4]
 741 006e 8DF80840 		strb	r4, [sp, #8]
 742 0072 8DF80A60 		strb	r6, [sp, #10]
 743 0076 8DF80B40 		strb	r4, [sp, #11]
 744 007a 8DF809A0 		strb	sl, [sp, #9]
 745 007e FFF7FEFF 		bl	GPIO_Init
 746 0082 4846     		mov	r0, r9
 747 0084 0921     		movs	r1, #9
 748 0086 0522     		movs	r2, #5
 749 0088 FFF7FEFF 		bl	GPIO_PinAFConfig
 750 008c 2846     		mov	r0, r5
 751 008e 0E21     		movs	r1, #14
 752 0090 0522     		movs	r2, #5
 753 0092 FFF7FEFF 		bl	GPIO_PinAFConfig
 754 0096 0522     		movs	r2, #5
 755 0098 2846     		mov	r0, r5
 756 009a 0F21     		movs	r1, #15
 757 009c FFF7FEFF 		bl	GPIO_PinAFConfig
 758 00a0 4FF48273 		mov	r3, #260
 759 00a4 154D     		ldr	r5, .L52+8
 760 00a6 ADF80E30 		strh	r3, [sp, #14]	@ movhi
 761 00aa 4FF4E063 		mov	r3, #1792
 762 00ae ADF81030 		strh	r3, [sp, #16]	@ movhi
 763 00b2 2823     		movs	r3, #40
 764 00b4 ADF81830 		strh	r3, [sp, #24]	@ movhi
 765 00b8 2846     		mov	r0, r5
 766 00ba 0723     		movs	r3, #7
 767 00bc 03A9     		add	r1, sp, #12
 768 00be ADF81C30 		strh	r3, [sp, #28]	@ movhi
 769 00c2 ADF80C60 		strh	r6, [sp, #12]	@ movhi
 770 00c6 ADF81280 		strh	r8, [sp, #18]	@ movhi
 771 00ca ADF81440 		strh	r4, [sp, #20]	@ movhi
 772 00ce ADF81670 		strh	r7, [sp, #22]	@ movhi
 773 00d2 ADF81A60 		strh	r6, [sp, #26]	@ movhi
 774 00d6 FFF7FEFF 		bl	SPI_Init
 775 00da 2846     		mov	r0, r5
 776 00dc 4FF48051 		mov	r1, #4096
 777 00e0 FFF7FEFF 		bl	SPI_RxFIFOThresholdConfig
 778 00e4 2846     		mov	r0, r5
 779 00e6 2146     		mov	r1, r4
 780 00e8 FFF7FEFF 		bl	SPI_Cmd
 781 00ec 08B0     		add	sp, sp, #32
 782 00ee BDE8F087 		pop	{r4, r5, r6, r7, r8, r9, sl, pc}
 783              	.L53:
 784 00f2 00BF     		.align	2
 785              	.L52:
 786 00f4 00040048 		.word	1207960576
 787 00f8 000C0048 		.word	1207962624
 788 00fc 00380040 		.word	1073756160
 789 0100 00140048 		.word	1207964672
 791              		.global	COM_RX_AF
 792              		.global	COM_TX_AF
 793              		.global	COM_RX_PIN_SOURCE
 794              		.global	COM_TX_PIN_SOURCE
 795              		.global	COM_RX_PIN
 796              		.global	COM_TX_PIN
 797              		.global	COM_RX_PORT_CLK
 798              		.global	COM_TX_PORT_CLK
 799              		.global	COM_USART_CLK
 800              		.global	COM_RX_PORT
 801              		.global	COM_TX_PORT
 802              		.global	COM_USART
 803              		.global	BUTTON_IRQn
 804              		.global	BUTTON_PIN_SOURCE
 805              		.global	BUTTON_PORT_SOURCE
 806              		.global	BUTTON_EXTI_LINE
 807              		.global	BUTTON_CLK
 808              		.global	BUTTON_PIN
 809              		.global	BUTTON_PORT
 810              		.global	GPIO_CLK
 811              		.global	GPIO_PIN
 812              		.global	GPIO_PORT
 813              		.section	.data.COM_TX_PORT,"aw",%progbits
 814              		.align	2
 815              		.set	.LANCHOR10,. + 0
 818              	COM_TX_PORT:
 819 0000 00080048 		.word	1207961600
 820              		.section	.rodata.BUTTON_CLK,"a",%progbits
 821              		.align	2
 822              		.set	.LANCHOR3,. + 0
 825              	BUTTON_CLK:
 826 0000 00002000 		.word	2097152
 827 0004 00001000 		.word	1048576
 828 0008 00000400 		.word	262144
 829 000c 00002000 		.word	2097152
 830 0010 00001000 		.word	1048576
 831 0014 00000800 		.word	524288
 832              		.section	.data.GPIO_PORT,"aw",%progbits
 833              		.align	2
 834              		.set	.LANCHOR2,. + 0
 837              	GPIO_PORT:
 838 0000 00100048 		.word	1207963648
 839 0004 00100048 		.word	1207963648
 840 0008 00100048 		.word	1207963648
 841 000c 00100048 		.word	1207963648
 842              		.section	.rodata.BUTTON_PIN,"a",%progbits
 843              		.align	1
 844              		.set	.LANCHOR4,. + 0
 847              	BUTTON_PIN:
 848 0000 4000     		.short	64
 849 0002 4000     		.short	64
 850 0004 2000     		.short	32
 851 0006 8000     		.short	128
 852 0008 2000     		.short	32
 853 000a 0020     		.short	8192
 854              		.section	.rodata.GPIO_CLK,"a",%progbits
 855              		.align	2
 856              		.set	.LANCHOR0,. + 0
 859              	GPIO_CLK:
 860 0000 00002000 		.word	2097152
 861 0004 00002000 		.word	2097152
 862 0008 00002000 		.word	2097152
 863 000c 00002000 		.word	2097152
 864              		.section	.rodata.COM_USART_CLK,"a",%progbits
 865              		.align	2
 868              	COM_USART_CLK:
 869 0000 00400000 		.word	16384
 870              		.section	.rodata.GPIO_PIN,"a",%progbits
 871              		.align	1
 872              		.set	.LANCHOR1,. + 0
 875              	GPIO_PIN:
 876 0000 0001     		.short	256
 877 0002 0002     		.short	512
 878 0004 0004     		.short	1024
 879 0006 0008     		.short	2048
 880              		.section	.rodata.COM_TX_AF,"a",%progbits
 883              	COM_TX_AF:
 884 0000 07       		.byte	7
 885              		.section	.rodata.COM_RX_PIN,"a",%progbits
 886              		.align	1
 889              	COM_RX_PIN:
 890 0000 0200     		.short	2
 891              		.section	.rodata.COM_TX_PIN_SOURCE,"a",%progbits
 892              		.align	1
 895              	COM_TX_PIN_SOURCE:
 896 0000 0400     		.short	4
 897              		.section	.data.COM_RX_PORT,"aw",%progbits
 898              		.align	2
 899              		.set	.LANCHOR11,. + 0
 902              	COM_RX_PORT:
 903 0000 00100048 		.word	1207963648
 904              		.section	.rodata.BUTTON_PORT_SOURCE,"a",%progbits
 905              		.set	.LANCHOR6,. + 0
 908              	BUTTON_PORT_SOURCE:
 909 0000 04       		.byte	4
 910 0001 03       		.byte	3
 911 0002 01       		.byte	1
 912 0003 04       		.byte	4
 913 0004 03       		.byte	3
 914 0005 02       		.byte	2
 915              		.section	.rodata.COM_RX_PIN_SOURCE,"a",%progbits
 916              		.align	1
 919              	COM_RX_PIN_SOURCE:
 920 0000 0100     		.short	1
 921              		.section	.rodata.COM_RX_PORT_CLK,"a",%progbits
 922              		.align	2
 925              	COM_RX_PORT_CLK:
 926 0000 00002000 		.word	2097152
 927              		.section	.data.BUTTON_PORT,"aw",%progbits
 928              		.align	2
 929              		.set	.LANCHOR5,. + 0
 932              	BUTTON_PORT:
 933 0000 00100048 		.word	1207963648
 934 0004 000C0048 		.word	1207962624
 935 0008 00040048 		.word	1207960576
 936 000c 00100048 		.word	1207963648
 937 0010 000C0048 		.word	1207962624
 938 0014 00080048 		.word	1207961600
 939              		.section	.rodata.COM_TX_PIN,"a",%progbits
 940              		.align	1
 943              	COM_TX_PIN:
 944 0000 1000     		.short	16
 945              		.section	.rodata.COM_TX_PORT_CLK,"a",%progbits
 946              		.align	2
 949              	COM_TX_PORT_CLK:
 950 0000 00000800 		.word	524288
 951              		.section	.rodata.BUTTON_PIN_SOURCE,"a",%progbits
 952              		.set	.LANCHOR7,. + 0
 955              	BUTTON_PIN_SOURCE:
 956 0000 06       		.byte	6
 957 0001 06       		.byte	6
 958 0002 05       		.byte	5
 959 0003 07       		.byte	7
 960 0004 05       		.byte	5
 961 0005 0D       		.byte	13
 962              		.section	.rodata.BUTTON_IRQn,"a",%progbits
 963              		.set	.LANCHOR9,. + 0
 966              	BUTTON_IRQn:
 967 0000 17       		.byte	23
 968 0001 17       		.byte	23
 969 0002 17       		.byte	23
 970 0003 17       		.byte	23
 971 0004 17       		.byte	23
 972 0005 28       		.byte	40
 973              		.section	.rodata.BUTTON_EXTI_LINE,"a",%progbits
 974              		.align	1
 975              		.set	.LANCHOR8,. + 0
 978              	BUTTON_EXTI_LINE:
 979 0000 0600     		.short	6
 980 0002 0600     		.short	6
 981 0004 0500     		.short	5
 982 0006 0700     		.short	7
 983 0008 0500     		.short	5
 984 000a 0D00     		.short	13
 985              		.section	.rodata.COM_RX_AF,"a",%progbits
 988              	COM_RX_AF:
 989 0000 07       		.byte	7
 990              		.section	.data.COM_USART,"aw",%progbits
 991              		.align	2
 992              		.set	.LANCHOR12,. + 0
 995              	COM_USART:
 996 0000 00380140 		.word	1073821696
 997              		.ident	"GCC: (Sourcery CodeBench Lite 2012.09-63) 4.7.2"