   1              		.syntax unified
   2              		.cpu cortex-m4
   3              		.fpu softvfp
   4              		.eabi_attribute 20, 1
   5              		.eabi_attribute 21, 1
   6              		.eabi_attribute 23, 3
   7              		.eabi_attribute 24, 1
   8              		.eabi_attribute 25, 1
   9              		.eabi_attribute 26, 1
  10              		.eabi_attribute 30, 4
  11              		.eabi_attribute 34, 1
  12              		.eabi_attribute 18, 4
  13              		.thumb
  14              		.file	"stm32303c_eval_audio_codec.c"
  15              		.section	.text.Codec_CtrlInterface_Init,"ax",%progbits
  16              		.align	1
  17              		.thumb
  18              		.thumb_func
  20              	Codec_CtrlInterface_Init:
  21              		@ args = 0, pretend = 0, frame = 32
  22              		@ frame_needed = 0, uses_anonymous_args = 0
  23 0000 10B5     		push	{r4, lr}
  24 0002 1048     		ldr	r0, .L2
  25 0004 104C     		ldr	r4, .L2+4
  26 0006 88B0     		sub	sp, sp, #32
  27 0008 FFF7FEFF 		bl	RCC_I2CCLKConfig
  28 000c 0121     		movs	r1, #1
  29 000e 4FF48000 		mov	r0, #4194304
  30 0012 FFF7FEFF 		bl	RCC_APB1PeriphClockCmd
  31 0016 0023     		movs	r3, #0
  32 0018 08A9     		add	r1, sp, #32
  33 001a 0493     		str	r3, [sp, #16]
  34 001c 0293     		str	r3, [sp, #8]
  35 001e 0393     		str	r3, [sp, #12]
  36 0020 0593     		str	r3, [sp, #20]
  37 0022 0793     		str	r3, [sp, #28]
  38 0024 094B     		ldr	r3, .L2+8
  39 0026 4FF40042 		mov	r2, #32768
  40 002a 41F81C3D 		str	r3, [r1, #-28]!
  41 002e 2046     		mov	r0, r4
  42 0030 0692     		str	r2, [sp, #24]
  43 0032 FFF7FEFF 		bl	I2C_Init
  44 0036 2046     		mov	r0, r4
  45 0038 0121     		movs	r1, #1
  46 003a FFF7FEFF 		bl	I2C_Cmd
  47 003e 08B0     		add	sp, sp, #32
  48 0040 10BD     		pop	{r4, pc}
  49              	.L3:
  50 0042 00BF     		.align	2
  51              	.L2:
  52 0044 20000010 		.word	268435488
  53 0048 00580040 		.word	1073764352
  54 004c 1F1262C0 		.word	-1067314657
  56              		.section	.text.DMA2_Channel2_IRQHandler,"ax",%progbits
  57              		.align	1
  58              		.global	DMA2_Channel2_IRQHandler
  59              		.thumb
  60              		.thumb_func
  62              	DMA2_Channel2_IRQHandler:
  63              		@ args = 0, pretend = 0, frame = 0
  64              		@ frame_needed = 0, uses_anonymous_args = 0
  65 0000 F8B5     		push	{r3, r4, r5, r6, r7, lr}
  66 0002 1F48     		ldr	r0, .L13
  67 0004 FFF7FEFF 		bl	DMA_GetFlagStatus
  68 0008 0028     		cmp	r0, #0
  69 000a 38D0     		beq	.L4
  70 000c 1D4B     		ldr	r3, .L13+4
  71 000e 1C68     		ldr	r4, [r3, #0]
  72 0010 002C     		cmp	r4, #0
  73 0012 26D0     		beq	.L6
  74              	.L10:
  75 0014 1A48     		ldr	r0, .L13
  76 0016 FFF7FEFF 		bl	DMA_GetFlagStatus
  77 001a 0128     		cmp	r0, #1
  78 001c 0746     		mov	r7, r0
  79 001e F9D1     		bne	.L10
  80 0020 194D     		ldr	r5, .L13+8
  81 0022 1748     		ldr	r0, .L13
  82 0024 174C     		ldr	r4, .L13+4
  83 0026 FFF7FEFF 		bl	DMA_ClearFlag
  84 002a 1849     		ldr	r1, .L13+12
  85 002c 2A68     		ldr	r2, [r5, #0]
  86 002e 1848     		ldr	r0, .L13+16
  87 0030 4A60     		str	r2, [r1, #4]
  88 0032 2268     		ldr	r2, [r4, #0]
  89 0034 4FF6FF76 		movw	r6, #65535
  90 0038 B242     		cmp	r2, r6
  91 003a 28BF     		it	cs
  92 003c 3246     		movcs	r2, r6
  93 003e 8A81     		strh	r2, [r1, #12]	@ movhi
  94 0040 FFF7FEFF 		bl	DMA_Init
  95 0044 1248     		ldr	r0, .L13+16
  96 0046 3946     		mov	r1, r7
  97 0048 FFF7FEFF 		bl	DMA_Cmd
  98 004c 2368     		ldr	r3, [r4, #0]
  99 004e 2A68     		ldr	r2, [r5, #0]
 100 0050 B342     		cmp	r3, r6
 101 0052 38BF     		it	cc
 102 0054 1E46     		movcc	r6, r3
 103 0056 02EB4602 		add	r2, r2, r6, lsl #1
 104 005a 9E1B     		subs	r6, r3, r6
 105 005c 2A60     		str	r2, [r5, #0]
 106 005e 2660     		str	r6, [r4, #0]
 107 0060 F8BD     		pop	{r3, r4, r5, r6, r7, pc}
 108              	.L6:
 109 0062 2146     		mov	r1, r4
 110 0064 0A48     		ldr	r0, .L13+16
 111 0066 FFF7FEFF 		bl	DMA_Cmd
 112 006a 0548     		ldr	r0, .L13
 113 006c FFF7FEFF 		bl	DMA_ClearFlag
 114 0070 054B     		ldr	r3, .L13+8
 115 0072 1868     		ldr	r0, [r3, #0]
 116 0074 2146     		mov	r1, r4
 117 0076 BDE8F840 		pop	{r3, r4, r5, r6, r7, lr}
 118 007a FFF7FEBF 		b	EVAL_AUDIO_TransferComplete_CallBack
 119              	.L4:
 120 007e F8BD     		pop	{r3, r4, r5, r6, r7, pc}
 121              	.L14:
 122              		.align	2
 123              	.L13:
 124 0080 20000010 		.word	268435488
 125 0084 00000000 		.word	.LANCHOR0
 126 0088 00000000 		.word	CurrentPos
 127 008c 00000000 		.word	DMA_InitStructure
 128 0090 1C040240 		.word	1073873948
 130              		.section	.text.Codec_ReadRegister,"ax",%progbits
 131              		.align	1
 132              		.global	Codec_ReadRegister
 133              		.thumb
 134              		.thumb_func
 136              	Codec_ReadRegister:
 137              		@ args = 0, pretend = 0, frame = 0
 138              		@ frame_needed = 0, uses_anonymous_args = 0
 139 0000 73B5     		push	{r0, r1, r4, r5, r6, lr}
 140 0002 3C4D     		ldr	r5, .L32
 141 0004 4FF49613 		mov	r3, #1228800
 142 0008 0646     		mov	r6, r0
 143 000a 2B60     		str	r3, [r5, #0]
 144 000c 04E0     		b	.L16
 145              	.L17:
 146 000e 2B68     		ldr	r3, [r5, #0]
 147 0010 5A1E     		subs	r2, r3, #1
 148 0012 2A60     		str	r2, [r5, #0]
 149 0014 03B9     		cbnz	r3, .L16
 150 0016 5BE0     		b	.L31
 151              	.L16:
 152 0018 3748     		ldr	r0, .L32+4
 153 001a 364C     		ldr	r4, .L32
 154 001c 4FF40041 		mov	r1, #32768
 155 0020 FFF7FEFF 		bl	I2C_GetFlagStatus
 156 0024 0346     		mov	r3, r0
 157 0026 0028     		cmp	r0, #0
 158 0028 F1D1     		bne	.L17
 159 002a 4FF40052 		mov	r2, #8192
 160 002e 0092     		str	r2, [sp, #0]
 161 0030 3148     		ldr	r0, .L32+4
 162 0032 9421     		movs	r1, #148
 163 0034 0122     		movs	r2, #1
 164 0036 FFF7FEFF 		bl	I2C_TransferHandling
 165 003a 4FF49613 		mov	r3, #1228800
 166 003e 2360     		str	r3, [r4, #0]
 167 0040 04E0     		b	.L18
 168              	.L19:
 169 0042 2368     		ldr	r3, [r4, #0]
 170 0044 5A1E     		subs	r2, r3, #1
 171 0046 2260     		str	r2, [r4, #0]
 172 0048 03B9     		cbnz	r3, .L18
 173 004a 41E0     		b	.L31
 174              	.L18:
 175 004c 2A48     		ldr	r0, .L32+4
 176 004e 294D     		ldr	r5, .L32
 177 0050 0221     		movs	r1, #2
 178 0052 FFF7FEFF 		bl	I2C_GetFlagStatus
 179 0056 0028     		cmp	r0, #0
 180 0058 F3D0     		beq	.L19
 181 005a 2748     		ldr	r0, .L32+4
 182 005c 3146     		mov	r1, r6
 183 005e FFF7FEFF 		bl	I2C_SendData
 184 0062 4FF49613 		mov	r3, #1228800
 185 0066 2B60     		str	r3, [r5, #0]
 186 0068 04E0     		b	.L20
 187              	.L21:
 188 006a 2B68     		ldr	r3, [r5, #0]
 189 006c 5A1E     		subs	r2, r3, #1
 190 006e 2A60     		str	r2, [r5, #0]
 191 0070 03B9     		cbnz	r3, .L20
 192 0072 2DE0     		b	.L31
 193              	.L20:
 194 0074 2048     		ldr	r0, .L32+4
 195 0076 1F4C     		ldr	r4, .L32
 196 0078 4021     		movs	r1, #64
 197 007a FFF7FEFF 		bl	I2C_GetFlagStatus
 198 007e 0028     		cmp	r0, #0
 199 0080 F3D0     		beq	.L21
 200 0082 4FF41053 		mov	r3, #9216
 201 0086 0093     		str	r3, [sp, #0]
 202 0088 1B48     		ldr	r0, .L32+4
 203 008a 4FF00073 		mov	r3, #33554432
 204 008e 9421     		movs	r1, #148
 205 0090 0122     		movs	r2, #1
 206 0092 FFF7FEFF 		bl	I2C_TransferHandling
 207 0096 4FF49613 		mov	r3, #1228800
 208 009a 2360     		str	r3, [r4, #0]
 209 009c 04E0     		b	.L22
 210              	.L23:
 211 009e 2368     		ldr	r3, [r4, #0]
 212 00a0 5A1E     		subs	r2, r3, #1
 213 00a2 2260     		str	r2, [r4, #0]
 214 00a4 03B9     		cbnz	r3, .L22
 215 00a6 13E0     		b	.L31
 216              	.L22:
 217 00a8 1348     		ldr	r0, .L32+4
 218 00aa 124D     		ldr	r5, .L32
 219 00ac 0421     		movs	r1, #4
 220 00ae FFF7FEFF 		bl	I2C_GetFlagStatus
 221 00b2 0028     		cmp	r0, #0
 222 00b4 F3D0     		beq	.L23
 223 00b6 1048     		ldr	r0, .L32+4
 224 00b8 FFF7FEFF 		bl	I2C_ReceiveData
 225 00bc 4FF49613 		mov	r3, #1228800
 226 00c0 0646     		mov	r6, r0
 227 00c2 2B60     		str	r3, [r5, #0]
 228 00c4 2C46     		mov	r4, r5
 229 00c6 08E0     		b	.L24
 230              	.L25:
 231 00c8 2368     		ldr	r3, [r4, #0]
 232 00ca 5A1E     		subs	r2, r3, #1
 233 00cc 2260     		str	r2, [r4, #0]
 234 00ce 23B9     		cbnz	r3, .L24
 235              	.L31:
 236 00d0 02B0     		add	sp, sp, #8
 237 00d2 BDE87040 		pop	{r4, r5, r6, lr}
 238 00d6 FFF7FEBF 		b	Codec_TIMEOUT_UserCallback
 239              	.L24:
 240 00da 0748     		ldr	r0, .L32+4
 241 00dc 2021     		movs	r1, #32
 242 00de FFF7FEFF 		bl	I2C_GetFlagStatus
 243 00e2 0028     		cmp	r0, #0
 244 00e4 F0D0     		beq	.L25
 245 00e6 0448     		ldr	r0, .L32+4
 246 00e8 2021     		movs	r1, #32
 247 00ea FFF7FEFF 		bl	I2C_ClearFlag
 248 00ee 3046     		mov	r0, r6
 249 00f0 02B0     		add	sp, sp, #8
 250 00f2 70BD     		pop	{r4, r5, r6, pc}
 251              	.L33:
 252              		.align	2
 253              	.L32:
 254 00f4 00000000 		.word	.LANCHOR1
 255 00f8 00580040 		.word	1073764352
 257              		.section	.text.Codec_WriteRegister,"ax",%progbits
 258              		.align	1
 259              		.global	Codec_WriteRegister
 260              		.thumb
 261              		.thumb_func
 263              	Codec_WriteRegister:
 264              		@ args = 0, pretend = 0, frame = 0
 265              		@ frame_needed = 0, uses_anonymous_args = 0
 266 0000 F7B5     		push	{r0, r1, r2, r4, r5, r6, r7, lr}
 267 0002 324F     		ldr	r7, .L48
 268 0004 4FF48053 		mov	r3, #4096
 269 0008 0546     		mov	r5, r0
 270 000a 0C46     		mov	r4, r1
 271 000c 3B60     		str	r3, [r7, #0]
 272 000e 04E0     		b	.L35
 273              	.L36:
 274 0010 3B68     		ldr	r3, [r7, #0]
 275 0012 5A1E     		subs	r2, r3, #1
 276 0014 3A60     		str	r2, [r7, #0]
 277 0016 03B9     		cbnz	r3, .L35
 278 0018 41E0     		b	.L47
 279              	.L35:
 280 001a 2D48     		ldr	r0, .L48+4
 281 001c 2B4E     		ldr	r6, .L48
 282 001e 4FF40041 		mov	r1, #32768
 283 0022 FFF7FEFF 		bl	I2C_GetFlagStatus
 284 0026 0028     		cmp	r0, #0
 285 0028 F2D1     		bne	.L36
 286 002a 4FF40053 		mov	r3, #8192
 287 002e 0093     		str	r3, [sp, #0]
 288 0030 2748     		ldr	r0, .L48+4
 289 0032 4FF00073 		mov	r3, #33554432
 290 0036 9421     		movs	r1, #148
 291 0038 0222     		movs	r2, #2
 292 003a FFF7FEFF 		bl	I2C_TransferHandling
 293 003e 4FF48053 		mov	r3, #4096
 294 0042 3360     		str	r3, [r6, #0]
 295 0044 04E0     		b	.L37
 296              	.L38:
 297 0046 3368     		ldr	r3, [r6, #0]
 298 0048 5A1E     		subs	r2, r3, #1
 299 004a 3260     		str	r2, [r6, #0]
 300 004c 03B9     		cbnz	r3, .L37
 301 004e 26E0     		b	.L47
 302              	.L37:
 303 0050 1F48     		ldr	r0, .L48+4
 304 0052 1E4F     		ldr	r7, .L48
 305 0054 0221     		movs	r1, #2
 306 0056 FFF7FEFF 		bl	I2C_GetFlagStatus
 307 005a 0028     		cmp	r0, #0
 308 005c F3D0     		beq	.L38
 309 005e 1C48     		ldr	r0, .L48+4
 310 0060 2946     		mov	r1, r5
 311 0062 FFF7FEFF 		bl	I2C_SendData
 312 0066 4FF48053 		mov	r3, #4096
 313 006a 3B60     		str	r3, [r7, #0]
 314 006c 04E0     		b	.L39
 315              	.L40:
 316 006e 3B68     		ldr	r3, [r7, #0]
 317 0070 5A1E     		subs	r2, r3, #1
 318 0072 3A60     		str	r2, [r7, #0]
 319 0074 03B9     		cbnz	r3, .L39
 320 0076 12E0     		b	.L47
 321              	.L39:
 322 0078 1548     		ldr	r0, .L48+4
 323 007a 144E     		ldr	r6, .L48
 324 007c 0221     		movs	r1, #2
 325 007e FFF7FEFF 		bl	I2C_GetFlagStatus
 326 0082 0028     		cmp	r0, #0
 327 0084 F3D0     		beq	.L40
 328 0086 1248     		ldr	r0, .L48+4
 329 0088 2146     		mov	r1, r4
 330 008a FFF7FEFF 		bl	I2C_SendData
 331 008e 4FF48053 		mov	r3, #4096
 332 0092 3360     		str	r3, [r6, #0]
 333 0094 08E0     		b	.L41
 334              	.L42:
 335 0096 3368     		ldr	r3, [r6, #0]
 336 0098 5A1E     		subs	r2, r3, #1
 337 009a 3260     		str	r2, [r6, #0]
 338 009c 23B9     		cbnz	r3, .L41
 339              	.L47:
 340 009e 03B0     		add	sp, sp, #12
 341 00a0 BDE8F040 		pop	{r4, r5, r6, r7, lr}
 342 00a4 FFF7FEBF 		b	Codec_TIMEOUT_UserCallback
 343              	.L41:
 344 00a8 0948     		ldr	r0, .L48+4
 345 00aa 2021     		movs	r1, #32
 346 00ac FFF7FEFF 		bl	I2C_GetFlagStatus
 347 00b0 0028     		cmp	r0, #0
 348 00b2 F0D0     		beq	.L42
 349 00b4 2021     		movs	r1, #32
 350 00b6 0648     		ldr	r0, .L48+4
 351 00b8 FFF7FEFF 		bl	I2C_ClearFlag
 352 00bc 2846     		mov	r0, r5
 353 00be FFF7FEFF 		bl	Codec_ReadRegister
 354 00c2 001B     		subs	r0, r0, r4
 355 00c4 18BF     		it	ne
 356 00c6 0120     		movne	r0, #1
 357 00c8 03B0     		add	sp, sp, #12
 358 00ca F0BD     		pop	{r4, r5, r6, r7, pc}
 359              	.L49:
 360              		.align	2
 361              	.L48:
 362 00cc 00000000 		.word	.LANCHOR1
 363 00d0 00580040 		.word	1073764352
 365              		.section	.text.Codec_SwitchOutput,"ax",%progbits
 366              		.align	1
 367              		.global	Codec_SwitchOutput
 368              		.thumb
 369              		.thumb_func
 371              	Codec_SwitchOutput:
 372              		@ args = 0, pretend = 0, frame = 0
 373              		@ frame_needed = 0, uses_anonymous_args = 0
 374 0000 0138     		subs	r0, r0, #1
 375 0002 10B5     		push	{r4, lr}
 376 0004 114C     		ldr	r4, .L59
 377 0006 0328     		cmp	r0, #3
 378 0008 18D8     		bhi	.L51
 379 000a DFE800F0 		tbb	[pc, r0]
 380              	.L56:
 381 000e 02       		.byte	(.L52-.L56)/2
 382 000f 09       		.byte	(.L53-.L56)/2
 383 0010 10       		.byte	(.L54-.L56)/2
 384 0011 17       		.byte	(.L51-.L56)/2
 385              		.align	1
 386              	.L52:
 387 0012 0420     		movs	r0, #4
 388 0014 FA21     		movs	r1, #250
 389 0016 FFF7FEFF 		bl	Codec_WriteRegister
 390 001a FA23     		movs	r3, #250
 391 001c C0B2     		uxtb	r0, r0
 392 001e 13E0     		b	.L58
 393              	.L53:
 394 0020 0420     		movs	r0, #4
 395 0022 AF21     		movs	r1, #175
 396 0024 FFF7FEFF 		bl	Codec_WriteRegister
 397 0028 AF23     		movs	r3, #175
 398 002a C0B2     		uxtb	r0, r0
 399 002c 0CE0     		b	.L58
 400              	.L54:
 401 002e 0420     		movs	r0, #4
 402 0030 AA21     		movs	r1, #170
 403 0032 FFF7FEFF 		bl	Codec_WriteRegister
 404 0036 AA23     		movs	r3, #170
 405 0038 C0B2     		uxtb	r0, r0
 406 003a 05E0     		b	.L58
 407              	.L51:
 408 003c 0420     		movs	r0, #4
 409 003e 0521     		movs	r1, #5
 410 0040 FFF7FEFF 		bl	Codec_WriteRegister
 411 0044 0523     		movs	r3, #5
 412 0046 C0B2     		uxtb	r0, r0
 413              	.L58:
 414 0048 2370     		strb	r3, [r4, #0]
 415 004a 10BD     		pop	{r4, pc}
 416              	.L60:
 417              		.align	2
 418              	.L59:
 419 004c 00000000 		.word	.LANCHOR2
 421              		.section	.text.Codec_Record_Init,"ax",%progbits
 422              		.align	1
 423              		.global	Codec_Record_Init
 424              		.thumb
 425              		.thumb_func
 427              	Codec_Record_Init:
 428              		@ args = 0, pretend = 0, frame = 32
 429              		@ frame_needed = 0, uses_anonymous_args = 0
 430 0000 2DE9F04F 		push	{r4, r5, r6, r7, r8, r9, sl, fp, lr}
 431 0004 894C     		ldr	r4, .L62
 432 0006 DFF82882 		ldr	r8, .L62+4
 433 000a 89B0     		sub	sp, sp, #36
 434 000c 0121     		movs	r1, #1
 435 000e 4FF49400 		mov	r0, #4849664
 436 0012 FFF7FEFF 		bl	RCC_AHBPeriphClockCmd
 437 0016 2046     		mov	r0, r4
 438 0018 0621     		movs	r1, #6
 439 001a 0422     		movs	r2, #4
 440 001c FFF7FEFF 		bl	GPIO_PinAFConfig
 441 0020 0422     		movs	r2, #4
 442 0022 0A21     		movs	r1, #10
 443 0024 4FF09040 		mov	r0, #1207959552
 444 0028 FFF7FEFF 		bl	GPIO_PinAFConfig
 445 002c 0325     		movs	r5, #3
 446 002e 4FF48063 		mov	r3, #1024
 447 0032 0126     		movs	r6, #1
 448 0034 0227     		movs	r7, #2
 449 0036 02A9     		add	r1, sp, #8
 450 0038 4FF09040 		mov	r0, #1207959552
 451 003c 0293     		str	r3, [sp, #8]
 452 003e 8DF80D50 		strb	r5, [sp, #13]
 453 0042 8DF80E60 		strb	r6, [sp, #14]
 454 0046 8DF80F60 		strb	r6, [sp, #15]
 455 004a 4FF0400B 		mov	fp, #64
 456 004e 8DF80C70 		strb	r7, [sp, #12]
 457 0052 FFF7FEFF 		bl	GPIO_Init
 458 0056 2046     		mov	r0, r4
 459 0058 02A9     		add	r1, sp, #8
 460 005a CDF808B0 		str	fp, [sp, #8]
 461 005e FFF7FEFF 		bl	GPIO_Init
 462 0062 0421     		movs	r1, #4
 463 0064 0622     		movs	r2, #6
 464 0066 4FF09040 		mov	r0, #1207959552
 465 006a FFF7FEFF 		bl	GPIO_PinAFConfig
 466 006e 4046     		mov	r0, r8
 467 0070 0A21     		movs	r1, #10
 468 0072 0622     		movs	r2, #6
 469 0074 FFF7FEFF 		bl	GPIO_PinAFConfig
 470 0078 4046     		mov	r0, r8
 471 007a 0C21     		movs	r1, #12
 472 007c 0622     		movs	r2, #6
 473 007e FFF7FEFF 		bl	GPIO_PinAFConfig
 474 0082 0622     		movs	r2, #6
 475 0084 4046     		mov	r0, r8
 476 0086 0B21     		movs	r1, #11
 477 0088 FFF7FEFF 		bl	GPIO_PinAFConfig
 478 008c 0024     		movs	r4, #0
 479 008e 4FF4E053 		mov	r3, #7168
 480 0092 4046     		mov	r0, r8
 481 0094 02A9     		add	r1, sp, #8
 482 0096 0293     		str	r3, [sp, #8]
 483 0098 4FF01009 		mov	r9, #16
 484 009c 8DF80D50 		strb	r5, [sp, #13]
 485 00a0 8DF80E40 		strb	r4, [sp, #14]
 486 00a4 8DF80F40 		strb	r4, [sp, #15]
 487 00a8 8DF80C70 		strb	r7, [sp, #12]
 488 00ac FFF7FEFF 		bl	GPIO_Init
 489 00b0 02A9     		add	r1, sp, #8
 490 00b2 4FF09040 		mov	r0, #1207959552
 491 00b6 4FF4007A 		mov	sl, #512
 492 00ba CDF80890 		str	r9, [sp, #8]
 493 00be FFF7FEFF 		bl	GPIO_Init
 494 00c2 02A9     		add	r1, sp, #8
 495 00c4 4FF09040 		mov	r0, #1207959552
 496 00c8 8DF80D50 		strb	r5, [sp, #13]
 497 00cc 8DF80E40 		strb	r4, [sp, #14]
 498 00d0 8DF80F40 		strb	r4, [sp, #15]
 499 00d4 CDF808A0 		str	sl, [sp, #8]
 500 00d8 8DF80C70 		strb	r7, [sp, #12]
 501 00dc FFF7FEFF 		bl	GPIO_Init
 502 00e0 0522     		movs	r2, #5
 503 00e2 0921     		movs	r1, #9
 504 00e4 4FF09040 		mov	r0, #1207959552
 505 00e8 FFF7FEFF 		bl	GPIO_PinAFConfig
 506 00ec 4FF4E060 		mov	r0, #1792
 507 00f0 FFF7FEFF 		bl	NVIC_PriorityGroupConfig
 508 00f4 DFF83C81 		ldr	r8, .L62+8
 509 00f8 8DF80540 		strb	r4, [sp, #5]
 510 00fc 3323     		movs	r3, #51
 511 00fe 01A8     		add	r0, sp, #4
 512 0100 8DF80430 		strb	r3, [sp, #4]
 513 0104 8DF80650 		strb	r5, [sp, #6]
 514 0108 8DF80760 		strb	r6, [sp, #7]
 515 010c FFF7FEFF 		bl	NVIC_Init
 516 0110 3146     		mov	r1, r6
 517 0112 4FF40040 		mov	r0, #32768
 518 0116 FFF7FEFF 		bl	RCC_APB1PeriphClockCmd
 519 011a 4046     		mov	r0, r8
 520 011c FFF7FEFF 		bl	SPI_I2S_DeInit
 521 0120 4FF4FA53 		mov	r3, #8000
 522 0124 4046     		mov	r0, r8
 523 0126 0DEB0901 		add	r1, sp, r9
 524 012a 0693     		str	r3, [sp, #24]
 525 012c ADF81440 		strh	r4, [sp, #20]	@ movhi
 526 0130 ADF81C40 		strh	r4, [sp, #28]	@ movhi
 527 0134 ADF810A0 		strh	sl, [sp, #16]	@ movhi
 528 0138 ADF81290 		strh	r9, [sp, #18]	@ movhi
 529 013c ADF816A0 		strh	sl, [sp, #22]	@ movhi
 530 0140 FFF7FEFF 		bl	I2S_Init
 531 0144 0DEB0901 		add	r1, sp, r9
 532 0148 4FF04020 		mov	r0, #1073758208
 533 014c FFF7FEFF 		bl	I2S_FullDuplexConfig
 534 0150 2246     		mov	r2, r4
 535 0152 4046     		mov	r0, r8
 536 0154 7121     		movs	r1, #113
 537 0156 FFF7FEFF 		bl	SPI_I2S_ITConfig
 538 015a 4046     		mov	r0, r8
 539 015c 3146     		mov	r1, r6
 540 015e FFF7FEFF 		bl	I2S_Cmd
 541 0162 3146     		mov	r1, r6
 542 0164 4FF04020 		mov	r0, #1073758208
 543 0168 FFF7FEFF 		bl	I2S_Cmd
 544 016c FFF7FEFF 		bl	Codec_CtrlInterface_Init
 545 0170 0421     		movs	r1, #4
 546 0172 2846     		mov	r0, r5
 547 0174 FFF7FEFF 		bl	Codec_WriteRegister
 548 0178 FF21     		movs	r1, #255
 549 017a 0646     		mov	r6, r0
 550 017c 0420     		movs	r0, #4
 551 017e FFF7FEFF 		bl	Codec_WriteRegister
 552 0182 8021     		movs	r1, #128
 553 0184 8619     		adds	r6, r0, r6
 554 0186 0520     		movs	r0, #5
 555 0188 FFF7FEFF 		bl	Codec_WriteRegister
 556 018c 2946     		mov	r1, r5
 557 018e 3618     		adds	r6, r6, r0
 558 0190 0620     		movs	r0, #6
 559 0192 FFF7FEFF 		bl	Codec_WriteRegister
 560 0196 2146     		mov	r1, r4
 561 0198 3518     		adds	r5, r6, r0
 562 019a 0720     		movs	r0, #7
 563 019c FFF7FEFF 		bl	Codec_WriteRegister
 564 01a0 9021     		movs	r1, #144
 565 01a2 2D18     		adds	r5, r5, r0
 566 01a4 0820     		movs	r0, #8
 567 01a6 FFF7FEFF 		bl	Codec_WriteRegister
 568 01aa 9021     		movs	r1, #144
 569 01ac 2D18     		adds	r5, r5, r0
 570 01ae 0920     		movs	r0, #9
 571 01b0 FFF7FEFF 		bl	Codec_WriteRegister
 572 01b4 2146     		mov	r1, r4
 573 01b6 2D18     		adds	r5, r5, r0
 574 01b8 0C20     		movs	r0, #12
 575 01ba FFF7FEFF 		bl	Codec_WriteRegister
 576 01be 2146     		mov	r1, r4
 577 01c0 2D18     		adds	r5, r5, r0
 578 01c2 0D20     		movs	r0, #13
 579 01c4 FFF7FEFF 		bl	Codec_WriteRegister
 580 01c8 3946     		mov	r1, r7
 581 01ca 2D18     		adds	r5, r5, r0
 582 01cc 0E20     		movs	r0, #14
 583 01ce FFF7FEFF 		bl	Codec_WriteRegister
 584 01d2 C221     		movs	r1, #194
 585 01d4 2D18     		adds	r5, r5, r0
 586 01d6 0F20     		movs	r0, #15
 587 01d8 FFF7FEFF 		bl	Codec_WriteRegister
 588 01dc 2E21     		movs	r1, #46
 589 01de 2D18     		adds	r5, r5, r0
 590 01e0 4846     		mov	r0, r9
 591 01e2 FFF7FEFF 		bl	Codec_WriteRegister
 592 01e6 5946     		mov	r1, fp
 593 01e8 2D18     		adds	r5, r5, r0
 594 01ea 1120     		movs	r0, #17
 595 01ec FFF7FEFF 		bl	Codec_WriteRegister
 596 01f0 2021     		movs	r1, #32
 597 01f2 2D18     		adds	r5, r5, r0
 598 01f4 1120     		movs	r0, #17
 599 01f6 FFF7FEFF 		bl	Codec_WriteRegister
 600 01fa 2146     		mov	r1, r4
 601 01fc 2D18     		adds	r5, r5, r0
 602 01fe 1220     		movs	r0, #18
 603 0200 FFF7FEFF 		bl	Codec_WriteRegister
 604 0204 2146     		mov	r1, r4
 605 0206 2D18     		adds	r5, r5, r0
 606 0208 1320     		movs	r0, #19
 607 020a FFF7FEFF 		bl	Codec_WriteRegister
 608 020e 5021     		movs	r1, #80
 609 0210 2C18     		adds	r4, r5, r0
 610 0212 3420     		movs	r0, #52
 611 0214 FFF7FEFF 		bl	Codec_WriteRegister
 612 0218 1421     		movs	r1, #20
 613 021a 2418     		adds	r4, r4, r0
 614 021c 3846     		mov	r0, r7
 615 021e FFF7FEFF 		bl	Codec_WriteRegister
 616 0222 2018     		adds	r0, r4, r0
 617 0224 09B0     		add	sp, sp, #36
 618 0226 BDE8F08F 		pop	{r4, r5, r6, r7, r8, r9, sl, fp, pc}
 619              	.L63:
 620 022a 00BF     		.align	2
 621              	.L62:
 622 022c 00140048 		.word	1207964672
 623 0230 00080048 		.word	1207961600
 624 0234 003C0040 		.word	1073757184
 626              		.section	.text.Codec_Mute.part.3,"ax",%progbits
 627              		.align	1
 628              		.thumb
 629              		.thumb_func
 631              	Codec_Mute.part.3:
 632              		@ args = 0, pretend = 0, frame = 0
 633              		@ frame_needed = 0, uses_anonymous_args = 0
 634 0000 10B5     		push	{r4, lr}
 635 0002 FF21     		movs	r1, #255
 636 0004 0420     		movs	r0, #4
 637 0006 FFF7FEFF 		bl	Codec_WriteRegister
 638 000a F021     		movs	r1, #240
 639 000c 0446     		mov	r4, r0
 640 000e 0F20     		movs	r0, #15
 641 0010 FFF7FEFF 		bl	Codec_WriteRegister
 642 0014 0019     		adds	r0, r0, r4
 643 0016 10BD     		pop	{r4, pc}
 645              		.section	.text.EVAL_AUDIO_Mute,"ax",%progbits
 646              		.align	1
 647              		.global	EVAL_AUDIO_Mute
 648              		.thumb
 649              		.thumb_func
 651              	EVAL_AUDIO_Mute:
 652              		@ args = 0, pretend = 0, frame = 0
 653              		@ frame_needed = 0, uses_anonymous_args = 0
 654 0000 0128     		cmp	r0, #1
 655 0002 10B5     		push	{r4, lr}
 656 0004 03D1     		bne	.L66
 657 0006 BDE81040 		pop	{r4, lr}
 658 000a FFF7FEBF 		b	Codec_Mute.part.3
 659              	.L66:
 660 000e 0521     		movs	r1, #5
 661 0010 0420     		movs	r0, #4
 662 0012 FFF7FEFF 		bl	Codec_WriteRegister
 663 0016 0221     		movs	r1, #2
 664 0018 0446     		mov	r4, r0
 665 001a 0F20     		movs	r0, #15
 666 001c FFF7FEFF 		bl	Codec_WriteRegister
 667 0020 0019     		adds	r0, r0, r4
 668 0022 10BD     		pop	{r4, pc}
 670              		.section	.text.EVAL_AUDIO_VolumeCtl,"ax",%progbits
 671              		.align	1
 672              		.global	EVAL_AUDIO_VolumeCtl
 673              		.thumb
 674              		.thumb_func
 676              	EVAL_AUDIO_VolumeCtl:
 677              		@ args = 0, pretend = 0, frame = 0
 678              		@ frame_needed = 0, uses_anonymous_args = 0
 679 0000 6428     		cmp	r0, #100
 680 0002 38B5     		push	{r3, r4, r5, lr}
 681 0004 4FF06401 		mov	r1, #100
 682 0008 04D8     		bhi	.L68
 683 000a C0EB0020 		rsb	r0, r0, r0, lsl #8
 684 000e 90FBF1F1 		sdiv	r1, r0, r1
 685 0012 C9B2     		uxtb	r1, r1
 686              	.L68:
 687 0014 1931     		adds	r1, r1, #25
 688 0016 CCB2     		uxtb	r4, r1
 689 0018 2146     		mov	r1, r4
 690 001a 2020     		movs	r0, #32
 691 001c FFF7FEFF 		bl	Codec_WriteRegister
 692 0020 2146     		mov	r1, r4
 693 0022 0546     		mov	r5, r0
 694 0024 2120     		movs	r0, #33
 695 0026 FFF7FEFF 		bl	Codec_WriteRegister
 696 002a 4019     		adds	r0, r0, r5
 697 002c 38BD     		pop	{r3, r4, r5, pc}
 699              		.section	.text.EVAL_AUDIO_Init,"ax",%progbits
 700              		.align	1
 701              		.global	EVAL_AUDIO_Init
 702              		.thumb
 703              		.thumb_func
 705              	EVAL_AUDIO_Init:
 706              		@ args = 0, pretend = 0, frame = 32
 707              		@ frame_needed = 0, uses_anonymous_args = 0
 708 0000 2DE9F04F 		push	{r4, r5, r6, r7, r8, r9, sl, fp, lr}
 709 0004 0121     		movs	r1, #1
 710 0006 89B0     		sub	sp, sp, #36
 711 0008 8346     		mov	fp, r0
 712 000a 4FF49400 		mov	r0, #4849664
 713 000e 1746     		mov	r7, r2
 714 0010 FFF7FEFF 		bl	RCC_AHBPeriphClockCmd
 715 0014 0621     		movs	r1, #6
 716 0016 0422     		movs	r2, #4
 717 0018 BF48     		ldr	r0, .L82
 718 001a FFF7FEFF 		bl	GPIO_PinAFConfig
 719 001e 0422     		movs	r2, #4
 720 0020 0A21     		movs	r1, #10
 721 0022 4FF09040 		mov	r0, #1207959552
 722 0026 FFF7FEFF 		bl	GPIO_PinAFConfig
 723 002a 0125     		movs	r5, #1
 724 002c 0226     		movs	r6, #2
 725 002e 4FF00308 		mov	r8, #3
 726 0032 4FF48063 		mov	r3, #1024
 727 0036 4FF09040 		mov	r0, #1207959552
 728 003a 02A9     		add	r1, sp, #8
 729 003c 0293     		str	r3, [sp, #8]
 730 003e 8DF80E50 		strb	r5, [sp, #14]
 731 0042 8DF80F50 		strb	r5, [sp, #15]
 732 0046 8DF80C60 		strb	r6, [sp, #12]
 733 004a 8DF80D80 		strb	r8, [sp, #13]
 734 004e FFF7FEFF 		bl	GPIO_Init
 735 0052 4023     		movs	r3, #64
 736 0054 B048     		ldr	r0, .L82
 737 0056 0293     		str	r3, [sp, #8]
 738 0058 02A9     		add	r1, sp, #8
 739 005a FFF7FEFF 		bl	GPIO_Init
 740 005e 0421     		movs	r1, #4
 741 0060 0622     		movs	r2, #6
 742 0062 4FF09040 		mov	r0, #1207959552
 743 0066 FFF7FEFF 		bl	GPIO_PinAFConfig
 744 006a 0A21     		movs	r1, #10
 745 006c 0622     		movs	r2, #6
 746 006e AB48     		ldr	r0, .L82+4
 747 0070 FFF7FEFF 		bl	GPIO_PinAFConfig
 748 0074 0C21     		movs	r1, #12
 749 0076 0622     		movs	r2, #6
 750 0078 A848     		ldr	r0, .L82+4
 751 007a FFF7FEFF 		bl	GPIO_PinAFConfig
 752 007e 0622     		movs	r2, #6
 753 0080 0B21     		movs	r1, #11
 754 0082 A648     		ldr	r0, .L82+4
 755 0084 FFF7FEFF 		bl	GPIO_PinAFConfig
 756 0088 0024     		movs	r4, #0
 757 008a 4FF4E053 		mov	r3, #7168
 758 008e A348     		ldr	r0, .L82+4
 759 0090 0293     		str	r3, [sp, #8]
 760 0092 02A9     		add	r1, sp, #8
 761 0094 4FF0100A 		mov	sl, #16
 762 0098 8DF80E40 		strb	r4, [sp, #14]
 763 009c 8DF80F40 		strb	r4, [sp, #15]
 764 00a0 8DF80C60 		strb	r6, [sp, #12]
 765 00a4 8DF80D80 		strb	r8, [sp, #13]
 766 00a8 FFF7FEFF 		bl	GPIO_Init
 767 00ac 4FF09040 		mov	r0, #1207959552
 768 00b0 02A9     		add	r1, sp, #8
 769 00b2 4FF40079 		mov	r9, #512
 770 00b6 CDF808A0 		str	sl, [sp, #8]
 771 00ba FFF7FEFF 		bl	GPIO_Init
 772 00be 4FF09040 		mov	r0, #1207959552
 773 00c2 02A9     		add	r1, sp, #8
 774 00c4 8DF80E40 		strb	r4, [sp, #14]
 775 00c8 8DF80F40 		strb	r4, [sp, #15]
 776 00cc CDF80890 		str	r9, [sp, #8]
 777 00d0 8DF80C60 		strb	r6, [sp, #12]
 778 00d4 8DF80D80 		strb	r8, [sp, #13]
 779 00d8 FFF7FEFF 		bl	GPIO_Init
 780 00dc 0522     		movs	r2, #5
 781 00de 0921     		movs	r1, #9
 782 00e0 4FF09040 		mov	r0, #1207959552
 783 00e4 FFF7FEFF 		bl	GPIO_PinAFConfig
 784 00e8 4FF4E060 		mov	r0, #1792
 785 00ec FFF7FEFF 		bl	NVIC_PriorityGroupConfig
 786 00f0 3323     		movs	r3, #51
 787 00f2 01A8     		add	r0, sp, #4
 788 00f4 8DF80430 		strb	r3, [sp, #4]
 789 00f8 8DF80540 		strb	r4, [sp, #5]
 790 00fc 8DF80750 		strb	r5, [sp, #7]
 791 0100 8DF80680 		strb	r8, [sp, #6]
 792 0104 FFF7FEFF 		bl	NVIC_Init
 793 0108 2946     		mov	r1, r5
 794 010a 4FF40040 		mov	r0, #32768
 795 010e FFF7FEFF 		bl	RCC_APB1PeriphClockCmd
 796 0112 8348     		ldr	r0, .L82+8
 797 0114 FFF7FEFF 		bl	SPI_I2S_DeInit
 798 0118 4FF4FA43 		mov	r3, #32000
 799 011c 8048     		ldr	r0, .L82+8
 800 011e 0693     		str	r3, [sp, #24]
 801 0120 0DEB0A01 		add	r1, sp, sl
 802 0124 ADF81440 		strh	r4, [sp, #20]	@ movhi
 803 0128 ADF81C40 		strh	r4, [sp, #28]	@ movhi
 804 012c ADF81090 		strh	r9, [sp, #16]	@ movhi
 805 0130 ADF812A0 		strh	sl, [sp, #18]	@ movhi
 806 0134 ADF81690 		strh	r9, [sp, #22]	@ movhi
 807 0138 FFF7FEFF 		bl	I2S_Init
 808 013c 2246     		mov	r2, r4
 809 013e 7848     		ldr	r0, .L82+8
 810 0140 784C     		ldr	r4, .L82+12
 811 0142 7121     		movs	r1, #113
 812 0144 FFF7FEFF 		bl	SPI_I2S_ITConfig
 813 0148 2946     		mov	r1, r5
 814 014a 7548     		ldr	r0, .L82+8
 815 014c FFF7FEFF 		bl	I2S_Cmd
 816 0150 FFF7FEFF 		bl	Codec_CtrlInterface_Init
 817 0154 3046     		mov	r0, r6
 818 0156 9E21     		movs	r1, #158
 819 0158 FFF7FEFF 		bl	Codec_WriteRegister
 820 015c 0546     		mov	r5, r0
 821 015e 0BF1FF30 		add	r0, fp, #-1
 822 0162 4045     		cmp	r0, r8
 823 0164 18D8     		bhi	.L72
 824 0166 DFE800F0 		tbb	[pc, r0]
 825              	.L77:
 826 016a 02       		.byte	(.L73-.L77)/2
 827 016b 09       		.byte	(.L74-.L77)/2
 828 016c 10       		.byte	(.L75-.L77)/2
 829 016d 17       		.byte	(.L72-.L77)/2
 830              		.align	1
 831              	.L73:
 832 016e 0420     		movs	r0, #4
 833 0170 FA21     		movs	r1, #250
 834 0172 FFF7FEFF 		bl	Codec_WriteRegister
 835 0176 FA23     		movs	r3, #250
 836 0178 4519     		adds	r5, r0, r5
 837 017a 13E0     		b	.L81
 838              	.L74:
 839 017c 0420     		movs	r0, #4
 840 017e AF21     		movs	r1, #175
 841 0180 FFF7FEFF 		bl	Codec_WriteRegister
 842 0184 AF23     		movs	r3, #175
 843 0186 4519     		adds	r5, r0, r5
 844 0188 0CE0     		b	.L81
 845              	.L75:
 846 018a 0420     		movs	r0, #4
 847 018c AA21     		movs	r1, #170
 848 018e FFF7FEFF 		bl	Codec_WriteRegister
 849 0192 AA23     		movs	r3, #170
 850 0194 4519     		adds	r5, r0, r5
 851 0196 05E0     		b	.L81
 852              	.L72:
 853 0198 0420     		movs	r0, #4
 854 019a 0521     		movs	r1, #5
 855 019c FFF7FEFF 		bl	Codec_WriteRegister
 856 01a0 0523     		movs	r3, #5
 857 01a2 4519     		adds	r5, r0, r5
 858              	.L81:
 859 01a4 8021     		movs	r1, #128
 860 01a6 0520     		movs	r0, #5
 861 01a8 2370     		strb	r3, [r4, #0]
 862 01aa FFF7FEFF 		bl	Codec_WriteRegister
 863 01ae 0321     		movs	r1, #3
 864 01b0 2C18     		adds	r4, r5, r0
 865 01b2 0620     		movs	r0, #6
 866 01b4 FFF7FEFF 		bl	Codec_WriteRegister
 867 01b8 0021     		movs	r1, #0
 868 01ba 2418     		adds	r4, r4, r0
 869 01bc 0720     		movs	r0, #7
 870 01be FFF7FEFF 		bl	Codec_WriteRegister
 871 01c2 0021     		movs	r1, #0
 872 01c4 2418     		adds	r4, r4, r0
 873 01c6 0820     		movs	r0, #8
 874 01c8 FFF7FEFF 		bl	Codec_WriteRegister
 875 01cc 0021     		movs	r1, #0
 876 01ce 2418     		adds	r4, r4, r0
 877 01d0 0920     		movs	r0, #9
 878 01d2 FFF7FEFF 		bl	Codec_WriteRegister
 879 01d6 1021     		movs	r1, #16
 880 01d8 2418     		adds	r4, r4, r0
 881 01da 0D20     		movs	r0, #13
 882 01dc FFF7FEFF 		bl	Codec_WriteRegister
 883 01e0 0221     		movs	r1, #2
 884 01e2 2418     		adds	r4, r4, r0
 885 01e4 0E20     		movs	r0, #14
 886 01e6 FFF7FEFF 		bl	Codec_WriteRegister
 887 01ea 3221     		movs	r1, #50
 888 01ec 2418     		adds	r4, r4, r0
 889 01ee 0F20     		movs	r0, #15
 890 01f0 FFF7FEFF 		bl	Codec_WriteRegister
 891 01f4 0021     		movs	r1, #0
 892 01f6 2418     		adds	r4, r4, r0
 893 01f8 1A20     		movs	r0, #26
 894 01fa FFF7FEFF 		bl	Codec_WriteRegister
 895 01fe 0021     		movs	r1, #0
 896 0200 2418     		adds	r4, r4, r0
 897 0202 1B20     		movs	r0, #27
 898 0204 FFF7FEFF 		bl	Codec_WriteRegister
 899 0208 F421     		movs	r1, #244
 900 020a 2418     		adds	r4, r4, r0
 901 020c 2220     		movs	r0, #34
 902 020e FFF7FEFF 		bl	Codec_WriteRegister
 903 0212 2418     		adds	r4, r4, r0
 904 0214 2320     		movs	r0, #35
 905 0216 F421     		movs	r1, #244
 906 0218 FFF7FEFF 		bl	Codec_WriteRegister
 907 021c 0021     		movs	r1, #0
 908 021e 2418     		adds	r4, r4, r0
 909 0220 2420     		movs	r0, #36
 910 0222 FFF7FEFF 		bl	Codec_WriteRegister
 911 0226 0021     		movs	r1, #0
 912 0228 2418     		adds	r4, r4, r0
 913 022a 2520     		movs	r0, #37
 914 022c FFF7FEFF 		bl	Codec_WriteRegister
 915 0230 5021     		movs	r1, #80
 916 0232 2418     		adds	r4, r4, r0
 917 0234 3420     		movs	r0, #52
 918 0236 FFF7FEFF 		bl	Codec_WriteRegister
 919 023a 0021     		movs	r1, #0
 920 023c 2418     		adds	r4, r4, r0
 921 023e 0220     		movs	r0, #2
 922 0240 FFF7FEFF 		bl	Codec_WriteRegister
 923 0244 FF21     		movs	r1, #255
 924 0246 2418     		adds	r4, r4, r0
 925 0248 2020     		movs	r0, #32
 926 024a FFF7FEFF 		bl	Codec_WriteRegister
 927 024e FF21     		movs	r1, #255
 928 0250 2418     		adds	r4, r4, r0
 929 0252 2120     		movs	r0, #33
 930 0254 FFF7FEFF 		bl	Codec_WriteRegister
 931 0258 0121     		movs	r1, #1
 932 025a 2418     		adds	r4, r4, r0
 933 025c 4FF40040 		mov	r0, #32768
 934 0260 FFF7FEFF 		bl	RCC_APB1PeriphClockCmd
 935 0264 2E48     		ldr	r0, .L82+8
 936 0266 FFF7FEFF 		bl	SPI_I2S_DeInit
 937 026a 2D48     		ldr	r0, .L82+8
 938 026c FFF7FEFF 		bl	SPI_I2S_DeInit
 939 0270 1026     		movs	r6, #16
 940 0272 0023     		movs	r3, #0
 941 0274 1D46     		mov	r5, r3	@ movhi
 942 0276 ADF81430 		strh	r3, [sp, #20]	@ movhi
 943 027a ADF81C30 		strh	r3, [sp, #28]	@ movhi
 944 027e 2848     		ldr	r0, .L82+8
 945 0280 0697     		str	r7, [sp, #24]
 946 0282 4FF40073 		mov	r3, #512
 947 0286 0DEB0601 		add	r1, sp, r6
 948 028a ADF81260 		strh	r6, [sp, #18]	@ movhi
 949 028e ADF81030 		strh	r3, [sp, #16]	@ movhi
 950 0292 ADF81630 		strh	r3, [sp, #22]	@ movhi
 951 0296 FFF7FEFF 		bl	I2S_Init
 952 029a 002C     		cmp	r4, #0
 953 029c 37D1     		bne	.L80
 954 029e 0220     		movs	r0, #2
 955 02a0 0121     		movs	r1, #1
 956 02a2 FFF7FEFF 		bl	RCC_AHBPeriphClockCmd
 957 02a6 2146     		mov	r1, r4
 958 02a8 1F48     		ldr	r0, .L82+16
 959 02aa FFF7FEFF 		bl	DMA_Cmd
 960 02ae 1E48     		ldr	r0, .L82+16
 961 02b0 FFF7FEFF 		bl	DMA_DeInit
 962 02b4 1D49     		ldr	r1, .L82+20
 963 02b6 1E4B     		ldr	r3, .L82+24
 964 02b8 1B48     		ldr	r0, .L82+16
 965 02ba 0C61     		str	r4, [r1, #16]
 966 02bc 81E85800 		stmia	r1, {r3, r4, r6}
 967 02c0 4FF6FE73 		movw	r3, #65534
 968 02c4 8B81     		strh	r3, [r1, #12]	@ movhi
 969 02c6 8023     		movs	r3, #128
 970 02c8 4B61     		str	r3, [r1, #20]
 971 02ca 4FF48073 		mov	r3, #256
 972 02ce 8B61     		str	r3, [r1, #24]
 973 02d0 4FF48063 		mov	r3, #1024
 974 02d4 CB61     		str	r3, [r1, #28]
 975 02d6 0C62     		str	r4, [r1, #32]
 976 02d8 FFF7FEFF 		bl	DMA_Init
 977 02dc 1248     		ldr	r0, .L82+16
 978 02de 0221     		movs	r1, #2
 979 02e0 0122     		movs	r2, #1
 980 02e2 FFF7FEFF 		bl	DMA_ITConfig
 981 02e6 0E48     		ldr	r0, .L82+8
 982 02e8 0221     		movs	r1, #2
 983 02ea 0122     		movs	r2, #1
 984 02ec FFF7FEFF 		bl	SPI_I2S_DMACmd
 985 02f0 3923     		movs	r3, #57
 986 02f2 8DF80430 		strb	r3, [sp, #4]
 987 02f6 01A8     		add	r0, sp, #4
 988 02f8 0123     		movs	r3, #1
 989 02fa 8DF80550 		strb	r5, [sp, #5]
 990 02fe 8DF80650 		strb	r5, [sp, #6]
 991 0302 8DF80730 		strb	r3, [sp, #7]
 992 0306 FFF7FEFF 		bl	NVIC_Init
 993 030a 2046     		mov	r0, r4
 994 030c 00E0     		b	.L79
 995              	.L80:
 996 030e 0120     		movs	r0, #1
 997              	.L79:
 998 0310 09B0     		add	sp, sp, #36
 999 0312 BDE8F08F 		pop	{r4, r5, r6, r7, r8, r9, sl, fp, pc}
 1000              	.L83:
 1001 0316 00BF     		.align	2
 1002              	.L82:
 1003 0318 00140048 		.word	1207964672
 1004 031c 00080048 		.word	1207961600
 1005 0320 003C0040 		.word	1073757184
 1006 0324 00000000 		.word	.LANCHOR2
 1007 0328 1C040240 		.word	1073873948
 1008 032c 00000000 		.word	DMA_InitStructure
 1009 0330 0C3C0040 		.word	1073757196
 1011              		.section	.text.EVAL_AUDIO_Stop,"ax",%progbits
 1012              		.align	1
 1013              		.global	EVAL_AUDIO_Stop
 1014              		.thumb
 1015              		.thumb_func
 1017              	EVAL_AUDIO_Stop:
 1018              		@ args = 0, pretend = 0, frame = 0
 1019              		@ frame_needed = 0, uses_anonymous_args = 0
 1020 0000 10B5     		push	{r4, lr}
 1021 0002 0446     		mov	r4, r0
 1022 0004 FFF7FEFF 		bl	Codec_Mute.part.3
 1023 0008 022C     		cmp	r4, #2
 1024 000a 05D1     		bne	.L85
 1025 000c 2046     		mov	r0, r4
 1026 000e 9F21     		movs	r1, #159
 1027 0010 FFF7FEFF 		bl	Codec_WriteRegister
 1028 0014 0446     		mov	r4, r0
 1029 0016 0AE0     		b	.L86
 1030              	.L85:
 1031 0018 0220     		movs	r0, #2
 1032 001a 9F21     		movs	r1, #159
 1033 001c FFF7FEFF 		bl	Codec_WriteRegister
 1034 0020 40F6FF73 		movw	r3, #4095
 1035 0024 0446     		mov	r4, r0
 1036 0026 00E0     		b	.L87
 1037              	.L88:
 1038 0028 013B     		subs	r3, r3, #1
 1039              	.L87:
 1040 002a 002B     		cmp	r3, #0
 1041 002c FCD1     		bne	.L88
 1042              	.L86:
 1043 002e 84B9     		cbnz	r4, .L90
 1044 0030 2146     		mov	r1, r4
 1045 0032 0948     		ldr	r0, .L91
 1046 0034 FFF7FEFF 		bl	DMA_Cmd
 1047 0038 0848     		ldr	r0, .L91+4
 1048 003a FFF7FEFF 		bl	DMA_ClearFlag
 1049 003e 0848     		ldr	r0, .L91+8
 1050 0040 2146     		mov	r1, r4
 1051 0042 FFF7FEFF 		bl	I2S_Cmd
 1052 0046 074B     		ldr	r3, .L91+12
 1053 0048 1A68     		ldr	r2, [r3, #0]
 1054 004a 074B     		ldr	r3, .L91+16
 1055 004c 2046     		mov	r0, r4
 1056 004e 1A60     		str	r2, [r3, #0]
 1057 0050 10BD     		pop	{r4, pc}
 1058              	.L90:
 1059 0052 0120     		movs	r0, #1
 1060 0054 10BD     		pop	{r4, pc}
 1061              	.L92:
 1062 0056 00BF     		.align	2
 1063              	.L91:
 1064 0058 1C040240 		.word	1073873948
 1065 005c E0000010 		.word	268435680
 1066 0060 003C0040 		.word	1073757184
 1067 0064 00000000 		.word	.LANCHOR3
 1068 0068 00000000 		.word	.LANCHOR0
 1070              		.section	.text.EVAL_AUDIO_PauseResume,"ax",%progbits
 1071              		.align	1
 1072              		.global	EVAL_AUDIO_PauseResume
 1073              		.thumb
 1074              		.thumb_func
 1076              	EVAL_AUDIO_PauseResume:
 1077              		@ args = 0, pretend = 0, frame = 0
 1078              		@ frame_needed = 0, uses_anonymous_args = 0
 1079 0000 70B5     		push	{r4, r5, r6, lr}
 1080 0002 50B9     		cbnz	r0, .L94
 1081 0004 FFF7FEFF 		bl	Codec_Mute.part.3
 1082 0008 0121     		movs	r1, #1
 1083 000a 0446     		mov	r4, r0
 1084 000c 0220     		movs	r0, #2
 1085 000e FFF7FEFF 		bl	Codec_WriteRegister
 1086 0012 2418     		adds	r4, r4, r0
 1087 0014 1AD0     		beq	.L95
 1088              	.L97:
 1089 0016 0120     		movs	r0, #1
 1090 0018 70BD     		pop	{r4, r5, r6, pc}
 1091              	.L94:
 1092 001a 0521     		movs	r1, #5
 1093 001c 0420     		movs	r0, #4
 1094 001e FFF7FEFF 		bl	Codec_WriteRegister
 1095 0022 0221     		movs	r1, #2
 1096 0024 0546     		mov	r5, r0
 1097 0026 0F20     		movs	r0, #15
 1098 0028 FFF7FEFF 		bl	Codec_WriteRegister
 1099 002c 184B     		ldr	r3, .L101
 1100 002e 0446     		mov	r4, r0
 1101 0030 1978     		ldrb	r1, [r3, #0]	@ zero_extendqisi2
 1102 0032 0420     		movs	r0, #4
 1103 0034 FFF7FEFF 		bl	Codec_WriteRegister
 1104 0038 9E21     		movs	r1, #158
 1105 003a 0646     		mov	r6, r0
 1106 003c 0220     		movs	r0, #2
 1107 003e FFF7FEFF 		bl	Codec_WriteRegister
 1108 0042 8019     		adds	r0, r0, r6
 1109 0044 4019     		adds	r0, r0, r5
 1110 0046 0619     		adds	r6, r0, r4
 1111 0048 E5D1     		bne	.L97
 1112 004a 0AE0     		b	.L100
 1113              	.L95:
 1114 004c 0221     		movs	r1, #2
 1115 004e 2246     		mov	r2, r4
 1116 0050 1048     		ldr	r0, .L101+4
 1117 0052 FFF7FEFF 		bl	SPI_I2S_DMACmd
 1118 0056 1048     		ldr	r0, .L101+8
 1119 0058 2146     		mov	r1, r4
 1120 005a FFF7FEFF 		bl	DMA_Cmd
 1121 005e 2046     		mov	r0, r4
 1122 0060 70BD     		pop	{r4, r5, r6, pc}
 1123              	.L100:
 1124 0062 0C4C     		ldr	r4, .L101+4
 1125 0064 0221     		movs	r1, #2
 1126 0066 2046     		mov	r0, r4
 1127 0068 0122     		movs	r2, #1
 1128 006a FFF7FEFF 		bl	SPI_I2S_DMACmd
 1129 006e 0A48     		ldr	r0, .L101+8
 1130 0070 0121     		movs	r1, #1
 1131 0072 FFF7FEFF 		bl	DMA_Cmd
 1132 0076 A58B     		ldrh	r5, [r4, #28]
 1133 0078 05F48065 		and	r5, r5, #1024
 1134 007c ADB2     		uxth	r5, r5
 1135 007e 2DB9     		cbnz	r5, .L99
 1136 0080 2046     		mov	r0, r4
 1137 0082 0121     		movs	r1, #1
 1138 0084 FFF7FEFF 		bl	I2S_Cmd
 1139 0088 2846     		mov	r0, r5
 1140 008a 70BD     		pop	{r4, r5, r6, pc}
 1141              	.L99:
 1142 008c 3046     		mov	r0, r6
 1143 008e 70BD     		pop	{r4, r5, r6, pc}
 1144              	.L102:
 1145              		.align	2
 1146              	.L101:
 1147 0090 00000000 		.word	.LANCHOR2
 1148 0094 003C0040 		.word	1073757184
 1149 0098 1C040240 		.word	1073873948
 1151              		.section	.text.EVAL_AUDIO_DeInit,"ax",%progbits
 1152              		.align	1
 1153              		.global	EVAL_AUDIO_DeInit
 1154              		.thumb
 1155              		.thumb_func
 1157              	EVAL_AUDIO_DeInit:
 1158              		@ args = 0, pretend = 0, frame = 16
 1159              		@ frame_needed = 0, uses_anonymous_args = 0
 1160 0000 1FB5     		push	{r0, r1, r2, r3, r4, lr}
 1161 0002 0321     		movs	r1, #3
 1162 0004 0220     		movs	r0, #2
 1163 0006 FFF7FEFF 		bl	Codec_WriteRegister
 1164 000a 0721     		movs	r1, #7
 1165 000c 0320     		movs	r0, #3
 1166 000e FFF7FEFF 		bl	Codec_WriteRegister
 1167 0012 FF21     		movs	r1, #255
 1168 0014 0420     		movs	r0, #4
 1169 0016 FFF7FEFF 		bl	Codec_WriteRegister
 1170 001a 0321     		movs	r1, #3
 1171 001c 0620     		movs	r0, #6
 1172 001e FFF7FEFF 		bl	Codec_WriteRegister
 1173 0022 0021     		movs	r1, #0
 1174 0024 0A20     		movs	r0, #10
 1175 0026 FFF7FEFF 		bl	Codec_WriteRegister
 1176 002a 0221     		movs	r1, #2
 1177 002c 0E20     		movs	r0, #14
 1178 002e FFF7FEFF 		bl	Codec_WriteRegister
 1179 0032 F221     		movs	r1, #242
 1180 0034 0F20     		movs	r0, #15
 1181 0036 FFF7FEFF 		bl	Codec_WriteRegister
 1182 003a 8021     		movs	r1, #128
 1183 003c 1A20     		movs	r0, #26
 1184 003e FFF7FEFF 		bl	Codec_WriteRegister
 1185 0042 8021     		movs	r1, #128
 1186 0044 1B20     		movs	r0, #27
 1187 0046 FFF7FEFF 		bl	Codec_WriteRegister
 1188 004a 2920     		movs	r0, #41
 1189 004c 0021     		movs	r1, #0
 1190 004e FFF7FEFF 		bl	Codec_WriteRegister
 1191 0052 0A24     		movs	r4, #10
 1192              	.L105:
 1193 0054 9F21     		movs	r1, #159
 1194 0056 0220     		movs	r0, #2
 1195 0058 FFF7FEFF 		bl	Codec_WriteRegister
 1196 005c 0220     		movs	r0, #2
 1197 005e FFF7FEFF 		bl	Codec_ReadRegister
 1198 0062 C307     		lsls	r3, r0, #31
 1199 0064 03D4     		bmi	.L104
 1200 0066 013C     		subs	r4, r4, #1
 1201 0068 A4B2     		uxth	r4, r4
 1202 006a 002C     		cmp	r4, #0
 1203 006c F2D1     		bne	.L105
 1204              	.L104:
 1205 006e 44F6FF74 		movw	r4, #20479
 1206 0072 00E0     		b	.L106
 1207              	.L107:
 1208 0074 013C     		subs	r4, r4, #1
 1209              	.L106:
 1210 0076 002C     		cmp	r4, #0
 1211 0078 FCD1     		bne	.L107
 1212 007a 4FF4A053 		mov	r3, #5120
 1213 007e 0293     		str	r3, [sp, #8]
 1214 0080 02A9     		add	r1, sp, #8
 1215 0082 0223     		movs	r3, #2
 1216 0084 3048     		ldr	r0, .L109
 1217 0086 8DF80D30 		strb	r3, [sp, #13]
 1218 008a 8DF80C40 		strb	r4, [sp, #12]
 1219 008e 8DF80E40 		strb	r4, [sp, #14]
 1220 0092 8DF80F40 		strb	r4, [sp, #15]
 1221 0096 FFF7FEFF 		bl	GPIO_Init
 1222 009a 1023     		movs	r3, #16
 1223 009c 02A9     		add	r1, sp, #8
 1224 009e 4FF09040 		mov	r0, #1207959552
 1225 00a2 0293     		str	r3, [sp, #8]
 1226 00a4 FFF7FEFF 		bl	GPIO_Init
 1227 00a8 4FF40073 		mov	r3, #512
 1228 00ac 02A9     		add	r1, sp, #8
 1229 00ae 4FF09040 		mov	r0, #1207959552
 1230 00b2 0293     		str	r3, [sp, #8]
 1231 00b4 FFF7FEFF 		bl	GPIO_Init
 1232 00b8 2246     		mov	r2, r4
 1233 00ba 0921     		movs	r1, #9
 1234 00bc 4FF09040 		mov	r0, #1207959552
 1235 00c0 FFF7FEFF 		bl	GPIO_PinAFConfig
 1236 00c4 4FF40063 		mov	r3, #2048
 1237 00c8 0293     		str	r3, [sp, #8]
 1238 00ca 02A9     		add	r1, sp, #8
 1239 00cc 0123     		movs	r3, #1
 1240 00ce 1E48     		ldr	r0, .L109
 1241 00d0 8DF80C30 		strb	r3, [sp, #12]
 1242 00d4 FFF7FEFF 		bl	GPIO_Init
 1243 00d8 0421     		movs	r1, #4
 1244 00da 2246     		mov	r2, r4
 1245 00dc 4FF09040 		mov	r0, #1207959552
 1246 00e0 FFF7FEFF 		bl	GPIO_PinAFConfig
 1247 00e4 0A21     		movs	r1, #10
 1248 00e6 2246     		mov	r2, r4
 1249 00e8 1748     		ldr	r0, .L109
 1250 00ea FFF7FEFF 		bl	GPIO_PinAFConfig
 1251 00ee 0C21     		movs	r1, #12
 1252 00f0 2246     		mov	r2, r4
 1253 00f2 1548     		ldr	r0, .L109
 1254 00f4 FFF7FEFF 		bl	GPIO_PinAFConfig
 1255 00f8 2246     		mov	r2, r4
 1256 00fa 0B21     		movs	r1, #11
 1257 00fc 1248     		ldr	r0, .L109
 1258 00fe FFF7FEFF 		bl	GPIO_PinAFConfig
 1259 0102 2146     		mov	r1, r4
 1260 0104 1148     		ldr	r0, .L109+4
 1261 0106 FFF7FEFF 		bl	I2S_Cmd
 1262 010a 1048     		ldr	r0, .L109+4
 1263 010c FFF7FEFF 		bl	SPI_I2S_DeInit
 1264 0110 2146     		mov	r1, r4
 1265 0112 4FF40040 		mov	r0, #32768
 1266 0116 FFF7FEFF 		bl	RCC_APB1PeriphClockCmd
 1267 011a 3923     		movs	r3, #57
 1268 011c 01A8     		add	r0, sp, #4
 1269 011e 8DF80430 		strb	r3, [sp, #4]
 1270 0122 8DF80540 		strb	r4, [sp, #5]
 1271 0126 8DF80640 		strb	r4, [sp, #6]
 1272 012a 8DF80740 		strb	r4, [sp, #7]
 1273 012e FFF7FEFF 		bl	NVIC_Init
 1274 0132 2146     		mov	r1, r4
 1275 0134 0648     		ldr	r0, .L109+8
 1276 0136 FFF7FEFF 		bl	DMA_Cmd
 1277 013a 0548     		ldr	r0, .L109+8
 1278 013c FFF7FEFF 		bl	DMA_DeInit
 1279 0140 2046     		mov	r0, r4
 1280 0142 04B0     		add	sp, sp, #16
 1281 0144 10BD     		pop	{r4, pc}
 1282              	.L110:
 1283 0146 00BF     		.align	2
 1284              	.L109:
 1285 0148 00080048 		.word	1207961600
 1286 014c 003C0040 		.word	1073757184
 1287 0150 1C040240 		.word	1073873948
 1289              		.section	.text.Audio_MAL_Play,"ax",%progbits
 1290              		.align	1
 1291              		.global	Audio_MAL_Play
 1292              		.thumb
 1293              		.thumb_func
 1295              	Audio_MAL_Play:
 1296              		@ args = 0, pretend = 0, frame = 0
 1297              		@ frame_needed = 0, uses_anonymous_args = 0
 1298 0000 10B5     		push	{r4, lr}
 1299 0002 074B     		ldr	r3, .L112
 1300 0004 074C     		ldr	r4, .L112+4
 1301 0006 5860     		str	r0, [r3, #4]
 1302 0008 4908     		lsrs	r1, r1, #1
 1303 000a 9981     		strh	r1, [r3, #12]	@ movhi
 1304 000c 2046     		mov	r0, r4
 1305 000e 1946     		mov	r1, r3
 1306 0010 FFF7FEFF 		bl	DMA_Init
 1307 0014 2046     		mov	r0, r4
 1308 0016 0121     		movs	r1, #1
 1309 0018 BDE81040 		pop	{r4, lr}
 1310 001c FFF7FEBF 		b	DMA_Cmd
 1311              	.L113:
 1312              		.align	2
 1313              	.L112:
 1314 0020 00000000 		.word	DMA_InitStructure
 1315 0024 1C040240 		.word	1073873948
 1317              		.section	.text.EVAL_AUDIO_Play,"ax",%progbits
 1318              		.align	1
 1319              		.global	EVAL_AUDIO_Play
 1320              		.thumb
 1321              		.thumb_func
 1323              	EVAL_AUDIO_Play:
 1324              		@ args = 0, pretend = 0, frame = 0
 1325              		@ frame_needed = 0, uses_anonymous_args = 0
 1326 0000 F8B5     		push	{r3, r4, r5, r6, r7, lr}
 1327 0002 4C08     		lsrs	r4, r1, #1
 1328 0004 0D4B     		ldr	r3, .L117
 1329 0006 B4F5003F 		cmp	r4, #131072
 1330 000a 0546     		mov	r5, r0
 1331 000c 1C60     		str	r4, [r3, #0]
 1332 000e 1F46     		mov	r7, r3
 1333 0010 4FF6FF76 		movw	r6, #65535
 1334 0014 01D2     		bcs	.L116
 1335 0016 8908     		lsrs	r1, r1, #2
 1336 0018 00E0     		b	.L115
 1337              	.L116:
 1338 001a 3146     		mov	r1, r6
 1339              	.L115:
 1340 001c 2846     		mov	r0, r5
 1341 001e FFF7FEFF 		bl	Audio_MAL_Play
 1342 0022 3B68     		ldr	r3, [r7, #0]
 1343 0024 B342     		cmp	r3, r6
 1344 0026 38BF     		it	cc
 1345 0028 1E46     		movcc	r6, r3
 1346 002a 054B     		ldr	r3, .L117+4
 1347 002c A41B     		subs	r4, r4, r6
 1348 002e 1C60     		str	r4, [r3, #0]
 1349 0030 044B     		ldr	r3, .L117+8
 1350 0032 05EB4606 		add	r6, r5, r6, lsl #1
 1351 0036 1E60     		str	r6, [r3, #0]
 1352 0038 0020     		movs	r0, #0
 1353 003a F8BD     		pop	{r3, r4, r5, r6, r7, pc}
 1354              	.L118:
 1355              		.align	2
 1356              	.L117:
 1357 003c 00000000 		.word	.LANCHOR3
 1358 0040 00000000 		.word	.LANCHOR0
 1359 0044 00000000 		.word	CurrentPos
 1361              		.global	OutputDev
 1362              		.global	CODECTimeout
 1363              		.comm	CurrentPos,4,4
 1364              		.global	AudioRemSize
 1365              		.global	AudioTotalSize
 1366              		.comm	AUDIO_MAL_DMA_InitStructure,44,4
 1367              		.comm	DMA_InitStructure,44,4
 1368              		.section	.data.CODECTimeout,"aw",%progbits
 1369              		.align	2
 1370              		.set	.LANCHOR1,. + 0
 1373              	CODECTimeout:
 1374 0000 00C01200 		.word	1228800
 1375              		.section	.data.AudioRemSize,"aw",%progbits
 1376              		.align	2
 1377              		.set	.LANCHOR0,. + 0
 1380              	AudioRemSize:
 1381 0000 FFFF0000 		.word	65535
 1382              		.section	.data.AudioTotalSize,"aw",%progbits
 1383              		.align	2
 1384              		.set	.LANCHOR3,. + 0
 1387              	AudioTotalSize:
 1388 0000 FFFF0000 		.word	65535
 1389              		.section	.bss.OutputDev,"aw",%nobits
 1390              		.set	.LANCHOR2,. + 0
 1393              	OutputDev:
 1394 0000 00       		.space	1
 1395              		.ident	"GCC: (Sourcery CodeBench Lite 2012.09-63) 4.7.2"