   1              		.syntax unified
   2              		.cpu cortex-m4
   3              		.fpu softvfp
   4              		.eabi_attribute 20, 1
   5              		.eabi_attribute 21, 1
   6              		.eabi_attribute 23, 3
   7              		.eabi_attribute 24, 1
   8              		.eabi_attribute 25, 1
   9              		.eabi_attribute 26, 1
  10              		.eabi_attribute 30, 4
  11              		.eabi_attribute 34, 1
  12              		.eabi_attribute 18, 4
  13              		.thumb
  14              		.file	"stm32f30x_comp.c"
  15              		.section	.text.COMP_DeInit,"ax",%progbits
  16              		.align	1
  17              		.global	COMP_DeInit
  18              		.thumb
  19              		.thumb_func
  21              	COMP_DeInit:
  22              		@ args = 0, pretend = 0, frame = 0
  23              		@ frame_needed = 0, uses_anonymous_args = 0
  24              		@ link register save eliminated.
  25 0000 014B     		ldr	r3, .L2
  26 0002 0022     		movs	r2, #0
  27 0004 C250     		str	r2, [r0, r3]
  28 0006 7047     		bx	lr
  29              	.L3:
  30              		.align	2
  31              	.L2:
  32 0008 1C000140 		.word	1073807388
  34              		.section	.text.COMP_Init,"ax",%progbits
  35              		.align	1
  36              		.global	COMP_Init
  37              		.thumb
  38              		.thumb_func
  40              	COMP_Init:
  41              		@ args = 0, pretend = 0, frame = 0
  42              		@ frame_needed = 0, uses_anonymous_args = 0
  43 0000 70B5     		push	{r4, r5, r6, lr}
  44 0002 91E83000 		ldmia	r1, {r4, r5}
  45 0006 45EA0402 		orr	r2, r5, r4
  46 000a 8C68     		ldr	r4, [r1, #8]
  47 000c 074B     		ldr	r3, .L5
  48 000e 2243     		orrs	r2, r2, r4
  49 0010 0C69     		ldr	r4, [r1, #16]
  50 0012 C658     		ldr	r6, [r0, r3]
  51 0014 2243     		orrs	r2, r2, r4
  52 0016 CC68     		ldr	r4, [r1, #12]
  53 0018 1443     		orrs	r4, r4, r2
  54 001a 4A69     		ldr	r2, [r1, #20]
  55 001c 8969     		ldr	r1, [r1, #24]
  56 001e 2243     		orrs	r2, r2, r4
  57 0020 06F00306 		and	r6, r6, #3
  58 0024 0A43     		orrs	r2, r2, r1
  59 0026 3243     		orrs	r2, r2, r6
  60 0028 C250     		str	r2, [r0, r3]
  61 002a 70BD     		pop	{r4, r5, r6, pc}
  62              	.L6:
  63              		.align	2
  64              	.L5:
  65 002c 1C000140 		.word	1073807388
  67              		.section	.text.COMP_StructInit,"ax",%progbits
  68              		.align	1
  69              		.global	COMP_StructInit
  70              		.thumb
  71              		.thumb_func
  73              	COMP_StructInit:
  74              		@ args = 0, pretend = 0, frame = 0
  75              		@ frame_needed = 0, uses_anonymous_args = 0
  76              		@ link register save eliminated.
  77 0000 0023     		movs	r3, #0
  78 0002 0360     		str	r3, [r0, #0]
  79 0004 4360     		str	r3, [r0, #4]
  80 0006 8360     		str	r3, [r0, #8]
  81 0008 C360     		str	r3, [r0, #12]
  82 000a 0361     		str	r3, [r0, #16]
  83 000c 4361     		str	r3, [r0, #20]
  84 000e 0C23     		movs	r3, #12
  85 0010 8361     		str	r3, [r0, #24]
  86 0012 7047     		bx	lr
  88              		.section	.text.COMP_Cmd,"ax",%progbits
  89              		.align	1
  90              		.global	COMP_Cmd
  91              		.thumb
  92              		.thumb_func
  94              	COMP_Cmd:
  95              		@ args = 0, pretend = 0, frame = 0
  96              		@ frame_needed = 0, uses_anonymous_args = 0
  97              		@ link register save eliminated.
  98 0000 044B     		ldr	r3, .L12
  99 0002 C258     		ldr	r2, [r0, r3]
 100 0004 11B1     		cbz	r1, .L9
 101 0006 42F00102 		orr	r2, r2, #1
 102 000a 01E0     		b	.L11
 103              	.L9:
 104 000c 22F00102 		bic	r2, r2, #1
 105              	.L11:
 106 0010 C250     		str	r2, [r0, r3]
 107 0012 7047     		bx	lr
 108              	.L13:
 109              		.align	2
 110              	.L12:
 111 0014 1C000140 		.word	1073807388
 113              		.section	.text.COMP_SwitchCmd,"ax",%progbits
 114              		.align	1
 115              		.global	COMP_SwitchCmd
 116              		.thumb
 117              		.thumb_func
 119              	COMP_SwitchCmd:
 120              		@ args = 0, pretend = 0, frame = 0
 121              		@ frame_needed = 0, uses_anonymous_args = 0
 122              		@ link register save eliminated.
 123 0000 044B     		ldr	r3, .L18
 124 0002 C258     		ldr	r2, [r0, r3]
 125 0004 11B1     		cbz	r1, .L15
 126 0006 42F00202 		orr	r2, r2, #2
 127 000a 01E0     		b	.L17
 128              	.L15:
 129 000c 22F00202 		bic	r2, r2, #2
 130              	.L17:
 131 0010 C250     		str	r2, [r0, r3]
 132 0012 7047     		bx	lr
 133              	.L19:
 134              		.align	2
 135              	.L18:
 136 0014 1C000140 		.word	1073807388
 138              		.section	.text.COMP_GetOutputLevel,"ax",%progbits
 139              		.align	1
 140              		.global	COMP_GetOutputLevel
 141              		.thumb
 142              		.thumb_func
 144              	COMP_GetOutputLevel:
 145              		@ args = 0, pretend = 0, frame = 0
 146              		@ frame_needed = 0, uses_anonymous_args = 0
 147              		@ link register save eliminated.
 148 0000 024B     		ldr	r3, .L23
 149 0002 C058     		ldr	r0, [r0, r3]
 150 0004 00F08040 		and	r0, r0, #1073741824
 151 0008 7047     		bx	lr
 152              	.L24:
 153 000a 00BF     		.align	2
 154              	.L23:
 155 000c 1C000140 		.word	1073807388
 157              		.section	.text.COMP_WindowCmd,"ax",%progbits
 158              		.align	1
 159              		.global	COMP_WindowCmd
 160              		.thumb
 161              		.thumb_func
 163              	COMP_WindowCmd:
 164              		@ args = 0, pretend = 0, frame = 0
 165              		@ frame_needed = 0, uses_anonymous_args = 0
 166              		@ link register save eliminated.
 167 0000 044B     		ldr	r3, .L29
 168 0002 C258     		ldr	r2, [r0, r3]
 169 0004 11B1     		cbz	r1, .L26
 170 0006 42F40072 		orr	r2, r2, #512
 171 000a 01E0     		b	.L28
 172              	.L26:
 173 000c 22F40072 		bic	r2, r2, #512
 174              	.L28:
 175 0010 C250     		str	r2, [r0, r3]
 176 0012 7047     		bx	lr
 177              	.L30:
 178              		.align	2
 179              	.L29:
 180 0014 1C000140 		.word	1073807388
 182              		.section	.text.COMP_LockConfig,"ax",%progbits
 183              		.align	1
 184              		.global	COMP_LockConfig
 185              		.thumb
 186              		.thumb_func
 188              	COMP_LockConfig:
 189              		@ args = 0, pretend = 0, frame = 0
 190              		@ frame_needed = 0, uses_anonymous_args = 0
 191              		@ link register save eliminated.
 192 0000 024B     		ldr	r3, .L32
 193 0002 C258     		ldr	r2, [r0, r3]
 194 0004 42F00042 		orr	r2, r2, #-2147483648
 195 0008 C250     		str	r2, [r0, r3]
 196 000a 7047     		bx	lr
 197              	.L33:
 198              		.align	2
 199              	.L32:
 200 000c 1C000140 		.word	1073807388
 202              		.ident	"GCC: (Sourcery CodeBench Lite 2012.09-63) 4.7.2"