   1              		.syntax unified
   2              		.cpu cortex-m4
   3              		.fpu softvfp
   4              		.eabi_attribute 20, 1
   5              		.eabi_attribute 21, 1
   6              		.eabi_attribute 23, 3
   7              		.eabi_attribute 24, 1
   8              		.eabi_attribute 25, 1
   9              		.eabi_attribute 26, 1
  10              		.eabi_attribute 30, 4
  11              		.eabi_attribute 34, 1
  12              		.eabi_attribute 18, 4
  13              		.thumb
  14              		.file	"stm32f30x_gpio.c"
  15              		.section	.text.GPIO_DeInit,"ax",%progbits
  16              		.align	1
  17              		.global	GPIO_DeInit
  18              		.thumb
  19              		.thumb_func
  21              	GPIO_DeInit:
  22              		@ args = 0, pretend = 0, frame = 0
  23              		@ frame_needed = 0, uses_anonymous_args = 0
  24 0000 B0F1904F 		cmp	r0, #1207959552
  25 0004 08B5     		push	{r3, lr}
  26 0006 07D1     		bne	.L2
  27 0008 4FF40030 		mov	r0, #131072
  28 000c 0121     		movs	r1, #1
  29 000e FFF7FEFF 		bl	RCC_AHBPeriphResetCmd
  30 0012 4FF40030 		mov	r0, #131072
  31 0016 4BE0     		b	.L10
  32              	.L2:
  33 0018 284B     		ldr	r3, .L11
  34 001a 9842     		cmp	r0, r3
  35 001c 07D1     		bne	.L3
  36 001e 4FF48020 		mov	r0, #262144
  37 0022 0121     		movs	r1, #1
  38 0024 FFF7FEFF 		bl	RCC_AHBPeriphResetCmd
  39 0028 4FF48020 		mov	r0, #262144
  40 002c 40E0     		b	.L10
  41              	.L3:
  42 002e 244B     		ldr	r3, .L11+4
  43 0030 9842     		cmp	r0, r3
  44 0032 07D1     		bne	.L4
  45 0034 4FF40020 		mov	r0, #524288
  46 0038 0121     		movs	r1, #1
  47 003a FFF7FEFF 		bl	RCC_AHBPeriphResetCmd
  48 003e 4FF40020 		mov	r0, #524288
  49 0042 35E0     		b	.L10
  50              	.L4:
  51 0044 1F4B     		ldr	r3, .L11+8
  52 0046 9842     		cmp	r0, r3
  53 0048 07D1     		bne	.L5
  54 004a 4FF48010 		mov	r0, #1048576
  55 004e 0121     		movs	r1, #1
  56 0050 FFF7FEFF 		bl	RCC_AHBPeriphResetCmd
  57 0054 4FF48010 		mov	r0, #1048576
  58 0058 2AE0     		b	.L10
  59              	.L5:
  60 005a 1B4B     		ldr	r3, .L11+12
  61 005c 9842     		cmp	r0, r3
  62 005e 07D1     		bne	.L6
  63 0060 4FF40010 		mov	r0, #2097152
  64 0064 0121     		movs	r1, #1
  65 0066 FFF7FEFF 		bl	RCC_AHBPeriphResetCmd
  66 006a 4FF40010 		mov	r0, #2097152
  67 006e 1FE0     		b	.L10
  68              	.L6:
  69 0070 164B     		ldr	r3, .L11+16
  70 0072 9842     		cmp	r0, r3
  71 0074 07D1     		bne	.L7
  72 0076 4FF48000 		mov	r0, #4194304
  73 007a 0121     		movs	r1, #1
  74 007c FFF7FEFF 		bl	RCC_AHBPeriphResetCmd
  75 0080 4FF48000 		mov	r0, #4194304
  76 0084 14E0     		b	.L10
  77              	.L7:
  78 0086 124B     		ldr	r3, .L11+20
  79 0088 9842     		cmp	r0, r3
  80 008a 07D1     		bne	.L8
  81 008c 4FF40000 		mov	r0, #8388608
  82 0090 0121     		movs	r1, #1
  83 0092 FFF7FEFF 		bl	RCC_AHBPeriphResetCmd
  84 0096 4FF40000 		mov	r0, #8388608
  85 009a 09E0     		b	.L10
  86              	.L8:
  87 009c 0D4B     		ldr	r3, .L11+24
  88 009e 9842     		cmp	r0, r3
  89 00a0 0BD1     		bne	.L1
  90 00a2 4FF48030 		mov	r0, #65536
  91 00a6 0121     		movs	r1, #1
  92 00a8 FFF7FEFF 		bl	RCC_AHBPeriphResetCmd
  93 00ac 4FF48030 		mov	r0, #65536
  94              	.L10:
  95 00b0 0021     		movs	r1, #0
  96 00b2 BDE80840 		pop	{r3, lr}
  97 00b6 FFF7FEBF 		b	RCC_AHBPeriphResetCmd
  98              	.L1:
  99 00ba 08BD     		pop	{r3, pc}
 100              	.L12:
 101              		.align	2
 102              	.L11:
 103 00bc 00040048 		.word	1207960576
 104 00c0 00080048 		.word	1207961600
 105 00c4 000C0048 		.word	1207962624
 106 00c8 00100048 		.word	1207963648
 107 00cc 00140048 		.word	1207964672
 108 00d0 00180048 		.word	1207965696
 109 00d4 001C0048 		.word	1207966720
 111              		.section	.text.GPIO_Init,"ax",%progbits
 112              		.align	1
 113              		.global	GPIO_Init
 114              		.thumb
 115              		.thumb_func
 117              	GPIO_Init:
 118              		@ args = 0, pretend = 0, frame = 0
 119              		@ frame_needed = 0, uses_anonymous_args = 0
 120 0000 2DE9F043 		push	{r4, r5, r6, r7, r8, r9, lr}
 121 0004 0023     		movs	r3, #0
 122 0006 0F68     		ldr	r7, [r1, #0]
 123 0008 1A46     		mov	r2, r3
 124 000a 4FF0010C 		mov	ip, #1
 125 000e 0324     		movs	r4, #3
 126              	.L16:
 127 0010 0CFA02F6 		lsl	r6, ip, r2
 128 0014 06EA0705 		and	r5, r6, r7
 129 0018 B542     		cmp	r5, r6
 130 001a 3DD1     		bne	.L14
 131 001c 0E79     		ldrb	r6, [r1, #4]	@ zero_extendqisi2
 132 001e 06F1FF38 		add	r8, r6, #-1
 133 0022 B8F1010F 		cmp	r8, #1
 134 0026 20D8     		bhi	.L15
 135 0028 D0F80880 		ldr	r8, [r0, #8]
 136 002c 04FA03F9 		lsl	r9, r4, r3
 137 0030 28EA0908 		bic	r8, r8, r9
 138 0034 C0F80880 		str	r8, [r0, #8]
 139 0038 91F80580 		ldrb	r8, [r1, #5]	@ zero_extendqisi2
 140 003c D0F80890 		ldr	r9, [r0, #8]
 141 0040 08FA03F8 		lsl	r8, r8, r3
 142 0044 48EA0908 		orr	r8, r8, r9
 143 0048 C0F80880 		str	r8, [r0, #8]
 144 004c B0F80480 		ldrh	r8, [r0, #4]
 145 0050 1FFA88F8 		uxth	r8, r8
 146 0054 28EA0505 		bic	r5, r8, r5
 147 0058 8580     		strh	r5, [r0, #4]	@ movhi
 148 005a 8D79     		ldrb	r5, [r1, #6]	@ zero_extendqisi2
 149 005c B0F80480 		ldrh	r8, [r0, #4]
 150 0060 05FA02F5 		lsl	r5, r5, r2
 151 0064 45EA0805 		orr	r5, r5, r8
 152 0068 8580     		strh	r5, [r0, #4]	@ movhi
 153              	.L15:
 154 006a D0F80080 		ldr	r8, [r0, #0]
 155 006e 04FA03F5 		lsl	r5, r4, r3
 156 0072 ED43     		mvns	r5, r5
 157 0074 05EA0808 		and	r8, r5, r8
 158 0078 C0F80080 		str	r8, [r0, #0]
 159 007c D0F80080 		ldr	r8, [r0, #0]
 160 0080 06FA03F6 		lsl	r6, r6, r3
 161 0084 46EA0806 		orr	r6, r6, r8
 162 0088 0660     		str	r6, [r0, #0]
 163 008a C668     		ldr	r6, [r0, #12]
 164 008c 3540     		ands	r5, r5, r6
 165 008e CE79     		ldrb	r6, [r1, #7]	@ zero_extendqisi2
 166 0090 06FA03F6 		lsl	r6, r6, r3
 167 0094 3543     		orrs	r5, r5, r6
 168 0096 C560     		str	r5, [r0, #12]
 169              	.L14:
 170 0098 0132     		adds	r2, r2, #1
 171 009a 0233     		adds	r3, r3, #2
 172 009c 102A     		cmp	r2, #16
 173 009e B7D1     		bne	.L16
 174 00a0 BDE8F083 		pop	{r4, r5, r6, r7, r8, r9, pc}
 176              		.section	.text.GPIO_StructInit,"ax",%progbits
 177              		.align	1
 178              		.global	GPIO_StructInit
 179              		.thumb
 180              		.thumb_func
 182              	GPIO_StructInit:
 183              		@ args = 0, pretend = 0, frame = 0
 184              		@ frame_needed = 0, uses_anonymous_args = 0
 185              		@ link register save eliminated.
 186 0000 4FF6FF73 		movw	r3, #65535
 187 0004 0360     		str	r3, [r0, #0]
 188 0006 0222     		movs	r2, #2
 189 0008 0023     		movs	r3, #0
 190 000a 0371     		strb	r3, [r0, #4]
 191 000c 4271     		strb	r2, [r0, #5]
 192 000e 8371     		strb	r3, [r0, #6]
 193 0010 C371     		strb	r3, [r0, #7]
 194 0012 7047     		bx	lr
 196              		.section	.text.GPIO_PinLockConfig,"ax",%progbits
 197              		.align	1
 198              		.global	GPIO_PinLockConfig
 199              		.thumb
 200              		.thumb_func
 202              	GPIO_PinLockConfig:
 203              		@ args = 0, pretend = 0, frame = 0
 204              		@ frame_needed = 0, uses_anonymous_args = 0
 205              		@ link register save eliminated.
 206 0000 41F48033 		orr	r3, r1, #65536
 207 0004 C361     		str	r3, [r0, #28]
 208 0006 C161     		str	r1, [r0, #28]
 209 0008 C361     		str	r3, [r0, #28]
 210 000a C369     		ldr	r3, [r0, #28]
 211 000c C369     		ldr	r3, [r0, #28]
 212 000e 7047     		bx	lr
 214              		.section	.text.GPIO_ReadInputDataBit,"ax",%progbits
 215              		.align	1
 216              		.global	GPIO_ReadInputDataBit
 217              		.thumb
 218              		.thumb_func
 220              	GPIO_ReadInputDataBit:
 221              		@ args = 0, pretend = 0, frame = 0
 222              		@ frame_needed = 0, uses_anonymous_args = 0
 223              		@ link register save eliminated.
 224 0000 038A     		ldrh	r3, [r0, #16]
 225 0002 1942     		tst	r1, r3
 226 0004 0CBF     		ite	eq
 227 0006 0020     		moveq	r0, #0
 228 0008 0120     		movne	r0, #1
 229 000a 7047     		bx	lr
 231              		.section	.text.GPIO_ReadInputData,"ax",%progbits
 232              		.align	1
 233              		.global	GPIO_ReadInputData
 234              		.thumb
 235              		.thumb_func
 237              	GPIO_ReadInputData:
 238              		@ args = 0, pretend = 0, frame = 0
 239              		@ frame_needed = 0, uses_anonymous_args = 0
 240              		@ link register save eliminated.
 241 0000 008A     		ldrh	r0, [r0, #16]
 242 0002 80B2     		uxth	r0, r0
 243 0004 7047     		bx	lr
 245              		.section	.text.GPIO_ReadOutputDataBit,"ax",%progbits
 246              		.align	1
 247              		.global	GPIO_ReadOutputDataBit
 248              		.thumb
 249              		.thumb_func
 251              	GPIO_ReadOutputDataBit:
 252              		@ args = 0, pretend = 0, frame = 0
 253              		@ frame_needed = 0, uses_anonymous_args = 0
 254              		@ link register save eliminated.
 255 0000 838A     		ldrh	r3, [r0, #20]
 256 0002 1942     		tst	r1, r3
 257 0004 0CBF     		ite	eq
 258 0006 0020     		moveq	r0, #0
 259 0008 0120     		movne	r0, #1
 260 000a 7047     		bx	lr
 262              		.section	.text.GPIO_ReadOutputData,"ax",%progbits
 263              		.align	1
 264              		.global	GPIO_ReadOutputData
 265              		.thumb
 266              		.thumb_func
 268              	GPIO_ReadOutputData:
 269              		@ args = 0, pretend = 0, frame = 0
 270              		@ frame_needed = 0, uses_anonymous_args = 0
 271              		@ link register save eliminated.
 272 0000 808A     		ldrh	r0, [r0, #20]
 273 0002 80B2     		uxth	r0, r0
 274 0004 7047     		bx	lr
 276              		.section	.text.GPIO_SetBits,"ax",%progbits
 277              		.align	1
 278              		.global	GPIO_SetBits
 279              		.thumb
 280              		.thumb_func
 282              	GPIO_SetBits:
 283              		@ args = 0, pretend = 0, frame = 0
 284              		@ frame_needed = 0, uses_anonymous_args = 0
 285              		@ link register save eliminated.
 286 0000 8161     		str	r1, [r0, #24]
 287 0002 7047     		bx	lr
 289              		.section	.text.GPIO_ResetBits,"ax",%progbits
 290              		.align	1
 291              		.global	GPIO_ResetBits
 292              		.thumb
 293              		.thumb_func
 295              	GPIO_ResetBits:
 296              		@ args = 0, pretend = 0, frame = 0
 297              		@ frame_needed = 0, uses_anonymous_args = 0
 298              		@ link register save eliminated.
 299 0000 0185     		strh	r1, [r0, #40]	@ movhi
 300 0002 7047     		bx	lr
 302              		.section	.text.GPIO_WriteBit,"ax",%progbits
 303              		.align	1
 304              		.global	GPIO_WriteBit
 305              		.thumb
 306              		.thumb_func
 308              	GPIO_WriteBit:
 309              		@ args = 0, pretend = 0, frame = 0
 310              		@ frame_needed = 0, uses_anonymous_args = 0
 311              		@ link register save eliminated.
 312 0000 0AB1     		cbz	r2, .L27
 313 0002 8161     		str	r1, [r0, #24]
 314 0004 7047     		bx	lr
 315              	.L27:
 316 0006 0185     		strh	r1, [r0, #40]	@ movhi
 317 0008 7047     		bx	lr
 319              		.section	.text.GPIO_Write,"ax",%progbits
 320              		.align	1
 321              		.global	GPIO_Write
 322              		.thumb
 323              		.thumb_func
 325              	GPIO_Write:
 326              		@ args = 0, pretend = 0, frame = 0
 327              		@ frame_needed = 0, uses_anonymous_args = 0
 328              		@ link register save eliminated.
 329 0000 8182     		strh	r1, [r0, #20]	@ movhi
 330 0002 7047     		bx	lr
 332              		.section	.text.GPIO_PinAFConfig,"ax",%progbits
 333              		.align	1
 334              		.global	GPIO_PinAFConfig
 335              		.thumb
 336              		.thumb_func
 338              	GPIO_PinAFConfig:
 339              		@ args = 0, pretend = 0, frame = 0
 340              		@ frame_needed = 0, uses_anonymous_args = 0
 341 0000 01F00703 		and	r3, r1, #7
 342 0004 C908     		lsrs	r1, r1, #3
 343 0006 0831     		adds	r1, r1, #8
 344 0008 30B5     		push	{r4, r5, lr}
 345 000a 9B00     		lsls	r3, r3, #2
 346 000c 50F82150 		ldr	r5, [r0, r1, lsl #2]
 347 0010 0F24     		movs	r4, #15
 348 0012 04FA03F4 		lsl	r4, r4, r3
 349 0016 25EA0404 		bic	r4, r5, r4
 350 001a 40F82140 		str	r4, [r0, r1, lsl #2]
 351 001e 50F82140 		ldr	r4, [r0, r1, lsl #2]
 352 0022 02FA03F2 		lsl	r2, r2, r3
 353 0026 1443     		orrs	r4, r4, r2
 354 0028 40F82140 		str	r4, [r0, r1, lsl #2]
 355 002c 30BD     		pop	{r4, r5, pc}
 357              		.ident	"GCC: (Sourcery CodeBench Lite 2012.09-63) 4.7.2"