   1              		.cpu cortex-m0
   2              		.fpu softvfp
   3              		.eabi_attribute 20, 1
   4              		.eabi_attribute 21, 1
   5              		.eabi_attribute 23, 3
   6              		.eabi_attribute 24, 1
   7              		.eabi_attribute 25, 1
   8              		.eabi_attribute 26, 1
   9              		.eabi_attribute 30, 4
  10              		.eabi_attribute 34, 0
  11              		.eabi_attribute 18, 4
  12              		.code	16
  13              		.file	"stm32f0xx_exti.c"
  14              		.text
  15              	.Ltext0:
  16              		.cfi_sections	.debug_frame
  17              		.section	.text.EXTI_DeInit,"ax",%progbits
  18              		.align	1
  19              		.global	EXTI_DeInit
  20              		.code	16
  21              		.thumb_func
  23              	EXTI_DeInit:
  24              	.LFB33:
  25              		.file 1 "../Libraries/STM32F0xx_StdPeriph_Driver/src/stm32f0xx_exti.c"
   1:../Libraries/STM32F0xx_StdPeriph_Driver/src/stm32f0xx_exti.c **** /**
   2:../Libraries/STM32F0xx_StdPeriph_Driver/src/stm32f0xx_exti.c ****   ******************************************************************************
   3:../Libraries/STM32F0xx_StdPeriph_Driver/src/stm32f0xx_exti.c ****   * @file    stm32f0xx_exti.c
   4:../Libraries/STM32F0xx_StdPeriph_Driver/src/stm32f0xx_exti.c ****   * @author  MCD Application Team
   5:../Libraries/STM32F0xx_StdPeriph_Driver/src/stm32f0xx_exti.c ****   * @version V1.5.0
   6:../Libraries/STM32F0xx_StdPeriph_Driver/src/stm32f0xx_exti.c ****   * @date    05-December-2014
   7:../Libraries/STM32F0xx_StdPeriph_Driver/src/stm32f0xx_exti.c ****   * @brief   This file provides firmware functions to manage the following 
   8:../Libraries/STM32F0xx_StdPeriph_Driver/src/stm32f0xx_exti.c ****   *          functionalities of the EXTI peripheral:
   9:../Libraries/STM32F0xx_StdPeriph_Driver/src/stm32f0xx_exti.c ****   *           + Initialization and Configuration
  10:../Libraries/STM32F0xx_StdPeriph_Driver/src/stm32f0xx_exti.c ****   *           + Interrupts and flags management
  11:../Libraries/STM32F0xx_StdPeriph_Driver/src/stm32f0xx_exti.c ****   *
  12:../Libraries/STM32F0xx_StdPeriph_Driver/src/stm32f0xx_exti.c ****   *  @verbatim
  13:../Libraries/STM32F0xx_StdPeriph_Driver/src/stm32f0xx_exti.c ****   ==============================================================================
  14:../Libraries/STM32F0xx_StdPeriph_Driver/src/stm32f0xx_exti.c ****                             ##### EXTI features ##### 
  15:../Libraries/STM32F0xx_StdPeriph_Driver/src/stm32f0xx_exti.c ****   ==============================================================================
  16:../Libraries/STM32F0xx_StdPeriph_Driver/src/stm32f0xx_exti.c ****     [..] External interrupt/event lines are mapped as following:
  17:../Libraries/STM32F0xx_StdPeriph_Driver/src/stm32f0xx_exti.c ****          (#) All available GPIO pins are connected to the 16 external 
  18:../Libraries/STM32F0xx_StdPeriph_Driver/src/stm32f0xx_exti.c ****              interrupt/event lines from EXTI0 to EXTI15.
  19:../Libraries/STM32F0xx_StdPeriph_Driver/src/stm32f0xx_exti.c ****          (#) EXTI line 16 is connected to the PVD output, not applicable for STM32F030 devices.
  20:../Libraries/STM32F0xx_StdPeriph_Driver/src/stm32f0xx_exti.c ****          (#) EXTI line 17 is connected to the RTC Alarm event.
  21:../Libraries/STM32F0xx_StdPeriph_Driver/src/stm32f0xx_exti.c ****          (#) EXTI line 18 is connected to the RTC Alarm event, applicable only for STM32F072 device
  22:../Libraries/STM32F0xx_StdPeriph_Driver/src/stm32f0xx_exti.c ****          (#) EXTI line 19 is connected to the RTC Tamper and TimeStamp events.
  23:../Libraries/STM32F0xx_StdPeriph_Driver/src/stm32f0xx_exti.c ****          (#) EXTI line 20 is connected to the RTC wakeup event, applicable only for STM32F072 devic
  24:../Libraries/STM32F0xx_StdPeriph_Driver/src/stm32f0xx_exti.c ****          (#) EXTI line 21 is connected to the Comparator 1 wakeup event, applicable only for STM32F
  25:../Libraries/STM32F0xx_StdPeriph_Driver/src/stm32f0xx_exti.c ****          (#) EXTI line 22 is connected to the Comparator 2 wakeup event, applicable only for STM32F
  26:../Libraries/STM32F0xx_StdPeriph_Driver/src/stm32f0xx_exti.c ****          (#) EXTI line 23 is connected to the I2C1 wakeup event, not applicable for STM32F030 devic
  27:../Libraries/STM32F0xx_StdPeriph_Driver/src/stm32f0xx_exti.c ****          (#) EXTI line 25 is connected to the USART1 wakeup event, not applicable for STM32F030 dev
  28:../Libraries/STM32F0xx_StdPeriph_Driver/src/stm32f0xx_exti.c ****          (#) EXTI line 26 is connected to the USART2 wakeup event, applicable only for STM32F072 de
  29:../Libraries/STM32F0xx_StdPeriph_Driver/src/stm32f0xx_exti.c ****          (#) EXTI line 27 is connected to the CEC wakeup event, applicable only for STM32F051 and S
  30:../Libraries/STM32F0xx_StdPeriph_Driver/src/stm32f0xx_exti.c ****          (#) EXTI line 31 is connected to the VDD USB monitor event, applicable only for STM32F072 
  31:../Libraries/STM32F0xx_StdPeriph_Driver/src/stm32f0xx_exti.c **** 
  32:../Libraries/STM32F0xx_StdPeriph_Driver/src/stm32f0xx_exti.c ****                        ##### How to use this driver ##### 
  33:../Libraries/STM32F0xx_StdPeriph_Driver/src/stm32f0xx_exti.c ****   ==============================================================================
  34:../Libraries/STM32F0xx_StdPeriph_Driver/src/stm32f0xx_exti.c ****     [..] In order to use an I/O pin as an external interrupt source, follow
  35:../Libraries/STM32F0xx_StdPeriph_Driver/src/stm32f0xx_exti.c ****          steps below:
  36:../Libraries/STM32F0xx_StdPeriph_Driver/src/stm32f0xx_exti.c ****     (#) Configure the I/O in input mode using GPIO_Init()
  37:../Libraries/STM32F0xx_StdPeriph_Driver/src/stm32f0xx_exti.c ****     (#) Select the input source pin for the EXTI line using 
  38:../Libraries/STM32F0xx_StdPeriph_Driver/src/stm32f0xx_exti.c ****         SYSCFG_EXTILineConfig().
  39:../Libraries/STM32F0xx_StdPeriph_Driver/src/stm32f0xx_exti.c ****     (#) Select the mode(interrupt, event) and configure the trigger selection 
  40:../Libraries/STM32F0xx_StdPeriph_Driver/src/stm32f0xx_exti.c ****        (Rising, falling or both) using EXTI_Init(). For the internal interrupt,
  41:../Libraries/STM32F0xx_StdPeriph_Driver/src/stm32f0xx_exti.c ****        the trigger selection is not needed( the active edge is always the rising one).
  42:../Libraries/STM32F0xx_StdPeriph_Driver/src/stm32f0xx_exti.c ****     (#) Configure NVIC IRQ channel mapped to the EXTI line using NVIC_Init().
  43:../Libraries/STM32F0xx_StdPeriph_Driver/src/stm32f0xx_exti.c ****     (#) Optionally, you can generate a software interrupt using the function EXTI_GenerateSWInterru
  44:../Libraries/STM32F0xx_StdPeriph_Driver/src/stm32f0xx_exti.c ****     [..]
  45:../Libraries/STM32F0xx_StdPeriph_Driver/src/stm32f0xx_exti.c ****     (@) SYSCFG APB clock must be enabled to get write access to SYSCFG_EXTICRx
  46:../Libraries/STM32F0xx_StdPeriph_Driver/src/stm32f0xx_exti.c ****       registers using RCC_APB2PeriphClockCmd(RCC_APB2Periph_SYSCFG, ENABLE);
  47:../Libraries/STM32F0xx_StdPeriph_Driver/src/stm32f0xx_exti.c ****     @endverbatim
  48:../Libraries/STM32F0xx_StdPeriph_Driver/src/stm32f0xx_exti.c ****   *
  49:../Libraries/STM32F0xx_StdPeriph_Driver/src/stm32f0xx_exti.c ****   ******************************************************************************
  50:../Libraries/STM32F0xx_StdPeriph_Driver/src/stm32f0xx_exti.c ****   * @attention
  51:../Libraries/STM32F0xx_StdPeriph_Driver/src/stm32f0xx_exti.c ****   *
  52:../Libraries/STM32F0xx_StdPeriph_Driver/src/stm32f0xx_exti.c ****   * <h2><center>&copy; COPYRIGHT 2014 STMicroelectronics</center></h2>
  53:../Libraries/STM32F0xx_StdPeriph_Driver/src/stm32f0xx_exti.c ****   *
  54:../Libraries/STM32F0xx_StdPeriph_Driver/src/stm32f0xx_exti.c ****   * Licensed under MCD-ST Liberty SW License Agreement V2, (the "License");
  55:../Libraries/STM32F0xx_StdPeriph_Driver/src/stm32f0xx_exti.c ****   * You may not use this file except in compliance with the License.
  56:../Libraries/STM32F0xx_StdPeriph_Driver/src/stm32f0xx_exti.c ****   * You may obtain a copy of the License at:
  57:../Libraries/STM32F0xx_StdPeriph_Driver/src/stm32f0xx_exti.c ****   *
  58:../Libraries/STM32F0xx_StdPeriph_Driver/src/stm32f0xx_exti.c ****   *        http://www.st.com/software_license_agreement_liberty_v2
  59:../Libraries/STM32F0xx_StdPeriph_Driver/src/stm32f0xx_exti.c ****   *
  60:../Libraries/STM32F0xx_StdPeriph_Driver/src/stm32f0xx_exti.c ****   * Unless required by applicable law or agreed to in writing, software 
  61:../Libraries/STM32F0xx_StdPeriph_Driver/src/stm32f0xx_exti.c ****   * distributed under the License is distributed on an "AS IS" BASIS, 
  62:../Libraries/STM32F0xx_StdPeriph_Driver/src/stm32f0xx_exti.c ****   * WITHOUT WARRANTIES OR CONDITIONS OF ANY KIND, either express or implied.
  63:../Libraries/STM32F0xx_StdPeriph_Driver/src/stm32f0xx_exti.c ****   * See the License for the specific language governing permissions and
  64:../Libraries/STM32F0xx_StdPeriph_Driver/src/stm32f0xx_exti.c ****   * limitations under the License.
  65:../Libraries/STM32F0xx_StdPeriph_Driver/src/stm32f0xx_exti.c ****   *
  66:../Libraries/STM32F0xx_StdPeriph_Driver/src/stm32f0xx_exti.c ****   ******************************************************************************
  67:../Libraries/STM32F0xx_StdPeriph_Driver/src/stm32f0xx_exti.c ****   */
  68:../Libraries/STM32F0xx_StdPeriph_Driver/src/stm32f0xx_exti.c **** 
  69:../Libraries/STM32F0xx_StdPeriph_Driver/src/stm32f0xx_exti.c **** /* Includes ------------------------------------------------------------------*/
  70:../Libraries/STM32F0xx_StdPeriph_Driver/src/stm32f0xx_exti.c **** #include "stm32f0xx_exti.h"
  71:../Libraries/STM32F0xx_StdPeriph_Driver/src/stm32f0xx_exti.c **** 
  72:../Libraries/STM32F0xx_StdPeriph_Driver/src/stm32f0xx_exti.c **** /** @addtogroup STM32F0xx_StdPeriph_Driver
  73:../Libraries/STM32F0xx_StdPeriph_Driver/src/stm32f0xx_exti.c ****   * @{
  74:../Libraries/STM32F0xx_StdPeriph_Driver/src/stm32f0xx_exti.c ****   */
  75:../Libraries/STM32F0xx_StdPeriph_Driver/src/stm32f0xx_exti.c **** 
  76:../Libraries/STM32F0xx_StdPeriph_Driver/src/stm32f0xx_exti.c **** /** @defgroup EXTI 
  77:../Libraries/STM32F0xx_StdPeriph_Driver/src/stm32f0xx_exti.c ****   * @brief EXTI driver modules
  78:../Libraries/STM32F0xx_StdPeriph_Driver/src/stm32f0xx_exti.c ****   * @{
  79:../Libraries/STM32F0xx_StdPeriph_Driver/src/stm32f0xx_exti.c ****   */
  80:../Libraries/STM32F0xx_StdPeriph_Driver/src/stm32f0xx_exti.c **** 
  81:../Libraries/STM32F0xx_StdPeriph_Driver/src/stm32f0xx_exti.c **** /* Private typedef -----------------------------------------------------------*/
  82:../Libraries/STM32F0xx_StdPeriph_Driver/src/stm32f0xx_exti.c **** /* Private define ------------------------------------------------------------*/
  83:../Libraries/STM32F0xx_StdPeriph_Driver/src/stm32f0xx_exti.c **** #define EXTI_LINENONE     ((uint32_t)0x00000)        /* No interrupt selected */
  84:../Libraries/STM32F0xx_StdPeriph_Driver/src/stm32f0xx_exti.c **** 
  85:../Libraries/STM32F0xx_StdPeriph_Driver/src/stm32f0xx_exti.c **** /* Private macro -------------------------------------------------------------*/
  86:../Libraries/STM32F0xx_StdPeriph_Driver/src/stm32f0xx_exti.c **** /* Private variables ---------------------------------------------------------*/
  87:../Libraries/STM32F0xx_StdPeriph_Driver/src/stm32f0xx_exti.c **** /* Private function prototypes -----------------------------------------------*/
  88:../Libraries/STM32F0xx_StdPeriph_Driver/src/stm32f0xx_exti.c **** /* Private functions ---------------------------------------------------------*/
  89:../Libraries/STM32F0xx_StdPeriph_Driver/src/stm32f0xx_exti.c **** 
  90:../Libraries/STM32F0xx_StdPeriph_Driver/src/stm32f0xx_exti.c **** /** @defgroup EXTI_Private_Functions
  91:../Libraries/STM32F0xx_StdPeriph_Driver/src/stm32f0xx_exti.c ****   * @{
  92:../Libraries/STM32F0xx_StdPeriph_Driver/src/stm32f0xx_exti.c ****   */
  93:../Libraries/STM32F0xx_StdPeriph_Driver/src/stm32f0xx_exti.c **** 
  94:../Libraries/STM32F0xx_StdPeriph_Driver/src/stm32f0xx_exti.c **** /** @defgroup EXTI_Group1 Initialization and Configuration functions
  95:../Libraries/STM32F0xx_StdPeriph_Driver/src/stm32f0xx_exti.c ****  *  @brief   Initialization and Configuration functions 
  96:../Libraries/STM32F0xx_StdPeriph_Driver/src/stm32f0xx_exti.c ****  *
  97:../Libraries/STM32F0xx_StdPeriph_Driver/src/stm32f0xx_exti.c **** @verbatim   
  98:../Libraries/STM32F0xx_StdPeriph_Driver/src/stm32f0xx_exti.c ****   ==============================================================================
  99:../Libraries/STM32F0xx_StdPeriph_Driver/src/stm32f0xx_exti.c ****             ##### Initialization and Configuration functions #####
 100:../Libraries/STM32F0xx_StdPeriph_Driver/src/stm32f0xx_exti.c ****   ==============================================================================
 101:../Libraries/STM32F0xx_StdPeriph_Driver/src/stm32f0xx_exti.c **** 
 102:../Libraries/STM32F0xx_StdPeriph_Driver/src/stm32f0xx_exti.c **** @endverbatim
 103:../Libraries/STM32F0xx_StdPeriph_Driver/src/stm32f0xx_exti.c ****   * @{
 104:../Libraries/STM32F0xx_StdPeriph_Driver/src/stm32f0xx_exti.c ****   */
 105:../Libraries/STM32F0xx_StdPeriph_Driver/src/stm32f0xx_exti.c **** 
 106:../Libraries/STM32F0xx_StdPeriph_Driver/src/stm32f0xx_exti.c **** /**
 107:../Libraries/STM32F0xx_StdPeriph_Driver/src/stm32f0xx_exti.c ****   * @brief  Deinitializes the EXTI peripheral registers to their default reset 
 108:../Libraries/STM32F0xx_StdPeriph_Driver/src/stm32f0xx_exti.c ****   *         values.
 109:../Libraries/STM32F0xx_StdPeriph_Driver/src/stm32f0xx_exti.c ****   * @param  None
 110:../Libraries/STM32F0xx_StdPeriph_Driver/src/stm32f0xx_exti.c ****   * @retval None
 111:../Libraries/STM32F0xx_StdPeriph_Driver/src/stm32f0xx_exti.c ****   */
 112:../Libraries/STM32F0xx_StdPeriph_Driver/src/stm32f0xx_exti.c **** void EXTI_DeInit(void)
 113:../Libraries/STM32F0xx_StdPeriph_Driver/src/stm32f0xx_exti.c **** {
  26              		.loc 1 113 0
  27              		.cfi_startproc
 114:../Libraries/STM32F0xx_StdPeriph_Driver/src/stm32f0xx_exti.c ****   EXTI->IMR = 0x0F940000;
  28              		.loc 1 114 0
  29 0000 044B     		ldr	r3, .L2
  30 0002 054A     		ldr	r2, .L2+4
 115:../Libraries/STM32F0xx_StdPeriph_Driver/src/stm32f0xx_exti.c ****   EXTI->EMR = 0x00000000;
 116:../Libraries/STM32F0xx_StdPeriph_Driver/src/stm32f0xx_exti.c ****   EXTI->RTSR = 0x00000000;
 117:../Libraries/STM32F0xx_StdPeriph_Driver/src/stm32f0xx_exti.c ****   EXTI->FTSR = 0x00000000;
 118:../Libraries/STM32F0xx_StdPeriph_Driver/src/stm32f0xx_exti.c ****   EXTI->PR = 0x006BFFFF;
 119:../Libraries/STM32F0xx_StdPeriph_Driver/src/stm32f0xx_exti.c **** }
  31              		.loc 1 119 0
  32              		@ sp needed for prologue
 114:../Libraries/STM32F0xx_StdPeriph_Driver/src/stm32f0xx_exti.c ****   EXTI->IMR = 0x0F940000;
  33              		.loc 1 114 0
  34 0004 1A60     		str	r2, [r3]
 115:../Libraries/STM32F0xx_StdPeriph_Driver/src/stm32f0xx_exti.c ****   EXTI->EMR = 0x00000000;
  35              		.loc 1 115 0
  36 0006 0022     		mov	r2, #0
  37 0008 5A60     		str	r2, [r3, #4]
 116:../Libraries/STM32F0xx_StdPeriph_Driver/src/stm32f0xx_exti.c ****   EXTI->RTSR = 0x00000000;
  38              		.loc 1 116 0
  39 000a 9A60     		str	r2, [r3, #8]
 117:../Libraries/STM32F0xx_StdPeriph_Driver/src/stm32f0xx_exti.c ****   EXTI->FTSR = 0x00000000;
  40              		.loc 1 117 0
  41 000c DA60     		str	r2, [r3, #12]
 118:../Libraries/STM32F0xx_StdPeriph_Driver/src/stm32f0xx_exti.c ****   EXTI->PR = 0x006BFFFF;
  42              		.loc 1 118 0
  43 000e 034A     		ldr	r2, .L2+8
  44 0010 5A61     		str	r2, [r3, #20]
  45              		.loc 1 119 0
  46 0012 7047     		bx	lr
  47              	.L3:
  48              		.align	2
  49              	.L2:
  50 0014 00040140 		.word	1073808384
  51 0018 0000940F 		.word	261357568
  52 001c FFFF6B00 		.word	7077887
  53              		.cfi_endproc
  54              	.LFE33:
  56              		.section	.text.EXTI_Init,"ax",%progbits
  57              		.align	1
  58              		.global	EXTI_Init
  59              		.code	16
  60              		.thumb_func
  62              	EXTI_Init:
  63              	.LFB34:
 120:../Libraries/STM32F0xx_StdPeriph_Driver/src/stm32f0xx_exti.c **** 
 121:../Libraries/STM32F0xx_StdPeriph_Driver/src/stm32f0xx_exti.c **** /**
 122:../Libraries/STM32F0xx_StdPeriph_Driver/src/stm32f0xx_exti.c ****   * @brief  Initializes the EXTI peripheral according to the specified
 123:../Libraries/STM32F0xx_StdPeriph_Driver/src/stm32f0xx_exti.c ****   *         parameters in the EXTI_InitStruct.
 124:../Libraries/STM32F0xx_StdPeriph_Driver/src/stm32f0xx_exti.c ****   * @param  EXTI_InitStruct: pointer to a EXTI_InitTypeDef structure that 
 125:../Libraries/STM32F0xx_StdPeriph_Driver/src/stm32f0xx_exti.c ****   *         contains the configuration information for the EXTI peripheral.
 126:../Libraries/STM32F0xx_StdPeriph_Driver/src/stm32f0xx_exti.c ****   * @retval None
 127:../Libraries/STM32F0xx_StdPeriph_Driver/src/stm32f0xx_exti.c ****   */
 128:../Libraries/STM32F0xx_StdPeriph_Driver/src/stm32f0xx_exti.c **** void EXTI_Init(EXTI_InitTypeDef* EXTI_InitStruct)
 129:../Libraries/STM32F0xx_StdPeriph_Driver/src/stm32f0xx_exti.c **** {
  64              		.loc 1 129 0
  65              		.cfi_startproc
  66              	.LVL0:
  67 0000 10B5     		push	{r4, lr}
  68              	.LCFI0:
  69              		.cfi_def_cfa_offset 8
  70              		.cfi_offset 4, -8
  71              		.cfi_offset 14, -4
 130:../Libraries/STM32F0xx_StdPeriph_Driver/src/stm32f0xx_exti.c ****   uint32_t tmp = 0;
 131:../Libraries/STM32F0xx_StdPeriph_Driver/src/stm32f0xx_exti.c **** 
 132:../Libraries/STM32F0xx_StdPeriph_Driver/src/stm32f0xx_exti.c ****   /* Check the parameters */
 133:../Libraries/STM32F0xx_StdPeriph_Driver/src/stm32f0xx_exti.c ****   assert_param(IS_EXTI_MODE(EXTI_InitStruct->EXTI_Mode));
 134:../Libraries/STM32F0xx_StdPeriph_Driver/src/stm32f0xx_exti.c ****   assert_param(IS_EXTI_TRIGGER(EXTI_InitStruct->EXTI_Trigger));
 135:../Libraries/STM32F0xx_StdPeriph_Driver/src/stm32f0xx_exti.c ****   assert_param(IS_EXTI_LINE(EXTI_InitStruct->EXTI_Line));
 136:../Libraries/STM32F0xx_StdPeriph_Driver/src/stm32f0xx_exti.c ****   assert_param(IS_FUNCTIONAL_STATE(EXTI_InitStruct->EXTI_LineCmd));
 137:../Libraries/STM32F0xx_StdPeriph_Driver/src/stm32f0xx_exti.c **** 
 138:../Libraries/STM32F0xx_StdPeriph_Driver/src/stm32f0xx_exti.c ****   tmp = (uint32_t)EXTI_BASE;
 139:../Libraries/STM32F0xx_StdPeriph_Driver/src/stm32f0xx_exti.c **** 
 140:../Libraries/STM32F0xx_StdPeriph_Driver/src/stm32f0xx_exti.c ****   if (EXTI_InitStruct->EXTI_LineCmd != DISABLE)
  72              		.loc 1 140 0
  73 0002 8379     		ldrb	r3, [r0, #6]
  74 0004 0268     		ldr	r2, [r0]
  75 0006 002B     		cmp	r3, #0
  76 0008 23D0     		beq	.L5
 141:../Libraries/STM32F0xx_StdPeriph_Driver/src/stm32f0xx_exti.c ****   {
 142:../Libraries/STM32F0xx_StdPeriph_Driver/src/stm32f0xx_exti.c ****     /* Clear EXTI line configuration */
 143:../Libraries/STM32F0xx_StdPeriph_Driver/src/stm32f0xx_exti.c ****     EXTI->IMR &= ~EXTI_InitStruct->EXTI_Line;
  77              		.loc 1 143 0
  78 000a 164B     		ldr	r3, .L9
  79 000c D143     		mvn	r1, r2
  80 000e 1C68     		ldr	r4, [r3]
  81 0010 0C40     		and	r4, r1
  82 0012 1C60     		str	r4, [r3]
 144:../Libraries/STM32F0xx_StdPeriph_Driver/src/stm32f0xx_exti.c ****     EXTI->EMR &= ~EXTI_InitStruct->EXTI_Line;
  83              		.loc 1 144 0
  84 0014 5C68     		ldr	r4, [r3, #4]
  85 0016 2140     		and	r1, r4
  86 0018 5960     		str	r1, [r3, #4]
  87              	.LVL1:
 145:../Libraries/STM32F0xx_StdPeriph_Driver/src/stm32f0xx_exti.c **** 
 146:../Libraries/STM32F0xx_StdPeriph_Driver/src/stm32f0xx_exti.c ****     tmp += EXTI_InitStruct->EXTI_Mode;
  88              		.loc 1 146 0
  89 001a 0179     		ldrb	r1, [r0, #4]
  90 001c C918     		add	r1, r1, r3
  91              	.LVL2:
 147:../Libraries/STM32F0xx_StdPeriph_Driver/src/stm32f0xx_exti.c **** 
 148:../Libraries/STM32F0xx_StdPeriph_Driver/src/stm32f0xx_exti.c ****     *(__IO uint32_t *) tmp |= EXTI_InitStruct->EXTI_Line;
  92              		.loc 1 148 0
  93 001e 0C68     		ldr	r4, [r1]
  94 0020 2243     		orr	r2, r4
  95 0022 0A60     		str	r2, [r1]
 149:../Libraries/STM32F0xx_StdPeriph_Driver/src/stm32f0xx_exti.c **** 
 150:../Libraries/STM32F0xx_StdPeriph_Driver/src/stm32f0xx_exti.c ****     /* Clear Rising Falling edge configuration */
 151:../Libraries/STM32F0xx_StdPeriph_Driver/src/stm32f0xx_exti.c ****     EXTI->RTSR &= ~EXTI_InitStruct->EXTI_Line;
  96              		.loc 1 151 0
  97 0024 0268     		ldr	r2, [r0]
  98 0026 9C68     		ldr	r4, [r3, #8]
  99 0028 D143     		mvn	r1, r2
 100              	.LVL3:
 101 002a 0C40     		and	r4, r1
 102 002c 9C60     		str	r4, [r3, #8]
 152:../Libraries/STM32F0xx_StdPeriph_Driver/src/stm32f0xx_exti.c ****     EXTI->FTSR &= ~EXTI_InitStruct->EXTI_Line;
 103              		.loc 1 152 0
 104 002e DC68     		ldr	r4, [r3, #12]
 105 0030 2140     		and	r1, r4
 106 0032 D960     		str	r1, [r3, #12]
 153:../Libraries/STM32F0xx_StdPeriph_Driver/src/stm32f0xx_exti.c **** 
 154:../Libraries/STM32F0xx_StdPeriph_Driver/src/stm32f0xx_exti.c ****     /* Select the trigger for the selected interrupts */
 155:../Libraries/STM32F0xx_StdPeriph_Driver/src/stm32f0xx_exti.c ****     if (EXTI_InitStruct->EXTI_Trigger == EXTI_Trigger_Rising_Falling)
 107              		.loc 1 155 0
 108 0034 4179     		ldrb	r1, [r0, #5]
 109 0036 1029     		cmp	r1, #16
 110 0038 06D1     		bne	.L6
 156:../Libraries/STM32F0xx_StdPeriph_Driver/src/stm32f0xx_exti.c ****     {
 157:../Libraries/STM32F0xx_StdPeriph_Driver/src/stm32f0xx_exti.c ****       /* Rising Falling edge */
 158:../Libraries/STM32F0xx_StdPeriph_Driver/src/stm32f0xx_exti.c ****       EXTI->RTSR |= EXTI_InitStruct->EXTI_Line;
 111              		.loc 1 158 0
 112 003a 9968     		ldr	r1, [r3, #8]
 113 003c 1143     		orr	r1, r2
 114 003e 9960     		str	r1, [r3, #8]
 159:../Libraries/STM32F0xx_StdPeriph_Driver/src/stm32f0xx_exti.c ****       EXTI->FTSR |= EXTI_InitStruct->EXTI_Line;
 115              		.loc 1 159 0
 116 0040 D968     		ldr	r1, [r3, #12]
 117 0042 0A43     		orr	r2, r1
 118 0044 DA60     		str	r2, [r3, #12]
 119 0046 0BE0     		b	.L4
 120              	.L6:
 121              	.LVL4:
 160:../Libraries/STM32F0xx_StdPeriph_Driver/src/stm32f0xx_exti.c ****     }
 161:../Libraries/STM32F0xx_StdPeriph_Driver/src/stm32f0xx_exti.c ****     else
 162:../Libraries/STM32F0xx_StdPeriph_Driver/src/stm32f0xx_exti.c ****     {
 163:../Libraries/STM32F0xx_StdPeriph_Driver/src/stm32f0xx_exti.c ****       tmp = (uint32_t)EXTI_BASE;
 164:../Libraries/STM32F0xx_StdPeriph_Driver/src/stm32f0xx_exti.c ****       tmp += EXTI_InitStruct->EXTI_Trigger;
 122              		.loc 1 164 0
 123 0048 0648     		ldr	r0, .L9
 124              	.LVL5:
 125 004a 0B18     		add	r3, r1, r0
 165:../Libraries/STM32F0xx_StdPeriph_Driver/src/stm32f0xx_exti.c **** 
 166:../Libraries/STM32F0xx_StdPeriph_Driver/src/stm32f0xx_exti.c ****       *(__IO uint32_t *) tmp |= EXTI_InitStruct->EXTI_Line;
 126              		.loc 1 166 0
 127 004c 1968     		ldr	r1, [r3]
 128              	.LVL6:
 129 004e 0A43     		orr	r2, r1
 130 0050 05E0     		b	.L8
 131              	.LVL7:
 132              	.L5:
 167:../Libraries/STM32F0xx_StdPeriph_Driver/src/stm32f0xx_exti.c ****     }
 168:../Libraries/STM32F0xx_StdPeriph_Driver/src/stm32f0xx_exti.c ****   }
 169:../Libraries/STM32F0xx_StdPeriph_Driver/src/stm32f0xx_exti.c ****   else
 170:../Libraries/STM32F0xx_StdPeriph_Driver/src/stm32f0xx_exti.c ****   {
 171:../Libraries/STM32F0xx_StdPeriph_Driver/src/stm32f0xx_exti.c ****     tmp += EXTI_InitStruct->EXTI_Mode;
 133              		.loc 1 171 0
 134 0052 0449     		ldr	r1, .L9
 135 0054 0379     		ldrb	r3, [r0, #4]
 136 0056 5B18     		add	r3, r3, r1
 137              	.LVL8:
 172:../Libraries/STM32F0xx_StdPeriph_Driver/src/stm32f0xx_exti.c **** 
 173:../Libraries/STM32F0xx_StdPeriph_Driver/src/stm32f0xx_exti.c ****     /* Disable the selected external lines */
 174:../Libraries/STM32F0xx_StdPeriph_Driver/src/stm32f0xx_exti.c ****     *(__IO uint32_t *) tmp &= ~EXTI_InitStruct->EXTI_Line;
 138              		.loc 1 174 0
 139 0058 1968     		ldr	r1, [r3]
 140 005a 9143     		bic	r1, r2
 141 005c 0A1C     		mov	r2, r1
 142              	.LVL9:
 143              	.L8:
 144 005e 1A60     		str	r2, [r3]
 145              	.L4:
 175:../Libraries/STM32F0xx_StdPeriph_Driver/src/stm32f0xx_exti.c ****   }
 176:../Libraries/STM32F0xx_StdPeriph_Driver/src/stm32f0xx_exti.c **** }
 146              		.loc 1 176 0
 147              		@ sp needed for prologue
 148 0060 10BD     		pop	{r4, pc}
 149              	.L10:
 150 0062 C046     		.align	2
 151              	.L9:
 152 0064 00040140 		.word	1073808384
 153              		.cfi_endproc
 154              	.LFE34:
 156              		.section	.text.EXTI_StructInit,"ax",%progbits
 157              		.align	1
 158              		.global	EXTI_StructInit
 159              		.code	16
 160              		.thumb_func
 162              	EXTI_StructInit:
 163              	.LFB35:
 177:../Libraries/STM32F0xx_StdPeriph_Driver/src/stm32f0xx_exti.c **** 
 178:../Libraries/STM32F0xx_StdPeriph_Driver/src/stm32f0xx_exti.c **** /**
 179:../Libraries/STM32F0xx_StdPeriph_Driver/src/stm32f0xx_exti.c ****   * @brief  Fills each EXTI_InitStruct member with its reset value.
 180:../Libraries/STM32F0xx_StdPeriph_Driver/src/stm32f0xx_exti.c ****   * @param  EXTI_InitStruct: pointer to a EXTI_InitTypeDef structure which will
 181:../Libraries/STM32F0xx_StdPeriph_Driver/src/stm32f0xx_exti.c ****   *         be initialized.
 182:../Libraries/STM32F0xx_StdPeriph_Driver/src/stm32f0xx_exti.c ****   * @retval None
 183:../Libraries/STM32F0xx_StdPeriph_Driver/src/stm32f0xx_exti.c ****   */
 184:../Libraries/STM32F0xx_StdPeriph_Driver/src/stm32f0xx_exti.c **** void EXTI_StructInit(EXTI_InitTypeDef* EXTI_InitStruct)
 185:../Libraries/STM32F0xx_StdPeriph_Driver/src/stm32f0xx_exti.c **** {
 164              		.loc 1 185 0
 165              		.cfi_startproc
 166              	.LVL10:
 186:../Libraries/STM32F0xx_StdPeriph_Driver/src/stm32f0xx_exti.c ****   EXTI_InitStruct->EXTI_Line = EXTI_LINENONE;
 167              		.loc 1 186 0
 168 0000 0023     		mov	r3, #0
 187:../Libraries/STM32F0xx_StdPeriph_Driver/src/stm32f0xx_exti.c ****   EXTI_InitStruct->EXTI_Mode = EXTI_Mode_Interrupt;
 188:../Libraries/STM32F0xx_StdPeriph_Driver/src/stm32f0xx_exti.c ****   EXTI_InitStruct->EXTI_Trigger = EXTI_Trigger_Falling;
 169              		.loc 1 188 0
 170 0002 0C22     		mov	r2, #12
 186:../Libraries/STM32F0xx_StdPeriph_Driver/src/stm32f0xx_exti.c ****   EXTI_InitStruct->EXTI_Line = EXTI_LINENONE;
 171              		.loc 1 186 0
 172 0004 0360     		str	r3, [r0]
 187:../Libraries/STM32F0xx_StdPeriph_Driver/src/stm32f0xx_exti.c ****   EXTI_InitStruct->EXTI_Mode = EXTI_Mode_Interrupt;
 173              		.loc 1 187 0
 174 0006 0371     		strb	r3, [r0, #4]
 175              		.loc 1 188 0
 176 0008 4271     		strb	r2, [r0, #5]
 189:../Libraries/STM32F0xx_StdPeriph_Driver/src/stm32f0xx_exti.c ****   EXTI_InitStruct->EXTI_LineCmd = DISABLE;
 177              		.loc 1 189 0
 178 000a 8371     		strb	r3, [r0, #6]
 190:../Libraries/STM32F0xx_StdPeriph_Driver/src/stm32f0xx_exti.c **** }
 179              		.loc 1 190 0
 180              		@ sp needed for prologue
 181 000c 7047     		bx	lr
 182              		.cfi_endproc
 183              	.LFE35:
 185              		.section	.text.EXTI_GenerateSWInterrupt,"ax",%progbits
 186              		.align	1
 187              		.global	EXTI_GenerateSWInterrupt
 188              		.code	16
 189              		.thumb_func
 191              	EXTI_GenerateSWInterrupt:
 192              	.LFB36:
 191:../Libraries/STM32F0xx_StdPeriph_Driver/src/stm32f0xx_exti.c **** 
 192:../Libraries/STM32F0xx_StdPeriph_Driver/src/stm32f0xx_exti.c **** /**
 193:../Libraries/STM32F0xx_StdPeriph_Driver/src/stm32f0xx_exti.c ****   * @brief  Generates a Software interrupt on selected EXTI line.
 194:../Libraries/STM32F0xx_StdPeriph_Driver/src/stm32f0xx_exti.c ****   * @param  EXTI_Line: specifies the EXTI line on which the software interrupt
 195:../Libraries/STM32F0xx_StdPeriph_Driver/src/stm32f0xx_exti.c ****   *         will be generated.
 196:../Libraries/STM32F0xx_StdPeriph_Driver/src/stm32f0xx_exti.c ****   *          This parameter can be any combination of EXTI_Linex where x can be (0..27).
 197:../Libraries/STM32F0xx_StdPeriph_Driver/src/stm32f0xx_exti.c ****   * @retval None
 198:../Libraries/STM32F0xx_StdPeriph_Driver/src/stm32f0xx_exti.c ****   */
 199:../Libraries/STM32F0xx_StdPeriph_Driver/src/stm32f0xx_exti.c **** void EXTI_GenerateSWInterrupt(uint32_t EXTI_Line)
 200:../Libraries/STM32F0xx_StdPeriph_Driver/src/stm32f0xx_exti.c **** {
 193              		.loc 1 200 0
 194              		.cfi_startproc
 195              	.LVL11:
 201:../Libraries/STM32F0xx_StdPeriph_Driver/src/stm32f0xx_exti.c ****   /* Check the parameters */
 202:../Libraries/STM32F0xx_StdPeriph_Driver/src/stm32f0xx_exti.c ****   assert_param(IS_EXTI_LINE(EXTI_Line));
 203:../Libraries/STM32F0xx_StdPeriph_Driver/src/stm32f0xx_exti.c **** 
 204:../Libraries/STM32F0xx_StdPeriph_Driver/src/stm32f0xx_exti.c ****   EXTI->SWIER |= EXTI_Line;
 196              		.loc 1 204 0
 197 0000 024B     		ldr	r3, .L13
 205:../Libraries/STM32F0xx_StdPeriph_Driver/src/stm32f0xx_exti.c **** }
 198              		.loc 1 205 0
 199              		@ sp needed for prologue
 204:../Libraries/STM32F0xx_StdPeriph_Driver/src/stm32f0xx_exti.c ****   EXTI->SWIER |= EXTI_Line;
 200              		.loc 1 204 0
 201 0002 1A69     		ldr	r2, [r3, #16]
 202 0004 1043     		orr	r0, r2
 203              	.LVL12:
 204 0006 1861     		str	r0, [r3, #16]
 205              		.loc 1 205 0
 206 0008 7047     		bx	lr
 207              	.L14:
 208 000a C046     		.align	2
 209              	.L13:
 210 000c 00040140 		.word	1073808384
 211              		.cfi_endproc
 212              	.LFE36:
 214              		.section	.text.EXTI_GetFlagStatus,"ax",%progbits
 215              		.align	1
 216              		.global	EXTI_GetFlagStatus
 217              		.code	16
 218              		.thumb_func
 220              	EXTI_GetFlagStatus:
 221              	.LFB37:
 206:../Libraries/STM32F0xx_StdPeriph_Driver/src/stm32f0xx_exti.c **** 
 207:../Libraries/STM32F0xx_StdPeriph_Driver/src/stm32f0xx_exti.c **** /**
 208:../Libraries/STM32F0xx_StdPeriph_Driver/src/stm32f0xx_exti.c ****   * @}
 209:../Libraries/STM32F0xx_StdPeriph_Driver/src/stm32f0xx_exti.c ****   */
 210:../Libraries/STM32F0xx_StdPeriph_Driver/src/stm32f0xx_exti.c **** 
 211:../Libraries/STM32F0xx_StdPeriph_Driver/src/stm32f0xx_exti.c **** /** @defgroup EXTI_Group2 Interrupts and flags management functions
 212:../Libraries/STM32F0xx_StdPeriph_Driver/src/stm32f0xx_exti.c ****  *  @brief    Interrupts and flags management functions 
 213:../Libraries/STM32F0xx_StdPeriph_Driver/src/stm32f0xx_exti.c ****  *
 214:../Libraries/STM32F0xx_StdPeriph_Driver/src/stm32f0xx_exti.c **** @verbatim   
 215:../Libraries/STM32F0xx_StdPeriph_Driver/src/stm32f0xx_exti.c ****   ==============================================================================
 216:../Libraries/STM32F0xx_StdPeriph_Driver/src/stm32f0xx_exti.c ****              ##### Interrupts and flags management functions #####
 217:../Libraries/STM32F0xx_StdPeriph_Driver/src/stm32f0xx_exti.c ****   ==============================================================================
 218:../Libraries/STM32F0xx_StdPeriph_Driver/src/stm32f0xx_exti.c ****   
 219:../Libraries/STM32F0xx_StdPeriph_Driver/src/stm32f0xx_exti.c **** @endverbatim
 220:../Libraries/STM32F0xx_StdPeriph_Driver/src/stm32f0xx_exti.c ****   * @{
 221:../Libraries/STM32F0xx_StdPeriph_Driver/src/stm32f0xx_exti.c ****   */
 222:../Libraries/STM32F0xx_StdPeriph_Driver/src/stm32f0xx_exti.c **** 
 223:../Libraries/STM32F0xx_StdPeriph_Driver/src/stm32f0xx_exti.c **** /**
 224:../Libraries/STM32F0xx_StdPeriph_Driver/src/stm32f0xx_exti.c ****   * @brief  Checks whether the specified EXTI line flag is set or not.
 225:../Libraries/STM32F0xx_StdPeriph_Driver/src/stm32f0xx_exti.c ****   * @param  EXTI_Line: specifies the EXTI line flag to check.
 226:../Libraries/STM32F0xx_StdPeriph_Driver/src/stm32f0xx_exti.c ****   *          This parameter can be EXTI_Linex where x can be (0..27).
 227:../Libraries/STM32F0xx_StdPeriph_Driver/src/stm32f0xx_exti.c ****   * @retval The new state of EXTI_Line (SET or RESET).
 228:../Libraries/STM32F0xx_StdPeriph_Driver/src/stm32f0xx_exti.c ****   */
 229:../Libraries/STM32F0xx_StdPeriph_Driver/src/stm32f0xx_exti.c **** FlagStatus EXTI_GetFlagStatus(uint32_t EXTI_Line)
 230:../Libraries/STM32F0xx_StdPeriph_Driver/src/stm32f0xx_exti.c **** {
 222              		.loc 1 230 0
 223              		.cfi_startproc
 224              	.LVL13:
 231:../Libraries/STM32F0xx_StdPeriph_Driver/src/stm32f0xx_exti.c ****    FlagStatus bitstatus = RESET;
 232:../Libraries/STM32F0xx_StdPeriph_Driver/src/stm32f0xx_exti.c ****   /* Check the parameters */
 233:../Libraries/STM32F0xx_StdPeriph_Driver/src/stm32f0xx_exti.c ****   assert_param(IS_GET_EXTI_LINE(EXTI_Line));
 234:../Libraries/STM32F0xx_StdPeriph_Driver/src/stm32f0xx_exti.c **** 
 235:../Libraries/STM32F0xx_StdPeriph_Driver/src/stm32f0xx_exti.c ****   if ((EXTI->PR & EXTI_Line) != (uint32_t)RESET)
 225              		.loc 1 235 0
 226 0000 024B     		ldr	r3, .L16
 236:../Libraries/STM32F0xx_StdPeriph_Driver/src/stm32f0xx_exti.c ****   {
 237:../Libraries/STM32F0xx_StdPeriph_Driver/src/stm32f0xx_exti.c ****     bitstatus = SET;
 238:../Libraries/STM32F0xx_StdPeriph_Driver/src/stm32f0xx_exti.c ****   }
 239:../Libraries/STM32F0xx_StdPeriph_Driver/src/stm32f0xx_exti.c ****   else
 240:../Libraries/STM32F0xx_StdPeriph_Driver/src/stm32f0xx_exti.c ****   {
 241:../Libraries/STM32F0xx_StdPeriph_Driver/src/stm32f0xx_exti.c ****     bitstatus = RESET;
 242:../Libraries/STM32F0xx_StdPeriph_Driver/src/stm32f0xx_exti.c ****   }
 243:../Libraries/STM32F0xx_StdPeriph_Driver/src/stm32f0xx_exti.c ****   return bitstatus;
 244:../Libraries/STM32F0xx_StdPeriph_Driver/src/stm32f0xx_exti.c **** }
 227              		.loc 1 244 0
 228              		@ sp needed for prologue
 235:../Libraries/STM32F0xx_StdPeriph_Driver/src/stm32f0xx_exti.c ****   if ((EXTI->PR & EXTI_Line) != (uint32_t)RESET)
 229              		.loc 1 235 0
 230 0002 5B69     		ldr	r3, [r3, #20]
 231              	.LVL14:
 232 0004 1840     		and	r0, r3
 233              	.LVL15:
 243:../Libraries/STM32F0xx_StdPeriph_Driver/src/stm32f0xx_exti.c ****   return bitstatus;
 234              		.loc 1 243 0
 235 0006 431E     		sub	r3, r0, #1
 236 0008 9841     		sbc	r0, r0, r3
 237              	.LVL16:
 238              		.loc 1 244 0
 239 000a 7047     		bx	lr
 240              	.L17:
 241              		.align	2
 242              	.L16:
 243 000c 00040140 		.word	1073808384
 244              		.cfi_endproc
 245              	.LFE37:
 247              		.section	.text.EXTI_ClearFlag,"ax",%progbits
 248              		.align	1
 249              		.global	EXTI_ClearFlag
 250              		.code	16
 251              		.thumb_func
 253              	EXTI_ClearFlag:
 254              	.LFB38:
 245:../Libraries/STM32F0xx_StdPeriph_Driver/src/stm32f0xx_exti.c **** 
 246:../Libraries/STM32F0xx_StdPeriph_Driver/src/stm32f0xx_exti.c **** /**
 247:../Libraries/STM32F0xx_StdPeriph_Driver/src/stm32f0xx_exti.c ****   * @brief  Clears the EXTI's line pending flags.
 248:../Libraries/STM32F0xx_StdPeriph_Driver/src/stm32f0xx_exti.c ****   * @param  EXTI_Line: specifies the EXTI lines flags to clear.
 249:../Libraries/STM32F0xx_StdPeriph_Driver/src/stm32f0xx_exti.c ****   *          This parameter can be any combination of EXTI_Linex where x can be (0..27).
 250:../Libraries/STM32F0xx_StdPeriph_Driver/src/stm32f0xx_exti.c ****   * @retval None
 251:../Libraries/STM32F0xx_StdPeriph_Driver/src/stm32f0xx_exti.c ****   */
 252:../Libraries/STM32F0xx_StdPeriph_Driver/src/stm32f0xx_exti.c **** void EXTI_ClearFlag(uint32_t EXTI_Line)
 253:../Libraries/STM32F0xx_StdPeriph_Driver/src/stm32f0xx_exti.c **** {
 255              		.loc 1 253 0
 256              		.cfi_startproc
 257              	.LVL17:
 254:../Libraries/STM32F0xx_StdPeriph_Driver/src/stm32f0xx_exti.c ****   /* Check the parameters */
 255:../Libraries/STM32F0xx_StdPeriph_Driver/src/stm32f0xx_exti.c ****   assert_param(IS_EXTI_LINE(EXTI_Line));
 256:../Libraries/STM32F0xx_StdPeriph_Driver/src/stm32f0xx_exti.c **** 
 257:../Libraries/STM32F0xx_StdPeriph_Driver/src/stm32f0xx_exti.c ****   EXTI->PR = EXTI_Line;
 258              		.loc 1 257 0
 259 0000 014B     		ldr	r3, .L19
 258:../Libraries/STM32F0xx_StdPeriph_Driver/src/stm32f0xx_exti.c **** }
 260              		.loc 1 258 0
 261              		@ sp needed for prologue
 257:../Libraries/STM32F0xx_StdPeriph_Driver/src/stm32f0xx_exti.c ****   EXTI->PR = EXTI_Line;
 262              		.loc 1 257 0
 263 0002 5861     		str	r0, [r3, #20]
 264              		.loc 1 258 0
 265 0004 7047     		bx	lr
 266              	.L20:
 267 0006 C046     		.align	2
 268              	.L19:
 269 0008 00040140 		.word	1073808384
 270              		.cfi_endproc
 271              	.LFE38:
 273              		.section	.text.EXTI_GetITStatus,"ax",%progbits
 274              		.align	1
 275              		.global	EXTI_GetITStatus
 276              		.code	16
 277              		.thumb_func
 279              	EXTI_GetITStatus:
 280              	.LFB39:
 259:../Libraries/STM32F0xx_StdPeriph_Driver/src/stm32f0xx_exti.c **** 
 260:../Libraries/STM32F0xx_StdPeriph_Driver/src/stm32f0xx_exti.c **** /**
 261:../Libraries/STM32F0xx_StdPeriph_Driver/src/stm32f0xx_exti.c ****   * @brief  Checks whether the specified EXTI line is asserted or not.
 262:../Libraries/STM32F0xx_StdPeriph_Driver/src/stm32f0xx_exti.c ****   * @param  EXTI_Line: specifies the EXTI line to check.
 263:../Libraries/STM32F0xx_StdPeriph_Driver/src/stm32f0xx_exti.c ****   *          This parameter can be EXTI_Linex where x can be (0..27).
 264:../Libraries/STM32F0xx_StdPeriph_Driver/src/stm32f0xx_exti.c ****   * @retval The new state of EXTI_Line (SET or RESET).
 265:../Libraries/STM32F0xx_StdPeriph_Driver/src/stm32f0xx_exti.c ****   */
 266:../Libraries/STM32F0xx_StdPeriph_Driver/src/stm32f0xx_exti.c **** ITStatus EXTI_GetITStatus(uint32_t EXTI_Line)
 267:../Libraries/STM32F0xx_StdPeriph_Driver/src/stm32f0xx_exti.c **** {
 281              		.loc 1 267 0
 282              		.cfi_startproc
 283              	.LVL18:
 268:../Libraries/STM32F0xx_StdPeriph_Driver/src/stm32f0xx_exti.c ****   ITStatus bitstatus = RESET;
 269:../Libraries/STM32F0xx_StdPeriph_Driver/src/stm32f0xx_exti.c **** 
 270:../Libraries/STM32F0xx_StdPeriph_Driver/src/stm32f0xx_exti.c ****   /* Check the parameters */
 271:../Libraries/STM32F0xx_StdPeriph_Driver/src/stm32f0xx_exti.c ****   assert_param(IS_GET_EXTI_LINE(EXTI_Line));
 272:../Libraries/STM32F0xx_StdPeriph_Driver/src/stm32f0xx_exti.c **** 
 273:../Libraries/STM32F0xx_StdPeriph_Driver/src/stm32f0xx_exti.c ****   if ((EXTI->PR & EXTI_Line) != (uint32_t)RESET)
 284              		.loc 1 273 0
 285 0000 024B     		ldr	r3, .L22
 274:../Libraries/STM32F0xx_StdPeriph_Driver/src/stm32f0xx_exti.c ****   {
 275:../Libraries/STM32F0xx_StdPeriph_Driver/src/stm32f0xx_exti.c ****     bitstatus = SET;
 276:../Libraries/STM32F0xx_StdPeriph_Driver/src/stm32f0xx_exti.c ****   }
 277:../Libraries/STM32F0xx_StdPeriph_Driver/src/stm32f0xx_exti.c ****   else
 278:../Libraries/STM32F0xx_StdPeriph_Driver/src/stm32f0xx_exti.c ****   {
 279:../Libraries/STM32F0xx_StdPeriph_Driver/src/stm32f0xx_exti.c ****     bitstatus = RESET;
 280:../Libraries/STM32F0xx_StdPeriph_Driver/src/stm32f0xx_exti.c ****   }
 281:../Libraries/STM32F0xx_StdPeriph_Driver/src/stm32f0xx_exti.c ****   return bitstatus;
 282:../Libraries/STM32F0xx_StdPeriph_Driver/src/stm32f0xx_exti.c **** }
 286              		.loc 1 282 0
 287              		@ sp needed for prologue
 273:../Libraries/STM32F0xx_StdPeriph_Driver/src/stm32f0xx_exti.c ****   if ((EXTI->PR & EXTI_Line) != (uint32_t)RESET)
 288              		.loc 1 273 0
 289 0002 5B69     		ldr	r3, [r3, #20]
 290              	.LVL19:
 291 0004 1840     		and	r0, r3
 292              	.LVL20:
 281:../Libraries/STM32F0xx_StdPeriph_Driver/src/stm32f0xx_exti.c ****   return bitstatus;
 293              		.loc 1 281 0
 294 0006 431E     		sub	r3, r0, #1
 295 0008 9841     		sbc	r0, r0, r3
 296              	.LVL21:
 297              		.loc 1 282 0
 298 000a 7047     		bx	lr
 299              	.L23:
 300              		.align	2
 301              	.L22:
 302 000c 00040140 		.word	1073808384
 303              		.cfi_endproc
 304              	.LFE39:
 306              		.section	.text.EXTI_ClearITPendingBit,"ax",%progbits
 307              		.align	1
 308              		.global	EXTI_ClearITPendingBit
 309              		.code	16
 310              		.thumb_func
 312              	EXTI_ClearITPendingBit:
 313              	.LFB40:
 283:../Libraries/STM32F0xx_StdPeriph_Driver/src/stm32f0xx_exti.c **** 
 284:../Libraries/STM32F0xx_StdPeriph_Driver/src/stm32f0xx_exti.c **** /**
 285:../Libraries/STM32F0xx_StdPeriph_Driver/src/stm32f0xx_exti.c ****   * @brief  Clears the EXTI's line pending bits.
 286:../Libraries/STM32F0xx_StdPeriph_Driver/src/stm32f0xx_exti.c ****   * @param  EXTI_Line: specifies the EXTI lines to clear.
 287:../Libraries/STM32F0xx_StdPeriph_Driver/src/stm32f0xx_exti.c ****   *          This parameter can be any combination of EXTI_Linex where x can be (0..27).
 288:../Libraries/STM32F0xx_StdPeriph_Driver/src/stm32f0xx_exti.c ****   * @retval None
 289:../Libraries/STM32F0xx_StdPeriph_Driver/src/stm32f0xx_exti.c ****   */
 290:../Libraries/STM32F0xx_StdPeriph_Driver/src/stm32f0xx_exti.c **** void EXTI_ClearITPendingBit(uint32_t EXTI_Line)
 291:../Libraries/STM32F0xx_StdPeriph_Driver/src/stm32f0xx_exti.c **** {
 314              		.loc 1 291 0
 315              		.cfi_startproc
 316              	.LVL22:
 292:../Libraries/STM32F0xx_StdPeriph_Driver/src/stm32f0xx_exti.c ****   /* Check the parameters */
 293:../Libraries/STM32F0xx_StdPeriph_Driver/src/stm32f0xx_exti.c ****   assert_param(IS_EXTI_LINE(EXTI_Line));
 294:../Libraries/STM32F0xx_StdPeriph_Driver/src/stm32f0xx_exti.c **** 
 295:../Libraries/STM32F0xx_StdPeriph_Driver/src/stm32f0xx_exti.c ****   EXTI->PR = EXTI_Line;
 317              		.loc 1 295 0
 318 0000 014B     		ldr	r3, .L25
 296:../Libraries/STM32F0xx_StdPeriph_Driver/src/stm32f0xx_exti.c **** }
 319              		.loc 1 296 0
 320              		@ sp needed for prologue
 295:../Libraries/STM32F0xx_StdPeriph_Driver/src/stm32f0xx_exti.c ****   EXTI->PR = EXTI_Line;
 321              		.loc 1 295 0
 322 0002 5861     		str	r0, [r3, #20]
 323              		.loc 1 296 0
 324 0004 7047     		bx	lr
 325              	.L26:
 326 0006 C046     		.align	2
 327              	.L25:
 328 0008 00040140 		.word	1073808384
 329              		.cfi_endproc
 330              	.LFE40:
 332              		.text
 333              	.Letext0:
 334              		.file 2 "c:\\program files (x86)\\codesourcery\\sourcery_codebench_lite_for_arm_eabi\\bin\\../lib/
 335              		.file 3 "D:\\EclipseIndigo\\workspace\\cam_hub\\scr/stm32f0xx.h"
 336              		.file 4 "D:\\EclipseIndigo\\workspace\\cam_hub\\Libraries\\STM32F0xx_StdPeriph_Driver\\inc/stm32f0
DEFINED SYMBOLS
                            *ABS*:00000000 stm32f0xx_exti.c
C:\Users\THANGN~1\AppData\Local\Temp\ccf1UfyI.s:18     .text.EXTI_DeInit:00000000 $t
C:\Users\THANGN~1\AppData\Local\Temp\ccf1UfyI.s:23     .text.EXTI_DeInit:00000000 EXTI_DeInit
C:\Users\THANGN~1\AppData\Local\Temp\ccf1UfyI.s:50     .text.EXTI_DeInit:00000014 $d
C:\Users\THANGN~1\AppData\Local\Temp\ccf1UfyI.s:57     .text.EXTI_Init:00000000 $t
C:\Users\THANGN~1\AppData\Local\Temp\ccf1UfyI.s:62     .text.EXTI_Init:00000000 EXTI_Init
C:\Users\THANGN~1\AppData\Local\Temp\ccf1UfyI.s:152    .text.EXTI_Init:00000064 $d
C:\Users\THANGN~1\AppData\Local\Temp\ccf1UfyI.s:157    .text.EXTI_StructInit:00000000 $t
C:\Users\THANGN~1\AppData\Local\Temp\ccf1UfyI.s:162    .text.EXTI_StructInit:00000000 EXTI_StructInit
C:\Users\THANGN~1\AppData\Local\Temp\ccf1UfyI.s:186    .text.EXTI_GenerateSWInterrupt:00000000 $t
C:\Users\THANGN~1\AppData\Local\Temp\ccf1UfyI.s:191    .text.EXTI_GenerateSWInterrupt:00000000 EXTI_GenerateSWInterrupt
C:\Users\THANGN~1\AppData\Local\Temp\ccf1UfyI.s:210    .text.EXTI_GenerateSWInterrupt:0000000c $d
C:\Users\THANGN~1\AppData\Local\Temp\ccf1UfyI.s:215    .text.EXTI_GetFlagStatus:00000000 $t
C:\Users\THANGN~1\AppData\Local\Temp\ccf1UfyI.s:220    .text.EXTI_GetFlagStatus:00000000 EXTI_GetFlagStatus
C:\Users\THANGN~1\AppData\Local\Temp\ccf1UfyI.s:243    .text.EXTI_GetFlagStatus:0000000c $d
C:\Users\THANGN~1\AppData\Local\Temp\ccf1UfyI.s:248    .text.EXTI_ClearFlag:00000000 $t
C:\Users\THANGN~1\AppData\Local\Temp\ccf1UfyI.s:253    .text.EXTI_ClearFlag:00000000 EXTI_ClearFlag
C:\Users\THANGN~1\AppData\Local\Temp\ccf1UfyI.s:269    .text.EXTI_ClearFlag:00000008 $d
C:\Users\THANGN~1\AppData\Local\Temp\ccf1UfyI.s:274    .text.EXTI_GetITStatus:00000000 $t
C:\Users\THANGN~1\AppData\Local\Temp\ccf1UfyI.s:279    .text.EXTI_GetITStatus:00000000 EXTI_GetITStatus
C:\Users\THANGN~1\AppData\Local\Temp\ccf1UfyI.s:302    .text.EXTI_GetITStatus:0000000c $d
C:\Users\THANGN~1\AppData\Local\Temp\ccf1UfyI.s:307    .text.EXTI_ClearITPendingBit:00000000 $t
C:\Users\THANGN~1\AppData\Local\Temp\ccf1UfyI.s:312    .text.EXTI_ClearITPendingBit:00000000 EXTI_ClearITPendingBit
C:\Users\THANGN~1\AppData\Local\Temp\ccf1UfyI.s:328    .text.EXTI_ClearITPendingBit:00000008 $d
                     .debug_frame:00000010 $d
                           .group:00000000 wm4.1.90b54cb79624a05a6a75538133d4ee2f
                           .group:00000000 wm4.stm32f0xx.h.54.2936c65ea497e2b9f6697d244f204f4f
                           .group:00000000 wm4.core_cm0.h.47.022e66414e77714da7c4b30b3ad99fe8
                           .group:00000000 wm4.stdint.h.10.90b695f550ca6cc3fb08fa83baf01e05
                           .group:00000000 wm4.core_cmInstr.h.39.b7b6650bdd2316848d940915272d75b8
                           .group:00000000 wm4.core_cm0.h.135.ca70469f87e143609670bb393bfa6518
                           .group:00000000 wm4.stm32f0xx.h.491.56b995fdd6b34ccece7fa7ee90a03d09
                           .group:00000000 wm4.stm32f0xx_adc.h.31.deffd6417c7f5b0940228cd2f9270807
                           .group:00000000 wm4.stm32f0xx_can.h.31.a43838c2d1a571e6bd63f34d4d38f77a
                           .group:00000000 wm4.stm32f0xx_cec.h.31.cbead9587d6f5205735191e084956263
                           .group:00000000 wm4.stm32f0xx_crc.h.31.657756bbefdf42347508251cbea9a2cc
                           .group:00000000 wm4.stm32f0xx_crs.h.31.22b5372509752121d772a6317b79e691
                           .group:00000000 wm4.stm32f0xx_comp.h.31.505a77c0cb787dfeca9e3c2b1da31ed9
                           .group:00000000 wm4.stm32f0xx_dac.h.31.3d3aa9b22e91ba1b1cfddfa53a7af016
                           .group:00000000 wm4.stm32f0xx_dbgmcu.h.31.43e4f2e77b6aa0d00808044a3e1d0d83
                           .group:00000000 wm4.stm32f0xx_dma.h.31.d3df6d3d0192193cb53f5c34738fc5a2
                           .group:00000000 wm4.stm32f0xx_flash.h.31.ff204b27217b5926452ab2f52b527ff3
                           .group:00000000 wm4.stm32f0xx_gpio.h.31.0378cd9a2c4cea0ca3c3e917acce56e1
                           .group:00000000 wm4.stm32f0xx_syscfg.h.31.6e8ab03c61462545bc84446ab81da274
                           .group:00000000 wm4.stm32f0xx_i2c.h.31.83969866ec38bbcc1bff9238f01a1954
                           .group:00000000 wm4.stm32f0xx_iwdg.h.31.bb16f7e18e54df66bf9bd0e2b29bdc93
                           .group:00000000 wm4.stm32f0xx_pwr.h.31.6dd56e642e4a5657857c16e695f196ff
                           .group:00000000 wm4.stm32f0xx_rcc.h.31.02fa02b24c01ae505c73e46ccbb612cf
                           .group:00000000 wm4.stm32f0xx_rtc.h.31.bd5ec8997d6af4752bb55b75cb717765
                           .group:00000000 wm4.stm32f0xx_spi.h.31.6c629d36cb6d36ac31583d2d427e887a
                           .group:00000000 wm4.stm32f0xx_tim.h.31.265cfb150d9b3c280816e67e49205128
                           .group:00000000 wm4.stm32f0xx_usart.h.31.81196cb2de47d9dd879446831830753a
                           .group:00000000 wm4.stm32f0xx_wwdg.h.31.0cf1a9b3d89d147c688025fdd33d9c49
                           .group:00000000 wm4.stm32f0xx_misc.h.31.d5c08c37e69b8a852dbb75e9252454c6
                           .group:00000000 wm4.stm32f0xx_exti.h.59.8afb8f2fd465ab6f8634487e1df14664

NO UNDEFINED SYMBOLS
