   1              		.cpu cortex-m0
   2              		.fpu softvfp
   3              		.eabi_attribute 20, 1
   4              		.eabi_attribute 21, 1
   5              		.eabi_attribute 23, 3
   6              		.eabi_attribute 24, 1
   7              		.eabi_attribute 25, 1
   8              		.eabi_attribute 26, 1
   9              		.eabi_attribute 30, 4
  10              		.eabi_attribute 34, 0
  11              		.eabi_attribute 18, 4
  12              		.code	16
  13              		.file	"stm32f0xx_flash.c"
  14              		.text
  15              	.Ltext0:
  16              		.cfi_sections	.debug_frame
  17              		.section	.text.FLASH_SetLatency,"ax",%progbits
  18              		.align	1
  19              		.global	FLASH_SetLatency
  20              		.code	16
  21              		.thumb_func
  23              	FLASH_SetLatency:
  24              	.LFB33:
  25              		.file 1 "../Libraries/STM32F0xx_StdPeriph_Driver/src/stm32f0xx_flash.c"
   1:../Libraries/STM32F0xx_StdPeriph_Driver/src/stm32f0xx_flash.c **** /**
   2:../Libraries/STM32F0xx_StdPeriph_Driver/src/stm32f0xx_flash.c ****   ******************************************************************************
   3:../Libraries/STM32F0xx_StdPeriph_Driver/src/stm32f0xx_flash.c ****   * @file    stm32f0xx_flash.c
   4:../Libraries/STM32F0xx_StdPeriph_Driver/src/stm32f0xx_flash.c ****   * @author  MCD Application Team
   5:../Libraries/STM32F0xx_StdPeriph_Driver/src/stm32f0xx_flash.c ****   * @version V1.5.0
   6:../Libraries/STM32F0xx_StdPeriph_Driver/src/stm32f0xx_flash.c ****   * @date    05-December-2014
   7:../Libraries/STM32F0xx_StdPeriph_Driver/src/stm32f0xx_flash.c ****   * @brief   This file provides firmware functions to manage the following 
   8:../Libraries/STM32F0xx_StdPeriph_Driver/src/stm32f0xx_flash.c ****   *          functionalities of the FLASH peripheral:
   9:../Libraries/STM32F0xx_StdPeriph_Driver/src/stm32f0xx_flash.c ****   *            - FLASH Interface configuration
  10:../Libraries/STM32F0xx_StdPeriph_Driver/src/stm32f0xx_flash.c ****   *            - FLASH Memory Programming
  11:../Libraries/STM32F0xx_StdPeriph_Driver/src/stm32f0xx_flash.c ****   *            - Option Bytes Programming
  12:../Libraries/STM32F0xx_StdPeriph_Driver/src/stm32f0xx_flash.c ****   *            - Interrupts and flags management
  13:../Libraries/STM32F0xx_StdPeriph_Driver/src/stm32f0xx_flash.c ****   *
  14:../Libraries/STM32F0xx_StdPeriph_Driver/src/stm32f0xx_flash.c ****   *  @verbatim
  15:../Libraries/STM32F0xx_StdPeriph_Driver/src/stm32f0xx_flash.c ****  ===============================================================================
  16:../Libraries/STM32F0xx_StdPeriph_Driver/src/stm32f0xx_flash.c ****                     ##### How to use this driver #####
  17:../Libraries/STM32F0xx_StdPeriph_Driver/src/stm32f0xx_flash.c ****  ===============================================================================
  18:../Libraries/STM32F0xx_StdPeriph_Driver/src/stm32f0xx_flash.c ****     [..] This driver provides functions to configure and program the Flash 
  19:../Libraries/STM32F0xx_StdPeriph_Driver/src/stm32f0xx_flash.c ****          memory of all STM32F0xx devices. These functions are split in 4 groups
  20:../Libraries/STM32F0xx_StdPeriph_Driver/src/stm32f0xx_flash.c ****          (#) FLASH Interface configuration functions: this group includes the 
  21:../Libraries/STM32F0xx_StdPeriph_Driver/src/stm32f0xx_flash.c ****              management of following features:
  22:../Libraries/STM32F0xx_StdPeriph_Driver/src/stm32f0xx_flash.c ****              (++) Set the latency
  23:../Libraries/STM32F0xx_StdPeriph_Driver/src/stm32f0xx_flash.c ****              (++) Enable/Disable the prefetch buffer
  24:../Libraries/STM32F0xx_StdPeriph_Driver/src/stm32f0xx_flash.c **** 
  25:../Libraries/STM32F0xx_StdPeriph_Driver/src/stm32f0xx_flash.c ****          (#) FLASH Memory Programming functions: this group includes all needed 
  26:../Libraries/STM32F0xx_StdPeriph_Driver/src/stm32f0xx_flash.c ****              functions to erase and program the main memory:
  27:../Libraries/STM32F0xx_StdPeriph_Driver/src/stm32f0xx_flash.c ****              (++) Lock and Unlock the Flash interface.
  28:../Libraries/STM32F0xx_StdPeriph_Driver/src/stm32f0xx_flash.c ****              (++) Erase function: Erase Page, erase all pages.
  29:../Libraries/STM32F0xx_StdPeriph_Driver/src/stm32f0xx_flash.c ****              (++) Program functions: Half Word and Word write.
  30:../Libraries/STM32F0xx_StdPeriph_Driver/src/stm32f0xx_flash.c **** 
  31:../Libraries/STM32F0xx_StdPeriph_Driver/src/stm32f0xx_flash.c ****          (#) FLASH Option Bytes Programming functions: this group includes all 
  32:../Libraries/STM32F0xx_StdPeriph_Driver/src/stm32f0xx_flash.c ****              needed functions to:
  33:../Libraries/STM32F0xx_StdPeriph_Driver/src/stm32f0xx_flash.c ****              (++) Lock and Unlock the Flash Option bytes.
  34:../Libraries/STM32F0xx_StdPeriph_Driver/src/stm32f0xx_flash.c ****              (++) Launch the Option Bytes loader
  35:../Libraries/STM32F0xx_StdPeriph_Driver/src/stm32f0xx_flash.c ****              (++) Erase the Option Bytes
  36:../Libraries/STM32F0xx_StdPeriph_Driver/src/stm32f0xx_flash.c ****              (++)Set/Reset the write protection
  37:../Libraries/STM32F0xx_StdPeriph_Driver/src/stm32f0xx_flash.c ****              (++) Set the Read protection Level
  38:../Libraries/STM32F0xx_StdPeriph_Driver/src/stm32f0xx_flash.c ****              (++) Program the user option Bytes
  39:../Libraries/STM32F0xx_StdPeriph_Driver/src/stm32f0xx_flash.c ****              (++) Set/Reset the BOOT1 bit
  40:../Libraries/STM32F0xx_StdPeriph_Driver/src/stm32f0xx_flash.c ****              (++) Enable/Disable the VDDA Analog Monitoring
  41:../Libraries/STM32F0xx_StdPeriph_Driver/src/stm32f0xx_flash.c ****              (++) Get the user option bytes
  42:../Libraries/STM32F0xx_StdPeriph_Driver/src/stm32f0xx_flash.c ****              (++) Get the Write protection
  43:../Libraries/STM32F0xx_StdPeriph_Driver/src/stm32f0xx_flash.c ****              (++) Get the read protection status
  44:../Libraries/STM32F0xx_StdPeriph_Driver/src/stm32f0xx_flash.c **** 
  45:../Libraries/STM32F0xx_StdPeriph_Driver/src/stm32f0xx_flash.c ****          (#) FLASH Interrupts and flag management functions: this group includes 
  46:../Libraries/STM32F0xx_StdPeriph_Driver/src/stm32f0xx_flash.c ****              all needed functions to:
  47:../Libraries/STM32F0xx_StdPeriph_Driver/src/stm32f0xx_flash.c ****              (++) Enable/Disable the flash interrupt sources
  48:../Libraries/STM32F0xx_StdPeriph_Driver/src/stm32f0xx_flash.c ****              (++) Get flags status
  49:../Libraries/STM32F0xx_StdPeriph_Driver/src/stm32f0xx_flash.c ****              (++) Clear flags
  50:../Libraries/STM32F0xx_StdPeriph_Driver/src/stm32f0xx_flash.c ****              (++) Get Flash operation status
  51:../Libraries/STM32F0xx_StdPeriph_Driver/src/stm32f0xx_flash.c ****              (++) Wait for last flash operation
  52:../Libraries/STM32F0xx_StdPeriph_Driver/src/stm32f0xx_flash.c **** 
  53:../Libraries/STM32F0xx_StdPeriph_Driver/src/stm32f0xx_flash.c ****  @endverbatim
  54:../Libraries/STM32F0xx_StdPeriph_Driver/src/stm32f0xx_flash.c ****   
  55:../Libraries/STM32F0xx_StdPeriph_Driver/src/stm32f0xx_flash.c ****   ******************************************************************************
  56:../Libraries/STM32F0xx_StdPeriph_Driver/src/stm32f0xx_flash.c ****   * @attention
  57:../Libraries/STM32F0xx_StdPeriph_Driver/src/stm32f0xx_flash.c ****   *
  58:../Libraries/STM32F0xx_StdPeriph_Driver/src/stm32f0xx_flash.c ****   * <h2><center>&copy; COPYRIGHT 2014 STMicroelectronics</center></h2>
  59:../Libraries/STM32F0xx_StdPeriph_Driver/src/stm32f0xx_flash.c ****   *
  60:../Libraries/STM32F0xx_StdPeriph_Driver/src/stm32f0xx_flash.c ****   * Licensed under MCD-ST Liberty SW License Agreement V2, (the "License");
  61:../Libraries/STM32F0xx_StdPeriph_Driver/src/stm32f0xx_flash.c ****   * You may not use this file except in compliance with the License.
  62:../Libraries/STM32F0xx_StdPeriph_Driver/src/stm32f0xx_flash.c ****   * You may obtain a copy of the License at:
  63:../Libraries/STM32F0xx_StdPeriph_Driver/src/stm32f0xx_flash.c ****   *
  64:../Libraries/STM32F0xx_StdPeriph_Driver/src/stm32f0xx_flash.c ****   *        http://www.st.com/software_license_agreement_liberty_v2
  65:../Libraries/STM32F0xx_StdPeriph_Driver/src/stm32f0xx_flash.c ****   *
  66:../Libraries/STM32F0xx_StdPeriph_Driver/src/stm32f0xx_flash.c ****   * Unless required by applicable law or agreed to in writing, software 
  67:../Libraries/STM32F0xx_StdPeriph_Driver/src/stm32f0xx_flash.c ****   * distributed under the License is distributed on an "AS IS" BASIS, 
  68:../Libraries/STM32F0xx_StdPeriph_Driver/src/stm32f0xx_flash.c ****   * WITHOUT WARRANTIES OR CONDITIONS OF ANY KIND, either express or implied.
  69:../Libraries/STM32F0xx_StdPeriph_Driver/src/stm32f0xx_flash.c ****   * See the License for the specific language governing permissions and
  70:../Libraries/STM32F0xx_StdPeriph_Driver/src/stm32f0xx_flash.c ****   * limitations under the License.
  71:../Libraries/STM32F0xx_StdPeriph_Driver/src/stm32f0xx_flash.c ****   *
  72:../Libraries/STM32F0xx_StdPeriph_Driver/src/stm32f0xx_flash.c ****   ******************************************************************************
  73:../Libraries/STM32F0xx_StdPeriph_Driver/src/stm32f0xx_flash.c ****   */
  74:../Libraries/STM32F0xx_StdPeriph_Driver/src/stm32f0xx_flash.c **** 
  75:../Libraries/STM32F0xx_StdPeriph_Driver/src/stm32f0xx_flash.c **** /* Includes ------------------------------------------------------------------*/
  76:../Libraries/STM32F0xx_StdPeriph_Driver/src/stm32f0xx_flash.c **** #include "stm32f0xx_flash.h"
  77:../Libraries/STM32F0xx_StdPeriph_Driver/src/stm32f0xx_flash.c **** 
  78:../Libraries/STM32F0xx_StdPeriph_Driver/src/stm32f0xx_flash.c **** /** @addtogroup STM32F0xx_StdPeriph_Driver
  79:../Libraries/STM32F0xx_StdPeriph_Driver/src/stm32f0xx_flash.c ****   * @{
  80:../Libraries/STM32F0xx_StdPeriph_Driver/src/stm32f0xx_flash.c ****   */
  81:../Libraries/STM32F0xx_StdPeriph_Driver/src/stm32f0xx_flash.c **** 
  82:../Libraries/STM32F0xx_StdPeriph_Driver/src/stm32f0xx_flash.c **** /** @defgroup FLASH 
  83:../Libraries/STM32F0xx_StdPeriph_Driver/src/stm32f0xx_flash.c ****   * @brief FLASH driver modules
  84:../Libraries/STM32F0xx_StdPeriph_Driver/src/stm32f0xx_flash.c ****   * @{
  85:../Libraries/STM32F0xx_StdPeriph_Driver/src/stm32f0xx_flash.c ****   */ 
  86:../Libraries/STM32F0xx_StdPeriph_Driver/src/stm32f0xx_flash.c **** 
  87:../Libraries/STM32F0xx_StdPeriph_Driver/src/stm32f0xx_flash.c **** /* Private typedef -----------------------------------------------------------*/
  88:../Libraries/STM32F0xx_StdPeriph_Driver/src/stm32f0xx_flash.c **** /* Private define ------------------------------------------------------------*/
  89:../Libraries/STM32F0xx_StdPeriph_Driver/src/stm32f0xx_flash.c **** /* Private macro -------------------------------------------------------------*/
  90:../Libraries/STM32F0xx_StdPeriph_Driver/src/stm32f0xx_flash.c **** /* Private variables ---------------------------------------------------------*/
  91:../Libraries/STM32F0xx_StdPeriph_Driver/src/stm32f0xx_flash.c **** /* Private function prototypes -----------------------------------------------*/
  92:../Libraries/STM32F0xx_StdPeriph_Driver/src/stm32f0xx_flash.c **** /* Private functions ---------------------------------------------------------*/
  93:../Libraries/STM32F0xx_StdPeriph_Driver/src/stm32f0xx_flash.c ****  
  94:../Libraries/STM32F0xx_StdPeriph_Driver/src/stm32f0xx_flash.c **** /** @defgroup FLASH_Private_Functions
  95:../Libraries/STM32F0xx_StdPeriph_Driver/src/stm32f0xx_flash.c ****   * @{
  96:../Libraries/STM32F0xx_StdPeriph_Driver/src/stm32f0xx_flash.c ****   */ 
  97:../Libraries/STM32F0xx_StdPeriph_Driver/src/stm32f0xx_flash.c **** 
  98:../Libraries/STM32F0xx_StdPeriph_Driver/src/stm32f0xx_flash.c **** /** @defgroup FLASH_Group1 FLASH Interface configuration functions
  99:../Libraries/STM32F0xx_StdPeriph_Driver/src/stm32f0xx_flash.c ****   *  @brief   FLASH Interface configuration functions 
 100:../Libraries/STM32F0xx_StdPeriph_Driver/src/stm32f0xx_flash.c ****  *
 101:../Libraries/STM32F0xx_StdPeriph_Driver/src/stm32f0xx_flash.c **** @verbatim   
 102:../Libraries/STM32F0xx_StdPeriph_Driver/src/stm32f0xx_flash.c ****  ===============================================================================
 103:../Libraries/STM32F0xx_StdPeriph_Driver/src/stm32f0xx_flash.c ****                ##### FLASH Interface configuration functions #####
 104:../Libraries/STM32F0xx_StdPeriph_Driver/src/stm32f0xx_flash.c ****  ===============================================================================
 105:../Libraries/STM32F0xx_StdPeriph_Driver/src/stm32f0xx_flash.c **** 
 106:../Libraries/STM32F0xx_StdPeriph_Driver/src/stm32f0xx_flash.c ****     [..] FLASH_Interface configuration_Functions, includes the following functions:
 107:../Libraries/STM32F0xx_StdPeriph_Driver/src/stm32f0xx_flash.c ****        (+) void FLASH_SetLatency(uint32_t FLASH_Latency):
 108:../Libraries/STM32F0xx_StdPeriph_Driver/src/stm32f0xx_flash.c ****     [..] To correctly read data from Flash memory, the number of wait states (LATENCY) 
 109:../Libraries/STM32F0xx_StdPeriph_Driver/src/stm32f0xx_flash.c ****      must be correctly programmed according to the frequency of the CPU clock (HCLK) 
 110:../Libraries/STM32F0xx_StdPeriph_Driver/src/stm32f0xx_flash.c ****     [..]
 111:../Libraries/STM32F0xx_StdPeriph_Driver/src/stm32f0xx_flash.c ****         +--------------------------------------------- +
 112:../Libraries/STM32F0xx_StdPeriph_Driver/src/stm32f0xx_flash.c ****         |  Wait states  |   HCLK clock frequency (MHz) |
 113:../Libraries/STM32F0xx_StdPeriph_Driver/src/stm32f0xx_flash.c ****         |---------------|------------------------------|
 114:../Libraries/STM32F0xx_StdPeriph_Driver/src/stm32f0xx_flash.c ****         |0WS(1CPU cycle)|       0 < HCLK <= 24         |
 115:../Libraries/STM32F0xx_StdPeriph_Driver/src/stm32f0xx_flash.c ****         |---------------|------------------------------|
 116:../Libraries/STM32F0xx_StdPeriph_Driver/src/stm32f0xx_flash.c ****         |1WS(2CPU cycle)|       24 < HCLK <= 48        |
 117:../Libraries/STM32F0xx_StdPeriph_Driver/src/stm32f0xx_flash.c ****         +----------------------------------------------+
 118:../Libraries/STM32F0xx_StdPeriph_Driver/src/stm32f0xx_flash.c ****     [..]
 119:../Libraries/STM32F0xx_StdPeriph_Driver/src/stm32f0xx_flash.c ****        (+) void FLASH_PrefetchBufferCmd(FunctionalState NewState);
 120:../Libraries/STM32F0xx_StdPeriph_Driver/src/stm32f0xx_flash.c ****     [..]
 121:../Libraries/STM32F0xx_StdPeriph_Driver/src/stm32f0xx_flash.c ****      All these functions don't need the unlock sequence.
 122:../Libraries/STM32F0xx_StdPeriph_Driver/src/stm32f0xx_flash.c **** 
 123:../Libraries/STM32F0xx_StdPeriph_Driver/src/stm32f0xx_flash.c **** @endverbatim
 124:../Libraries/STM32F0xx_StdPeriph_Driver/src/stm32f0xx_flash.c ****   * @{
 125:../Libraries/STM32F0xx_StdPeriph_Driver/src/stm32f0xx_flash.c ****   */
 126:../Libraries/STM32F0xx_StdPeriph_Driver/src/stm32f0xx_flash.c **** 
 127:../Libraries/STM32F0xx_StdPeriph_Driver/src/stm32f0xx_flash.c **** /**
 128:../Libraries/STM32F0xx_StdPeriph_Driver/src/stm32f0xx_flash.c ****   * @brief  Sets the code latency value.
 129:../Libraries/STM32F0xx_StdPeriph_Driver/src/stm32f0xx_flash.c ****   * @param  FLASH_Latency: specifies the FLASH Latency value.
 130:../Libraries/STM32F0xx_StdPeriph_Driver/src/stm32f0xx_flash.c ****   *          This parameter can be one of the following values:
 131:../Libraries/STM32F0xx_StdPeriph_Driver/src/stm32f0xx_flash.c ****   *             @arg FLASH_Latency_0: FLASH Zero Latency cycle
 132:../Libraries/STM32F0xx_StdPeriph_Driver/src/stm32f0xx_flash.c ****   *             @arg FLASH_Latency_1: FLASH One Latency cycle
 133:../Libraries/STM32F0xx_StdPeriph_Driver/src/stm32f0xx_flash.c ****   * @retval None
 134:../Libraries/STM32F0xx_StdPeriph_Driver/src/stm32f0xx_flash.c ****   */
 135:../Libraries/STM32F0xx_StdPeriph_Driver/src/stm32f0xx_flash.c **** void FLASH_SetLatency(uint32_t FLASH_Latency)
 136:../Libraries/STM32F0xx_StdPeriph_Driver/src/stm32f0xx_flash.c **** {
  26              		.loc 1 136 0
  27              		.cfi_startproc
  28              	.LVL0:
 137:../Libraries/STM32F0xx_StdPeriph_Driver/src/stm32f0xx_flash.c ****    uint32_t tmpreg = 0;
 138:../Libraries/STM32F0xx_StdPeriph_Driver/src/stm32f0xx_flash.c **** 
 139:../Libraries/STM32F0xx_StdPeriph_Driver/src/stm32f0xx_flash.c ****   /* Check the parameters */
 140:../Libraries/STM32F0xx_StdPeriph_Driver/src/stm32f0xx_flash.c ****   assert_param(IS_FLASH_LATENCY(FLASH_Latency));
 141:../Libraries/STM32F0xx_StdPeriph_Driver/src/stm32f0xx_flash.c **** 
 142:../Libraries/STM32F0xx_StdPeriph_Driver/src/stm32f0xx_flash.c ****   /* Read the ACR register */
 143:../Libraries/STM32F0xx_StdPeriph_Driver/src/stm32f0xx_flash.c ****   tmpreg = FLASH->ACR;  
  29              		.loc 1 143 0
  30 0000 034B     		ldr	r3, .L2
 144:../Libraries/STM32F0xx_StdPeriph_Driver/src/stm32f0xx_flash.c **** 
 145:../Libraries/STM32F0xx_StdPeriph_Driver/src/stm32f0xx_flash.c ****   /* Sets the Latency value */
 146:../Libraries/STM32F0xx_StdPeriph_Driver/src/stm32f0xx_flash.c ****   tmpreg &= (uint32_t) (~((uint32_t)FLASH_ACR_LATENCY));
  31              		.loc 1 146 0
  32 0002 0121     		mov	r1, #1
 143:../Libraries/STM32F0xx_StdPeriph_Driver/src/stm32f0xx_flash.c ****   tmpreg = FLASH->ACR;  
  33              		.loc 1 143 0
  34 0004 1A68     		ldr	r2, [r3]
  35              	.LVL1:
 147:../Libraries/STM32F0xx_StdPeriph_Driver/src/stm32f0xx_flash.c ****   tmpreg |= FLASH_Latency;
 148:../Libraries/STM32F0xx_StdPeriph_Driver/src/stm32f0xx_flash.c **** 
 149:../Libraries/STM32F0xx_StdPeriph_Driver/src/stm32f0xx_flash.c ****   /* Write the ACR register */
 150:../Libraries/STM32F0xx_StdPeriph_Driver/src/stm32f0xx_flash.c ****   FLASH->ACR = tmpreg;
 151:../Libraries/STM32F0xx_StdPeriph_Driver/src/stm32f0xx_flash.c **** }
  36              		.loc 1 151 0
  37              		@ sp needed for prologue
 146:../Libraries/STM32F0xx_StdPeriph_Driver/src/stm32f0xx_flash.c ****   tmpreg &= (uint32_t) (~((uint32_t)FLASH_ACR_LATENCY));
  38              		.loc 1 146 0
  39 0006 8A43     		bic	r2, r1
  40              	.LVL2:
 147:../Libraries/STM32F0xx_StdPeriph_Driver/src/stm32f0xx_flash.c ****   tmpreg |= FLASH_Latency;
  41              		.loc 1 147 0
  42 0008 1043     		orr	r0, r2
  43              	.LVL3:
 150:../Libraries/STM32F0xx_StdPeriph_Driver/src/stm32f0xx_flash.c ****   FLASH->ACR = tmpreg;
  44              		.loc 1 150 0
  45 000a 1860     		str	r0, [r3]
  46              		.loc 1 151 0
  47 000c 7047     		bx	lr
  48              	.L3:
  49 000e C046     		.align	2
  50              	.L2:
  51 0010 00200240 		.word	1073881088
  52              		.cfi_endproc
  53              	.LFE33:
  55              		.section	.text.FLASH_PrefetchBufferCmd,"ax",%progbits
  56              		.align	1
  57              		.global	FLASH_PrefetchBufferCmd
  58              		.code	16
  59              		.thumb_func
  61              	FLASH_PrefetchBufferCmd:
  62              	.LFB34:
 152:../Libraries/STM32F0xx_StdPeriph_Driver/src/stm32f0xx_flash.c **** 
 153:../Libraries/STM32F0xx_StdPeriph_Driver/src/stm32f0xx_flash.c **** /**
 154:../Libraries/STM32F0xx_StdPeriph_Driver/src/stm32f0xx_flash.c ****   * @brief  Enables or disables the Prefetch Buffer.
 155:../Libraries/STM32F0xx_StdPeriph_Driver/src/stm32f0xx_flash.c ****   * @param  NewState: new state of the FLASH prefetch buffer.
 156:../Libraries/STM32F0xx_StdPeriph_Driver/src/stm32f0xx_flash.c ****   *          This parameter can be: ENABLE or DISABLE. 
 157:../Libraries/STM32F0xx_StdPeriph_Driver/src/stm32f0xx_flash.c ****   * @retval None
 158:../Libraries/STM32F0xx_StdPeriph_Driver/src/stm32f0xx_flash.c ****   */
 159:../Libraries/STM32F0xx_StdPeriph_Driver/src/stm32f0xx_flash.c **** void FLASH_PrefetchBufferCmd(FunctionalState NewState)
 160:../Libraries/STM32F0xx_StdPeriph_Driver/src/stm32f0xx_flash.c **** {
  63              		.loc 1 160 0
  64              		.cfi_startproc
  65              	.LVL4:
  66 0000 054B     		ldr	r3, .L8
  67 0002 00B5     		push	{lr}
  68              	.LCFI0:
  69              		.cfi_def_cfa_offset 4
  70              		.cfi_offset 14, -4
  71 0004 1022     		mov	r2, #16
 161:../Libraries/STM32F0xx_StdPeriph_Driver/src/stm32f0xx_flash.c ****   /* Check the parameters */
 162:../Libraries/STM32F0xx_StdPeriph_Driver/src/stm32f0xx_flash.c ****   assert_param(IS_FUNCTIONAL_STATE(NewState));
 163:../Libraries/STM32F0xx_StdPeriph_Driver/src/stm32f0xx_flash.c **** 
 164:../Libraries/STM32F0xx_StdPeriph_Driver/src/stm32f0xx_flash.c ****   if(NewState != DISABLE)
 165:../Libraries/STM32F0xx_StdPeriph_Driver/src/stm32f0xx_flash.c ****   {
 166:../Libraries/STM32F0xx_StdPeriph_Driver/src/stm32f0xx_flash.c ****     FLASH->ACR |= FLASH_ACR_PRFTBE;
  72              		.loc 1 166 0
  73 0006 1968     		ldr	r1, [r3]
 164:../Libraries/STM32F0xx_StdPeriph_Driver/src/stm32f0xx_flash.c ****   if(NewState != DISABLE)
  74              		.loc 1 164 0
  75 0008 0028     		cmp	r0, #0
  76 000a 01D0     		beq	.L5
  77              		.loc 1 166 0
  78 000c 0A43     		orr	r2, r1
  79 000e 01E0     		b	.L7
  80              	.L5:
 167:../Libraries/STM32F0xx_StdPeriph_Driver/src/stm32f0xx_flash.c ****   }
 168:../Libraries/STM32F0xx_StdPeriph_Driver/src/stm32f0xx_flash.c ****   else
 169:../Libraries/STM32F0xx_StdPeriph_Driver/src/stm32f0xx_flash.c ****   {
 170:../Libraries/STM32F0xx_StdPeriph_Driver/src/stm32f0xx_flash.c ****     FLASH->ACR &= (uint32_t)(~((uint32_t)FLASH_ACR_PRFTBE));
  81              		.loc 1 170 0
  82 0010 9143     		bic	r1, r2
  83 0012 0A1C     		mov	r2, r1
  84              	.L7:
  85 0014 1A60     		str	r2, [r3]
 171:../Libraries/STM32F0xx_StdPeriph_Driver/src/stm32f0xx_flash.c ****   }
 172:../Libraries/STM32F0xx_StdPeriph_Driver/src/stm32f0xx_flash.c **** }
  86              		.loc 1 172 0
  87              		@ sp needed for prologue
  88 0016 00BD     		pop	{pc}
  89              	.L9:
  90              		.align	2
  91              	.L8:
  92 0018 00200240 		.word	1073881088
  93              		.cfi_endproc
  94              	.LFE34:
  96              		.section	.text.FLASH_GetPrefetchBufferStatus,"ax",%progbits
  97              		.align	1
  98              		.global	FLASH_GetPrefetchBufferStatus
  99              		.code	16
 100              		.thumb_func
 102              	FLASH_GetPrefetchBufferStatus:
 103              	.LFB35:
 173:../Libraries/STM32F0xx_StdPeriph_Driver/src/stm32f0xx_flash.c **** 
 174:../Libraries/STM32F0xx_StdPeriph_Driver/src/stm32f0xx_flash.c **** /**
 175:../Libraries/STM32F0xx_StdPeriph_Driver/src/stm32f0xx_flash.c ****   * @brief  Checks whether the FLASH Prefetch Buffer status is set or not.
 176:../Libraries/STM32F0xx_StdPeriph_Driver/src/stm32f0xx_flash.c ****   * @param  None
 177:../Libraries/STM32F0xx_StdPeriph_Driver/src/stm32f0xx_flash.c ****   * @retval FLASH Prefetch Buffer Status (SET or RESET).
 178:../Libraries/STM32F0xx_StdPeriph_Driver/src/stm32f0xx_flash.c ****   */
 179:../Libraries/STM32F0xx_StdPeriph_Driver/src/stm32f0xx_flash.c **** FlagStatus FLASH_GetPrefetchBufferStatus(void)
 180:../Libraries/STM32F0xx_StdPeriph_Driver/src/stm32f0xx_flash.c **** {
 104              		.loc 1 180 0
 105              		.cfi_startproc
 106              	.LVL5:
 181:../Libraries/STM32F0xx_StdPeriph_Driver/src/stm32f0xx_flash.c ****   FlagStatus bitstatus = RESET;
 182:../Libraries/STM32F0xx_StdPeriph_Driver/src/stm32f0xx_flash.c **** 
 183:../Libraries/STM32F0xx_StdPeriph_Driver/src/stm32f0xx_flash.c ****   if ((FLASH->ACR & FLASH_ACR_PRFTBS) != (uint32_t)RESET)
 107              		.loc 1 183 0
 108 0000 024B     		ldr	r3, .L11
 184:../Libraries/STM32F0xx_StdPeriph_Driver/src/stm32f0xx_flash.c ****   {
 185:../Libraries/STM32F0xx_StdPeriph_Driver/src/stm32f0xx_flash.c ****     bitstatus = SET;
 186:../Libraries/STM32F0xx_StdPeriph_Driver/src/stm32f0xx_flash.c ****   }
 187:../Libraries/STM32F0xx_StdPeriph_Driver/src/stm32f0xx_flash.c ****   else
 188:../Libraries/STM32F0xx_StdPeriph_Driver/src/stm32f0xx_flash.c ****   {
 189:../Libraries/STM32F0xx_StdPeriph_Driver/src/stm32f0xx_flash.c ****     bitstatus = RESET;
 190:../Libraries/STM32F0xx_StdPeriph_Driver/src/stm32f0xx_flash.c ****   }
 191:../Libraries/STM32F0xx_StdPeriph_Driver/src/stm32f0xx_flash.c ****   /* Return the new state of FLASH Prefetch Buffer Status (SET or RESET) */
 192:../Libraries/STM32F0xx_StdPeriph_Driver/src/stm32f0xx_flash.c ****   return bitstatus; 
 193:../Libraries/STM32F0xx_StdPeriph_Driver/src/stm32f0xx_flash.c **** }
 109              		.loc 1 193 0
 110              		@ sp needed for prologue
 183:../Libraries/STM32F0xx_StdPeriph_Driver/src/stm32f0xx_flash.c ****   if ((FLASH->ACR & FLASH_ACR_PRFTBS) != (uint32_t)RESET)
 111              		.loc 1 183 0
 112 0002 1868     		ldr	r0, [r3]
 113              	.LVL6:
 114 0004 8006     		lsl	r0, r0, #26
 115              	.LVL7:
 192:../Libraries/STM32F0xx_StdPeriph_Driver/src/stm32f0xx_flash.c ****   return bitstatus; 
 116              		.loc 1 192 0
 117 0006 C00F     		lsr	r0, r0, #31
 118              		.loc 1 193 0
 119 0008 7047     		bx	lr
 120              	.L12:
 121 000a C046     		.align	2
 122              	.L11:
 123 000c 00200240 		.word	1073881088
 124              		.cfi_endproc
 125              	.LFE35:
 127              		.section	.text.FLASH_Unlock,"ax",%progbits
 128              		.align	1
 129              		.global	FLASH_Unlock
 130              		.code	16
 131              		.thumb_func
 133              	FLASH_Unlock:
 134              	.LFB36:
 194:../Libraries/STM32F0xx_StdPeriph_Driver/src/stm32f0xx_flash.c **** 
 195:../Libraries/STM32F0xx_StdPeriph_Driver/src/stm32f0xx_flash.c **** /**
 196:../Libraries/STM32F0xx_StdPeriph_Driver/src/stm32f0xx_flash.c ****   * @}
 197:../Libraries/STM32F0xx_StdPeriph_Driver/src/stm32f0xx_flash.c ****   */
 198:../Libraries/STM32F0xx_StdPeriph_Driver/src/stm32f0xx_flash.c **** 
 199:../Libraries/STM32F0xx_StdPeriph_Driver/src/stm32f0xx_flash.c **** /** @defgroup FLASH_Group2 FLASH Memory Programming functions
 200:../Libraries/STM32F0xx_StdPeriph_Driver/src/stm32f0xx_flash.c ****  *  @brief   FLASH Memory Programming functions
 201:../Libraries/STM32F0xx_StdPeriph_Driver/src/stm32f0xx_flash.c ****  *
 202:../Libraries/STM32F0xx_StdPeriph_Driver/src/stm32f0xx_flash.c **** @verbatim   
 203:../Libraries/STM32F0xx_StdPeriph_Driver/src/stm32f0xx_flash.c ****  ===============================================================================
 204:../Libraries/STM32F0xx_StdPeriph_Driver/src/stm32f0xx_flash.c ****                 ##### FLASH Memory Programming functions #####
 205:../Libraries/STM32F0xx_StdPeriph_Driver/src/stm32f0xx_flash.c ****  ===============================================================================
 206:../Libraries/STM32F0xx_StdPeriph_Driver/src/stm32f0xx_flash.c **** 
 207:../Libraries/STM32F0xx_StdPeriph_Driver/src/stm32f0xx_flash.c ****     [..] The FLASH Memory Programming functions, includes the following functions:
 208:../Libraries/STM32F0xx_StdPeriph_Driver/src/stm32f0xx_flash.c ****        (+) void FLASH_Unlock(void);
 209:../Libraries/STM32F0xx_StdPeriph_Driver/src/stm32f0xx_flash.c ****        (+) void FLASH_Lock(void);
 210:../Libraries/STM32F0xx_StdPeriph_Driver/src/stm32f0xx_flash.c ****        (+) FLASH_Status FLASH_ErasePage(uint32_t Page_Address);
 211:../Libraries/STM32F0xx_StdPeriph_Driver/src/stm32f0xx_flash.c ****        (+) FLASH_Status FLASH_EraseAllPages(void);
 212:../Libraries/STM32F0xx_StdPeriph_Driver/src/stm32f0xx_flash.c ****        (+) FLASH_Status FLASH_ProgramWord(uint32_t Address, uint32_t Data);
 213:../Libraries/STM32F0xx_StdPeriph_Driver/src/stm32f0xx_flash.c ****        (+) FLASH_Status FLASH_ProgramHalfWord(uint32_t Address, uint16_t Data);
 214:../Libraries/STM32F0xx_StdPeriph_Driver/src/stm32f0xx_flash.c **** 
 215:../Libraries/STM32F0xx_StdPeriph_Driver/src/stm32f0xx_flash.c ****     [..] Any operation of erase or program should follow these steps:
 216:../Libraries/STM32F0xx_StdPeriph_Driver/src/stm32f0xx_flash.c ****        
 217:../Libraries/STM32F0xx_StdPeriph_Driver/src/stm32f0xx_flash.c ****        (#) Call the FLASH_Unlock() function to enable the flash control register and 
 218:../Libraries/STM32F0xx_StdPeriph_Driver/src/stm32f0xx_flash.c ****            program memory access
 219:../Libraries/STM32F0xx_StdPeriph_Driver/src/stm32f0xx_flash.c ****        (#) Call the desired function to erase page or program data
 220:../Libraries/STM32F0xx_StdPeriph_Driver/src/stm32f0xx_flash.c ****        (#) Call the FLASH_Lock() to disable the flash program memory access 
 221:../Libraries/STM32F0xx_StdPeriph_Driver/src/stm32f0xx_flash.c ****       (recommended to protect the FLASH memory against possible unwanted operation)
 222:../Libraries/STM32F0xx_StdPeriph_Driver/src/stm32f0xx_flash.c **** 
 223:../Libraries/STM32F0xx_StdPeriph_Driver/src/stm32f0xx_flash.c **** @endverbatim
 224:../Libraries/STM32F0xx_StdPeriph_Driver/src/stm32f0xx_flash.c ****   * @{
 225:../Libraries/STM32F0xx_StdPeriph_Driver/src/stm32f0xx_flash.c ****   */
 226:../Libraries/STM32F0xx_StdPeriph_Driver/src/stm32f0xx_flash.c **** 
 227:../Libraries/STM32F0xx_StdPeriph_Driver/src/stm32f0xx_flash.c **** /**
 228:../Libraries/STM32F0xx_StdPeriph_Driver/src/stm32f0xx_flash.c ****   * @brief  Unlocks the FLASH control register and program memory access.
 229:../Libraries/STM32F0xx_StdPeriph_Driver/src/stm32f0xx_flash.c ****   * @param  None
 230:../Libraries/STM32F0xx_StdPeriph_Driver/src/stm32f0xx_flash.c ****   * @retval None
 231:../Libraries/STM32F0xx_StdPeriph_Driver/src/stm32f0xx_flash.c ****   */
 232:../Libraries/STM32F0xx_StdPeriph_Driver/src/stm32f0xx_flash.c **** void FLASH_Unlock(void)
 233:../Libraries/STM32F0xx_StdPeriph_Driver/src/stm32f0xx_flash.c **** {
 135              		.loc 1 233 0
 136              		.cfi_startproc
 234:../Libraries/STM32F0xx_StdPeriph_Driver/src/stm32f0xx_flash.c ****   if((FLASH->CR & FLASH_CR_LOCK) != RESET)
 137              		.loc 1 234 0
 138 0000 044B     		ldr	r3, .L18
 233:../Libraries/STM32F0xx_StdPeriph_Driver/src/stm32f0xx_flash.c **** {
 139              		.loc 1 233 0
 140 0002 00B5     		push	{lr}
 141              	.LCFI1:
 142              		.cfi_def_cfa_offset 4
 143              		.cfi_offset 14, -4
 144              		.loc 1 234 0
 145 0004 1A69     		ldr	r2, [r3, #16]
 146 0006 1106     		lsl	r1, r2, #24
 147 0008 03D5     		bpl	.L13
 235:../Libraries/STM32F0xx_StdPeriph_Driver/src/stm32f0xx_flash.c ****   {
 236:../Libraries/STM32F0xx_StdPeriph_Driver/src/stm32f0xx_flash.c ****     /* Unlocking the program memory access */
 237:../Libraries/STM32F0xx_StdPeriph_Driver/src/stm32f0xx_flash.c ****     FLASH->KEYR = FLASH_FKEY1;
 148              		.loc 1 237 0
 149 000a 034A     		ldr	r2, .L18+4
 150 000c 5A60     		str	r2, [r3, #4]
 238:../Libraries/STM32F0xx_StdPeriph_Driver/src/stm32f0xx_flash.c ****     FLASH->KEYR = FLASH_FKEY2;
 151              		.loc 1 238 0
 152 000e 034A     		ldr	r2, .L18+8
 153 0010 5A60     		str	r2, [r3, #4]
 154              	.L13:
 239:../Libraries/STM32F0xx_StdPeriph_Driver/src/stm32f0xx_flash.c ****   }
 240:../Libraries/STM32F0xx_StdPeriph_Driver/src/stm32f0xx_flash.c **** }
 155              		.loc 1 240 0
 156              		@ sp needed for prologue
 157 0012 00BD     		pop	{pc}
 158              	.L19:
 159              		.align	2
 160              	.L18:
 161 0014 00200240 		.word	1073881088
 162 0018 23016745 		.word	1164378403
 163 001c AB89EFCD 		.word	-839939669
 164              		.cfi_endproc
 165              	.LFE36:
 167              		.section	.text.FLASH_Lock,"ax",%progbits
 168              		.align	1
 169              		.global	FLASH_Lock
 170              		.code	16
 171              		.thumb_func
 173              	FLASH_Lock:
 174              	.LFB37:
 241:../Libraries/STM32F0xx_StdPeriph_Driver/src/stm32f0xx_flash.c **** 
 242:../Libraries/STM32F0xx_StdPeriph_Driver/src/stm32f0xx_flash.c **** /**
 243:../Libraries/STM32F0xx_StdPeriph_Driver/src/stm32f0xx_flash.c ****   * @brief  Locks the Program memory access.
 244:../Libraries/STM32F0xx_StdPeriph_Driver/src/stm32f0xx_flash.c ****   * @param  None
 245:../Libraries/STM32F0xx_StdPeriph_Driver/src/stm32f0xx_flash.c ****   * @retval None
 246:../Libraries/STM32F0xx_StdPeriph_Driver/src/stm32f0xx_flash.c ****   */
 247:../Libraries/STM32F0xx_StdPeriph_Driver/src/stm32f0xx_flash.c **** void FLASH_Lock(void)
 248:../Libraries/STM32F0xx_StdPeriph_Driver/src/stm32f0xx_flash.c **** {
 175              		.loc 1 248 0
 176              		.cfi_startproc
 249:../Libraries/STM32F0xx_StdPeriph_Driver/src/stm32f0xx_flash.c ****   /* Set the LOCK Bit to lock the FLASH control register and program memory access */
 250:../Libraries/STM32F0xx_StdPeriph_Driver/src/stm32f0xx_flash.c ****   FLASH->CR |= FLASH_CR_LOCK;
 177              		.loc 1 250 0
 178 0000 024B     		ldr	r3, .L21
 179 0002 8021     		mov	r1, #128
 180 0004 1A69     		ldr	r2, [r3, #16]
 251:../Libraries/STM32F0xx_StdPeriph_Driver/src/stm32f0xx_flash.c **** }
 181              		.loc 1 251 0
 182              		@ sp needed for prologue
 250:../Libraries/STM32F0xx_StdPeriph_Driver/src/stm32f0xx_flash.c ****   FLASH->CR |= FLASH_CR_LOCK;
 183              		.loc 1 250 0
 184 0006 0A43     		orr	r2, r1
 185 0008 1A61     		str	r2, [r3, #16]
 186              		.loc 1 251 0
 187 000a 7047     		bx	lr
 188              	.L22:
 189              		.align	2
 190              	.L21:
 191 000c 00200240 		.word	1073881088
 192              		.cfi_endproc
 193              	.LFE37:
 195              		.section	.text.FLASH_OB_Unlock,"ax",%progbits
 196              		.align	1
 197              		.global	FLASH_OB_Unlock
 198              		.code	16
 199              		.thumb_func
 201              	FLASH_OB_Unlock:
 202              	.LFB42:
 252:../Libraries/STM32F0xx_StdPeriph_Driver/src/stm32f0xx_flash.c **** 
 253:../Libraries/STM32F0xx_StdPeriph_Driver/src/stm32f0xx_flash.c **** /**
 254:../Libraries/STM32F0xx_StdPeriph_Driver/src/stm32f0xx_flash.c ****   * @brief  Erases a specified page in program memory.
 255:../Libraries/STM32F0xx_StdPeriph_Driver/src/stm32f0xx_flash.c ****   * @note   To correctly run this function, the FLASH_Unlock() function must be called before.
 256:../Libraries/STM32F0xx_StdPeriph_Driver/src/stm32f0xx_flash.c ****   * @note   Call the FLASH_Lock() to disable the flash memory access (recommended
 257:../Libraries/STM32F0xx_StdPeriph_Driver/src/stm32f0xx_flash.c ****   *         to protect the FLASH memory against possible unwanted operation)
 258:../Libraries/STM32F0xx_StdPeriph_Driver/src/stm32f0xx_flash.c ****   * @param  Page_Address: The page address in program memory to be erased.
 259:../Libraries/STM32F0xx_StdPeriph_Driver/src/stm32f0xx_flash.c ****   * @note   A Page is erased in the Program memory only if the address to load 
 260:../Libraries/STM32F0xx_StdPeriph_Driver/src/stm32f0xx_flash.c ****   *         is the start address of a page (multiple of 1024 bytes).
 261:../Libraries/STM32F0xx_StdPeriph_Driver/src/stm32f0xx_flash.c ****   * @retval FLASH Status: The returned value can be: 
 262:../Libraries/STM32F0xx_StdPeriph_Driver/src/stm32f0xx_flash.c ****   *         FLASH_ERROR_PROGRAM, FLASH_ERROR_WRP, FLASH_COMPLETE or FLASH_TIMEOUT.
 263:../Libraries/STM32F0xx_StdPeriph_Driver/src/stm32f0xx_flash.c ****   */
 264:../Libraries/STM32F0xx_StdPeriph_Driver/src/stm32f0xx_flash.c **** FLASH_Status FLASH_ErasePage(uint32_t Page_Address)
 265:../Libraries/STM32F0xx_StdPeriph_Driver/src/stm32f0xx_flash.c **** {
 266:../Libraries/STM32F0xx_StdPeriph_Driver/src/stm32f0xx_flash.c ****   FLASH_Status status = FLASH_COMPLETE;
 267:../Libraries/STM32F0xx_StdPeriph_Driver/src/stm32f0xx_flash.c **** 
 268:../Libraries/STM32F0xx_StdPeriph_Driver/src/stm32f0xx_flash.c ****   /* Check the parameters */
 269:../Libraries/STM32F0xx_StdPeriph_Driver/src/stm32f0xx_flash.c ****   assert_param(IS_FLASH_PROGRAM_ADDRESS(Page_Address));
 270:../Libraries/STM32F0xx_StdPeriph_Driver/src/stm32f0xx_flash.c ****  
 271:../Libraries/STM32F0xx_StdPeriph_Driver/src/stm32f0xx_flash.c ****   /* Wait for last operation to be completed */
 272:../Libraries/STM32F0xx_StdPeriph_Driver/src/stm32f0xx_flash.c ****   status = FLASH_WaitForLastOperation(FLASH_ER_PRG_TIMEOUT);
 273:../Libraries/STM32F0xx_StdPeriph_Driver/src/stm32f0xx_flash.c ****   
 274:../Libraries/STM32F0xx_StdPeriph_Driver/src/stm32f0xx_flash.c ****   if(status == FLASH_COMPLETE)
 275:../Libraries/STM32F0xx_StdPeriph_Driver/src/stm32f0xx_flash.c ****   { 
 276:../Libraries/STM32F0xx_StdPeriph_Driver/src/stm32f0xx_flash.c ****     /* If the previous operation is completed, proceed to erase the page */
 277:../Libraries/STM32F0xx_StdPeriph_Driver/src/stm32f0xx_flash.c ****     FLASH->CR |= FLASH_CR_PER;
 278:../Libraries/STM32F0xx_StdPeriph_Driver/src/stm32f0xx_flash.c ****     FLASH->AR  = Page_Address;
 279:../Libraries/STM32F0xx_StdPeriph_Driver/src/stm32f0xx_flash.c ****     FLASH->CR |= FLASH_CR_STRT;
 280:../Libraries/STM32F0xx_StdPeriph_Driver/src/stm32f0xx_flash.c ****     
 281:../Libraries/STM32F0xx_StdPeriph_Driver/src/stm32f0xx_flash.c ****     /* Wait for last operation to be completed */
 282:../Libraries/STM32F0xx_StdPeriph_Driver/src/stm32f0xx_flash.c ****     status = FLASH_WaitForLastOperation(FLASH_ER_PRG_TIMEOUT);
 283:../Libraries/STM32F0xx_StdPeriph_Driver/src/stm32f0xx_flash.c ****     
 284:../Libraries/STM32F0xx_StdPeriph_Driver/src/stm32f0xx_flash.c ****     /* Disable the PER Bit */
 285:../Libraries/STM32F0xx_StdPeriph_Driver/src/stm32f0xx_flash.c ****     FLASH->CR &= ~FLASH_CR_PER;
 286:../Libraries/STM32F0xx_StdPeriph_Driver/src/stm32f0xx_flash.c ****   }
 287:../Libraries/STM32F0xx_StdPeriph_Driver/src/stm32f0xx_flash.c ****     
 288:../Libraries/STM32F0xx_StdPeriph_Driver/src/stm32f0xx_flash.c ****   /* Return the Erase Status */
 289:../Libraries/STM32F0xx_StdPeriph_Driver/src/stm32f0xx_flash.c ****   return status;
 290:../Libraries/STM32F0xx_StdPeriph_Driver/src/stm32f0xx_flash.c **** }
 291:../Libraries/STM32F0xx_StdPeriph_Driver/src/stm32f0xx_flash.c **** 
 292:../Libraries/STM32F0xx_StdPeriph_Driver/src/stm32f0xx_flash.c **** /**
 293:../Libraries/STM32F0xx_StdPeriph_Driver/src/stm32f0xx_flash.c ****   * @brief  Erases all FLASH pages.
 294:../Libraries/STM32F0xx_StdPeriph_Driver/src/stm32f0xx_flash.c ****   * @note   To correctly run this function, the FLASH_Unlock() function must be called before.
 295:../Libraries/STM32F0xx_StdPeriph_Driver/src/stm32f0xx_flash.c ****   * @note   Call the FLASH_Lock() to disable the flash memory access (recommended
 296:../Libraries/STM32F0xx_StdPeriph_Driver/src/stm32f0xx_flash.c ****   *         to protect the FLASH memory against possible unwanted operation)
 297:../Libraries/STM32F0xx_StdPeriph_Driver/src/stm32f0xx_flash.c ****   * @param  None
 298:../Libraries/STM32F0xx_StdPeriph_Driver/src/stm32f0xx_flash.c ****   * @retval FLASH Status: The returned value can be: FLASH_ERROR_PG,
 299:../Libraries/STM32F0xx_StdPeriph_Driver/src/stm32f0xx_flash.c ****   *         FLASH_ERROR_WRP, FLASH_COMPLETE or FLASH_TIMEOUT.
 300:../Libraries/STM32F0xx_StdPeriph_Driver/src/stm32f0xx_flash.c ****   */
 301:../Libraries/STM32F0xx_StdPeriph_Driver/src/stm32f0xx_flash.c **** FLASH_Status FLASH_EraseAllPages(void)
 302:../Libraries/STM32F0xx_StdPeriph_Driver/src/stm32f0xx_flash.c **** {
 303:../Libraries/STM32F0xx_StdPeriph_Driver/src/stm32f0xx_flash.c ****   FLASH_Status status = FLASH_COMPLETE;
 304:../Libraries/STM32F0xx_StdPeriph_Driver/src/stm32f0xx_flash.c **** 
 305:../Libraries/STM32F0xx_StdPeriph_Driver/src/stm32f0xx_flash.c ****   /* Wait for last operation to be completed */
 306:../Libraries/STM32F0xx_StdPeriph_Driver/src/stm32f0xx_flash.c ****   status = FLASH_WaitForLastOperation(FLASH_ER_PRG_TIMEOUT);
 307:../Libraries/STM32F0xx_StdPeriph_Driver/src/stm32f0xx_flash.c ****   
 308:../Libraries/STM32F0xx_StdPeriph_Driver/src/stm32f0xx_flash.c ****   if(status == FLASH_COMPLETE)
 309:../Libraries/STM32F0xx_StdPeriph_Driver/src/stm32f0xx_flash.c ****   {
 310:../Libraries/STM32F0xx_StdPeriph_Driver/src/stm32f0xx_flash.c ****     /* if the previous operation is completed, proceed to erase all pages */
 311:../Libraries/STM32F0xx_StdPeriph_Driver/src/stm32f0xx_flash.c ****      FLASH->CR |= FLASH_CR_MER;
 312:../Libraries/STM32F0xx_StdPeriph_Driver/src/stm32f0xx_flash.c ****      FLASH->CR |= FLASH_CR_STRT;
 313:../Libraries/STM32F0xx_StdPeriph_Driver/src/stm32f0xx_flash.c ****     
 314:../Libraries/STM32F0xx_StdPeriph_Driver/src/stm32f0xx_flash.c ****     /* Wait for last operation to be completed */
 315:../Libraries/STM32F0xx_StdPeriph_Driver/src/stm32f0xx_flash.c ****     status = FLASH_WaitForLastOperation(FLASH_ER_PRG_TIMEOUT);
 316:../Libraries/STM32F0xx_StdPeriph_Driver/src/stm32f0xx_flash.c **** 
 317:../Libraries/STM32F0xx_StdPeriph_Driver/src/stm32f0xx_flash.c ****     /* Disable the MER Bit */
 318:../Libraries/STM32F0xx_StdPeriph_Driver/src/stm32f0xx_flash.c ****     FLASH->CR &= ~FLASH_CR_MER;
 319:../Libraries/STM32F0xx_StdPeriph_Driver/src/stm32f0xx_flash.c ****   }
 320:../Libraries/STM32F0xx_StdPeriph_Driver/src/stm32f0xx_flash.c **** 
 321:../Libraries/STM32F0xx_StdPeriph_Driver/src/stm32f0xx_flash.c ****   /* Return the Erase Status */
 322:../Libraries/STM32F0xx_StdPeriph_Driver/src/stm32f0xx_flash.c ****   return status;
 323:../Libraries/STM32F0xx_StdPeriph_Driver/src/stm32f0xx_flash.c **** }
 324:../Libraries/STM32F0xx_StdPeriph_Driver/src/stm32f0xx_flash.c **** 
 325:../Libraries/STM32F0xx_StdPeriph_Driver/src/stm32f0xx_flash.c **** /**
 326:../Libraries/STM32F0xx_StdPeriph_Driver/src/stm32f0xx_flash.c ****   * @brief  Programs a word at a specified address.
 327:../Libraries/STM32F0xx_StdPeriph_Driver/src/stm32f0xx_flash.c ****   * @note   To correctly run this function, the FLASH_Unlock() function must be called before.
 328:../Libraries/STM32F0xx_StdPeriph_Driver/src/stm32f0xx_flash.c ****   * @note   Call the FLASH_Lock() to disable the flash memory access (recommended
 329:../Libraries/STM32F0xx_StdPeriph_Driver/src/stm32f0xx_flash.c ****   *         to protect the FLASH memory against possible unwanted operation)
 330:../Libraries/STM32F0xx_StdPeriph_Driver/src/stm32f0xx_flash.c ****   * @param  Address: specifies the address to be programmed.
 331:../Libraries/STM32F0xx_StdPeriph_Driver/src/stm32f0xx_flash.c ****   * @param  Data: specifies the data to be programmed.
 332:../Libraries/STM32F0xx_StdPeriph_Driver/src/stm32f0xx_flash.c ****   * @retval FLASH Status: The returned value can be: FLASH_ERROR_PG,
 333:../Libraries/STM32F0xx_StdPeriph_Driver/src/stm32f0xx_flash.c ****   *         FLASH_ERROR_WRP, FLASH_COMPLETE or FLASH_TIMEOUT. 
 334:../Libraries/STM32F0xx_StdPeriph_Driver/src/stm32f0xx_flash.c ****   */
 335:../Libraries/STM32F0xx_StdPeriph_Driver/src/stm32f0xx_flash.c **** FLASH_Status FLASH_ProgramWord(uint32_t Address, uint32_t Data)
 336:../Libraries/STM32F0xx_StdPeriph_Driver/src/stm32f0xx_flash.c **** {
 337:../Libraries/STM32F0xx_StdPeriph_Driver/src/stm32f0xx_flash.c ****   FLASH_Status status = FLASH_COMPLETE;
 338:../Libraries/STM32F0xx_StdPeriph_Driver/src/stm32f0xx_flash.c ****   __IO uint32_t tmp = 0;
 339:../Libraries/STM32F0xx_StdPeriph_Driver/src/stm32f0xx_flash.c **** 
 340:../Libraries/STM32F0xx_StdPeriph_Driver/src/stm32f0xx_flash.c ****   /* Check the parameters */
 341:../Libraries/STM32F0xx_StdPeriph_Driver/src/stm32f0xx_flash.c ****   assert_param(IS_FLASH_PROGRAM_ADDRESS(Address));
 342:../Libraries/STM32F0xx_StdPeriph_Driver/src/stm32f0xx_flash.c **** 
 343:../Libraries/STM32F0xx_StdPeriph_Driver/src/stm32f0xx_flash.c ****   /* Wait for last operation to be completed */
 344:../Libraries/STM32F0xx_StdPeriph_Driver/src/stm32f0xx_flash.c ****   status = FLASH_WaitForLastOperation(FLASH_ER_PRG_TIMEOUT);
 345:../Libraries/STM32F0xx_StdPeriph_Driver/src/stm32f0xx_flash.c ****   
 346:../Libraries/STM32F0xx_StdPeriph_Driver/src/stm32f0xx_flash.c ****   if(status == FLASH_COMPLETE)
 347:../Libraries/STM32F0xx_StdPeriph_Driver/src/stm32f0xx_flash.c ****   {
 348:../Libraries/STM32F0xx_StdPeriph_Driver/src/stm32f0xx_flash.c ****     /* If the previous operation is completed, proceed to program the new first 
 349:../Libraries/STM32F0xx_StdPeriph_Driver/src/stm32f0xx_flash.c ****     half word */
 350:../Libraries/STM32F0xx_StdPeriph_Driver/src/stm32f0xx_flash.c ****     FLASH->CR |= FLASH_CR_PG;
 351:../Libraries/STM32F0xx_StdPeriph_Driver/src/stm32f0xx_flash.c ****   
 352:../Libraries/STM32F0xx_StdPeriph_Driver/src/stm32f0xx_flash.c ****     *(__IO uint16_t*)Address = (uint16_t)Data;
 353:../Libraries/STM32F0xx_StdPeriph_Driver/src/stm32f0xx_flash.c ****     
 354:../Libraries/STM32F0xx_StdPeriph_Driver/src/stm32f0xx_flash.c ****     /* Wait for last operation to be completed */
 355:../Libraries/STM32F0xx_StdPeriph_Driver/src/stm32f0xx_flash.c ****     status = FLASH_WaitForLastOperation(FLASH_ER_PRG_TIMEOUT);
 356:../Libraries/STM32F0xx_StdPeriph_Driver/src/stm32f0xx_flash.c ****  
 357:../Libraries/STM32F0xx_StdPeriph_Driver/src/stm32f0xx_flash.c ****     if(status == FLASH_COMPLETE)
 358:../Libraries/STM32F0xx_StdPeriph_Driver/src/stm32f0xx_flash.c ****     {
 359:../Libraries/STM32F0xx_StdPeriph_Driver/src/stm32f0xx_flash.c ****       /* If the previous operation is completed, proceed to program the new second 
 360:../Libraries/STM32F0xx_StdPeriph_Driver/src/stm32f0xx_flash.c ****       half word */
 361:../Libraries/STM32F0xx_StdPeriph_Driver/src/stm32f0xx_flash.c ****       tmp = Address + 2;
 362:../Libraries/STM32F0xx_StdPeriph_Driver/src/stm32f0xx_flash.c **** 
 363:../Libraries/STM32F0xx_StdPeriph_Driver/src/stm32f0xx_flash.c ****       *(__IO uint16_t*) tmp = Data >> 16;
 364:../Libraries/STM32F0xx_StdPeriph_Driver/src/stm32f0xx_flash.c ****     
 365:../Libraries/STM32F0xx_StdPeriph_Driver/src/stm32f0xx_flash.c ****       /* Wait for last operation to be completed */
 366:../Libraries/STM32F0xx_StdPeriph_Driver/src/stm32f0xx_flash.c ****       status = FLASH_WaitForLastOperation(FLASH_ER_PRG_TIMEOUT);
 367:../Libraries/STM32F0xx_StdPeriph_Driver/src/stm32f0xx_flash.c ****         
 368:../Libraries/STM32F0xx_StdPeriph_Driver/src/stm32f0xx_flash.c ****       /* Disable the PG Bit */
 369:../Libraries/STM32F0xx_StdPeriph_Driver/src/stm32f0xx_flash.c ****       FLASH->CR &= ~FLASH_CR_PG;
 370:../Libraries/STM32F0xx_StdPeriph_Driver/src/stm32f0xx_flash.c ****     }
 371:../Libraries/STM32F0xx_StdPeriph_Driver/src/stm32f0xx_flash.c ****     else
 372:../Libraries/STM32F0xx_StdPeriph_Driver/src/stm32f0xx_flash.c ****     {
 373:../Libraries/STM32F0xx_StdPeriph_Driver/src/stm32f0xx_flash.c ****       /* Disable the PG Bit */
 374:../Libraries/STM32F0xx_StdPeriph_Driver/src/stm32f0xx_flash.c ****       FLASH->CR &= ~FLASH_CR_PG;
 375:../Libraries/STM32F0xx_StdPeriph_Driver/src/stm32f0xx_flash.c ****     }
 376:../Libraries/STM32F0xx_StdPeriph_Driver/src/stm32f0xx_flash.c ****   }
 377:../Libraries/STM32F0xx_StdPeriph_Driver/src/stm32f0xx_flash.c ****    
 378:../Libraries/STM32F0xx_StdPeriph_Driver/src/stm32f0xx_flash.c ****   /* Return the Program Status */
 379:../Libraries/STM32F0xx_StdPeriph_Driver/src/stm32f0xx_flash.c ****   return status;
 380:../Libraries/STM32F0xx_StdPeriph_Driver/src/stm32f0xx_flash.c **** }
 381:../Libraries/STM32F0xx_StdPeriph_Driver/src/stm32f0xx_flash.c **** 
 382:../Libraries/STM32F0xx_StdPeriph_Driver/src/stm32f0xx_flash.c **** /**
 383:../Libraries/STM32F0xx_StdPeriph_Driver/src/stm32f0xx_flash.c ****   * @brief  Programs a half word at a specified address.
 384:../Libraries/STM32F0xx_StdPeriph_Driver/src/stm32f0xx_flash.c ****   * @note   To correctly run this function, the FLASH_Unlock() function must be called before.
 385:../Libraries/STM32F0xx_StdPeriph_Driver/src/stm32f0xx_flash.c ****   * @note   Call the FLASH_Lock() to disable the flash memory access (recommended
 386:../Libraries/STM32F0xx_StdPeriph_Driver/src/stm32f0xx_flash.c ****   *         to protect the FLASH memory against possible unwanted operation)
 387:../Libraries/STM32F0xx_StdPeriph_Driver/src/stm32f0xx_flash.c ****   * @param  Address: specifies the address to be programmed.
 388:../Libraries/STM32F0xx_StdPeriph_Driver/src/stm32f0xx_flash.c ****   * @param  Data: specifies the data to be programmed.
 389:../Libraries/STM32F0xx_StdPeriph_Driver/src/stm32f0xx_flash.c ****   * @retval FLASH Status: The returned value can be: FLASH_ERROR_PG,
 390:../Libraries/STM32F0xx_StdPeriph_Driver/src/stm32f0xx_flash.c ****   *         FLASH_ERROR_WRP, FLASH_COMPLETE or FLASH_TIMEOUT. 
 391:../Libraries/STM32F0xx_StdPeriph_Driver/src/stm32f0xx_flash.c ****   */
 392:../Libraries/STM32F0xx_StdPeriph_Driver/src/stm32f0xx_flash.c **** FLASH_Status FLASH_ProgramHalfWord(uint32_t Address, uint16_t Data)
 393:../Libraries/STM32F0xx_StdPeriph_Driver/src/stm32f0xx_flash.c **** {
 394:../Libraries/STM32F0xx_StdPeriph_Driver/src/stm32f0xx_flash.c ****   FLASH_Status status = FLASH_COMPLETE;
 395:../Libraries/STM32F0xx_StdPeriph_Driver/src/stm32f0xx_flash.c **** 
 396:../Libraries/STM32F0xx_StdPeriph_Driver/src/stm32f0xx_flash.c ****   /* Check the parameters */
 397:../Libraries/STM32F0xx_StdPeriph_Driver/src/stm32f0xx_flash.c ****   assert_param(IS_FLASH_PROGRAM_ADDRESS(Address));
 398:../Libraries/STM32F0xx_StdPeriph_Driver/src/stm32f0xx_flash.c **** 
 399:../Libraries/STM32F0xx_StdPeriph_Driver/src/stm32f0xx_flash.c ****   /* Wait for last operation to be completed */
 400:../Libraries/STM32F0xx_StdPeriph_Driver/src/stm32f0xx_flash.c ****   status = FLASH_WaitForLastOperation(FLASH_ER_PRG_TIMEOUT);
 401:../Libraries/STM32F0xx_StdPeriph_Driver/src/stm32f0xx_flash.c ****   
 402:../Libraries/STM32F0xx_StdPeriph_Driver/src/stm32f0xx_flash.c ****   if(status == FLASH_COMPLETE)
 403:../Libraries/STM32F0xx_StdPeriph_Driver/src/stm32f0xx_flash.c ****   {
 404:../Libraries/STM32F0xx_StdPeriph_Driver/src/stm32f0xx_flash.c ****     /* If the previous operation is completed, proceed to program the new data */
 405:../Libraries/STM32F0xx_StdPeriph_Driver/src/stm32f0xx_flash.c ****     FLASH->CR |= FLASH_CR_PG;
 406:../Libraries/STM32F0xx_StdPeriph_Driver/src/stm32f0xx_flash.c ****   
 407:../Libraries/STM32F0xx_StdPeriph_Driver/src/stm32f0xx_flash.c ****     *(__IO uint16_t*)Address = Data;
 408:../Libraries/STM32F0xx_StdPeriph_Driver/src/stm32f0xx_flash.c **** 
 409:../Libraries/STM32F0xx_StdPeriph_Driver/src/stm32f0xx_flash.c ****     /* Wait for last operation to be completed */
 410:../Libraries/STM32F0xx_StdPeriph_Driver/src/stm32f0xx_flash.c ****     status = FLASH_WaitForLastOperation(FLASH_ER_PRG_TIMEOUT);
 411:../Libraries/STM32F0xx_StdPeriph_Driver/src/stm32f0xx_flash.c ****     
 412:../Libraries/STM32F0xx_StdPeriph_Driver/src/stm32f0xx_flash.c ****     /* Disable the PG Bit */
 413:../Libraries/STM32F0xx_StdPeriph_Driver/src/stm32f0xx_flash.c ****     FLASH->CR &= ~FLASH_CR_PG;
 414:../Libraries/STM32F0xx_StdPeriph_Driver/src/stm32f0xx_flash.c ****   } 
 415:../Libraries/STM32F0xx_StdPeriph_Driver/src/stm32f0xx_flash.c ****   
 416:../Libraries/STM32F0xx_StdPeriph_Driver/src/stm32f0xx_flash.c ****   /* Return the Program Status */
 417:../Libraries/STM32F0xx_StdPeriph_Driver/src/stm32f0xx_flash.c ****   return status;
 418:../Libraries/STM32F0xx_StdPeriph_Driver/src/stm32f0xx_flash.c **** }
 419:../Libraries/STM32F0xx_StdPeriph_Driver/src/stm32f0xx_flash.c **** 
 420:../Libraries/STM32F0xx_StdPeriph_Driver/src/stm32f0xx_flash.c **** /**
 421:../Libraries/STM32F0xx_StdPeriph_Driver/src/stm32f0xx_flash.c ****   * @}
 422:../Libraries/STM32F0xx_StdPeriph_Driver/src/stm32f0xx_flash.c ****   */
 423:../Libraries/STM32F0xx_StdPeriph_Driver/src/stm32f0xx_flash.c ****   
 424:../Libraries/STM32F0xx_StdPeriph_Driver/src/stm32f0xx_flash.c **** /** @defgroup FLASH_Group3 Option Bytes Programming functions
 425:../Libraries/STM32F0xx_StdPeriph_Driver/src/stm32f0xx_flash.c ****  *  @brief   Option Bytes Programming functions 
 426:../Libraries/STM32F0xx_StdPeriph_Driver/src/stm32f0xx_flash.c ****  *
 427:../Libraries/STM32F0xx_StdPeriph_Driver/src/stm32f0xx_flash.c **** @verbatim   
 428:../Libraries/STM32F0xx_StdPeriph_Driver/src/stm32f0xx_flash.c ****  ===============================================================================
 429:../Libraries/STM32F0xx_StdPeriph_Driver/src/stm32f0xx_flash.c ****                 ##### Option Bytes Programming functions #####
 430:../Libraries/STM32F0xx_StdPeriph_Driver/src/stm32f0xx_flash.c ****  ===============================================================================
 431:../Libraries/STM32F0xx_StdPeriph_Driver/src/stm32f0xx_flash.c **** 
 432:../Libraries/STM32F0xx_StdPeriph_Driver/src/stm32f0xx_flash.c ****     [..] The FLASH_Option Bytes Programming_functions, includes the following functions:
 433:../Libraries/STM32F0xx_StdPeriph_Driver/src/stm32f0xx_flash.c ****        (+) void FLASH_OB_Unlock(void);
 434:../Libraries/STM32F0xx_StdPeriph_Driver/src/stm32f0xx_flash.c ****        (+) void FLASH_OB_Lock(void);
 435:../Libraries/STM32F0xx_StdPeriph_Driver/src/stm32f0xx_flash.c ****        (+) void FLASH_OB_Launch(void);
 436:../Libraries/STM32F0xx_StdPeriph_Driver/src/stm32f0xx_flash.c ****        (+) FLASH_Status FLASH_OB_Erase(void);
 437:../Libraries/STM32F0xx_StdPeriph_Driver/src/stm32f0xx_flash.c ****        (+) FLASH_Status FLASH_OB_WRPConfig(uint32_t OB_WRP, FunctionalState NewState);
 438:../Libraries/STM32F0xx_StdPeriph_Driver/src/stm32f0xx_flash.c ****        (+) FLASH_Status FLASH_OB_RDPConfig(uint8_t OB_RDP);
 439:../Libraries/STM32F0xx_StdPeriph_Driver/src/stm32f0xx_flash.c ****        (+) FLASH_Status FLASH_OB_UserConfig(uint8_t OB_IWDG, uint8_t OB_STOP, uint8_t OB_STDBY);
 440:../Libraries/STM32F0xx_StdPeriph_Driver/src/stm32f0xx_flash.c ****        (+) FLASH_Status FLASH_OB_BOOTConfig(uint8_t OB_BOOT1);
 441:../Libraries/STM32F0xx_StdPeriph_Driver/src/stm32f0xx_flash.c ****        (+) FLASH_Status FLASH_OB_VDDAConfig(uint8_t OB_VDDA_ANALOG);
 442:../Libraries/STM32F0xx_StdPeriph_Driver/src/stm32f0xx_flash.c ****        (+) FLASH_Status FLASH_OB_WriteUser(uint8_t OB_USER);
 443:../Libraries/STM32F0xx_StdPeriph_Driver/src/stm32f0xx_flash.c ****        (+) FLASH_OB_ProgramData(uint32_t Address, uint8_t Data);
 444:../Libraries/STM32F0xx_StdPeriph_Driver/src/stm32f0xx_flash.c ****        (+) uint8_t FLASH_OB_GetUser(void);
 445:../Libraries/STM32F0xx_StdPeriph_Driver/src/stm32f0xx_flash.c ****        (+) uint32_t FLASH_OB_GetWRP(void);
 446:../Libraries/STM32F0xx_StdPeriph_Driver/src/stm32f0xx_flash.c ****        (+) FlagStatus FLASH_OB_GetRDP(void);
 447:../Libraries/STM32F0xx_StdPeriph_Driver/src/stm32f0xx_flash.c **** 
 448:../Libraries/STM32F0xx_StdPeriph_Driver/src/stm32f0xx_flash.c ****     [..] Any operation of erase or program should follow these steps:
 449:../Libraries/STM32F0xx_StdPeriph_Driver/src/stm32f0xx_flash.c **** 
 450:../Libraries/STM32F0xx_StdPeriph_Driver/src/stm32f0xx_flash.c ****    (#) Call the FLASH_OB_Unlock() function to enable the Option Bytes registers access
 451:../Libraries/STM32F0xx_StdPeriph_Driver/src/stm32f0xx_flash.c **** 
 452:../Libraries/STM32F0xx_StdPeriph_Driver/src/stm32f0xx_flash.c ****    (#) Call one or several functions to program the desired option bytes 
 453:../Libraries/STM32F0xx_StdPeriph_Driver/src/stm32f0xx_flash.c ****       (++) FLASH_Status FLASH_OB_RDPConfig(uint8_t OB_RDP) => to set the desired read Protection Le
 454:../Libraries/STM32F0xx_StdPeriph_Driver/src/stm32f0xx_flash.c ****       (++) FLASH_Status FLASH_OB_WRPConfig(uint32_t OB_WRP, FunctionalState NewState) 
 455:../Libraries/STM32F0xx_StdPeriph_Driver/src/stm32f0xx_flash.c ****            => to Enable/Disable the desired sector write protection
 456:../Libraries/STM32F0xx_StdPeriph_Driver/src/stm32f0xx_flash.c ****       (++) FLASH_Status FLASH_OB_UserConfig(uint8_t OB_IWDG, uint8_t OB_STOP, uint8_t OB_STDBY) 
 457:../Libraries/STM32F0xx_StdPeriph_Driver/src/stm32f0xx_flash.c ****            => to configure the user option Bytes: IWDG, STOP and the Standby.
 458:../Libraries/STM32F0xx_StdPeriph_Driver/src/stm32f0xx_flash.c ****       (++) FLASH_Status FLASH_OB_BOOTConfig(uint8_t OB_BOOT1)
 459:../Libraries/STM32F0xx_StdPeriph_Driver/src/stm32f0xx_flash.c ****            => to set or reset BOOT1 
 460:../Libraries/STM32F0xx_StdPeriph_Driver/src/stm32f0xx_flash.c ****       (++) FLASH_Status FLASH_OB_VDDAConfig(uint8_t OB_VDDA_ANALOG) 
 461:../Libraries/STM32F0xx_StdPeriph_Driver/src/stm32f0xx_flash.c ****            => to enable or disable the VDDA Analog Monitoring 			 
 462:../Libraries/STM32F0xx_StdPeriph_Driver/src/stm32f0xx_flash.c ****       (++) You can write all User Options bytes at once using a single function
 463:../Libraries/STM32F0xx_StdPeriph_Driver/src/stm32f0xx_flash.c ****            by calling FLASH_Status FLASH_OB_WriteUser(uint8_t OB_USER)
 464:../Libraries/STM32F0xx_StdPeriph_Driver/src/stm32f0xx_flash.c ****       (++) FLASH_OB_ProgramData(uint32_t Address, uint8_t Data) to program the 
 465:../Libraries/STM32F0xx_StdPeriph_Driver/src/stm32f0xx_flash.c ****            two half word in the option bytes
 466:../Libraries/STM32F0xx_StdPeriph_Driver/src/stm32f0xx_flash.c **** 
 467:../Libraries/STM32F0xx_StdPeriph_Driver/src/stm32f0xx_flash.c ****    (#) Once all needed option bytes to be programmed are correctly written, call the
 468:../Libraries/STM32F0xx_StdPeriph_Driver/src/stm32f0xx_flash.c ****       FLASH_OB_Launch(void) function to launch the Option Bytes programming process.
 469:../Libraries/STM32F0xx_StdPeriph_Driver/src/stm32f0xx_flash.c **** 
 470:../Libraries/STM32F0xx_StdPeriph_Driver/src/stm32f0xx_flash.c ****    (#) Call the FLASH_OB_Lock() to disable the Option Bytes registers access (recommended
 471:../Libraries/STM32F0xx_StdPeriph_Driver/src/stm32f0xx_flash.c ****       to protect the option Bytes against possible unwanted operations)
 472:../Libraries/STM32F0xx_StdPeriph_Driver/src/stm32f0xx_flash.c **** 
 473:../Libraries/STM32F0xx_StdPeriph_Driver/src/stm32f0xx_flash.c **** @endverbatim
 474:../Libraries/STM32F0xx_StdPeriph_Driver/src/stm32f0xx_flash.c ****   * @{
 475:../Libraries/STM32F0xx_StdPeriph_Driver/src/stm32f0xx_flash.c ****   */
 476:../Libraries/STM32F0xx_StdPeriph_Driver/src/stm32f0xx_flash.c **** 
 477:../Libraries/STM32F0xx_StdPeriph_Driver/src/stm32f0xx_flash.c **** /**
 478:../Libraries/STM32F0xx_StdPeriph_Driver/src/stm32f0xx_flash.c ****   * @brief  Unlocks the option bytes block access.
 479:../Libraries/STM32F0xx_StdPeriph_Driver/src/stm32f0xx_flash.c ****   * @param  None
 480:../Libraries/STM32F0xx_StdPeriph_Driver/src/stm32f0xx_flash.c ****   * @retval None
 481:../Libraries/STM32F0xx_StdPeriph_Driver/src/stm32f0xx_flash.c ****   */
 482:../Libraries/STM32F0xx_StdPeriph_Driver/src/stm32f0xx_flash.c **** void FLASH_OB_Unlock(void)
 483:../Libraries/STM32F0xx_StdPeriph_Driver/src/stm32f0xx_flash.c **** {
 203              		.loc 1 483 0
 204              		.cfi_startproc
 484:../Libraries/STM32F0xx_StdPeriph_Driver/src/stm32f0xx_flash.c ****   if((FLASH->CR & FLASH_CR_OPTWRE) == RESET)
 205              		.loc 1 484 0
 206 0000 044B     		ldr	r3, .L25
 483:../Libraries/STM32F0xx_StdPeriph_Driver/src/stm32f0xx_flash.c **** {
 207              		.loc 1 483 0
 208 0002 00B5     		push	{lr}
 209              	.LCFI2:
 210              		.cfi_def_cfa_offset 4
 211              		.cfi_offset 14, -4
 212              		.loc 1 484 0
 213 0004 1A69     		ldr	r2, [r3, #16]
 214 0006 9105     		lsl	r1, r2, #22
 215 0008 03D4     		bmi	.L23
 485:../Libraries/STM32F0xx_StdPeriph_Driver/src/stm32f0xx_flash.c ****   { 
 486:../Libraries/STM32F0xx_StdPeriph_Driver/src/stm32f0xx_flash.c ****     /* Unlocking the option bytes block access */
 487:../Libraries/STM32F0xx_StdPeriph_Driver/src/stm32f0xx_flash.c ****     FLASH->OPTKEYR = FLASH_OPTKEY1;
 216              		.loc 1 487 0
 217 000a 034A     		ldr	r2, .L25+4
 218 000c 9A60     		str	r2, [r3, #8]
 488:../Libraries/STM32F0xx_StdPeriph_Driver/src/stm32f0xx_flash.c ****     FLASH->OPTKEYR = FLASH_OPTKEY2;
 219              		.loc 1 488 0
 220 000e 034A     		ldr	r2, .L25+8
 221 0010 9A60     		str	r2, [r3, #8]
 222              	.L23:
 489:../Libraries/STM32F0xx_StdPeriph_Driver/src/stm32f0xx_flash.c ****   }
 490:../Libraries/STM32F0xx_StdPeriph_Driver/src/stm32f0xx_flash.c **** }
 223              		.loc 1 490 0
 224              		@ sp needed for prologue
 225 0012 00BD     		pop	{pc}
 226              	.L26:
 227              		.align	2
 228              	.L25:
 229 0014 00200240 		.word	1073881088
 230 0018 23016745 		.word	1164378403
 231 001c AB89EFCD 		.word	-839939669
 232              		.cfi_endproc
 233              	.LFE42:
 235              		.section	.text.FLASH_OB_Lock,"ax",%progbits
 236              		.align	1
 237              		.global	FLASH_OB_Lock
 238              		.code	16
 239              		.thumb_func
 241              	FLASH_OB_Lock:
 242              	.LFB43:
 491:../Libraries/STM32F0xx_StdPeriph_Driver/src/stm32f0xx_flash.c **** 
 492:../Libraries/STM32F0xx_StdPeriph_Driver/src/stm32f0xx_flash.c **** /**
 493:../Libraries/STM32F0xx_StdPeriph_Driver/src/stm32f0xx_flash.c ****   * @brief  Locks the option bytes block access.
 494:../Libraries/STM32F0xx_StdPeriph_Driver/src/stm32f0xx_flash.c ****   * @param  None
 495:../Libraries/STM32F0xx_StdPeriph_Driver/src/stm32f0xx_flash.c ****   * @retval None
 496:../Libraries/STM32F0xx_StdPeriph_Driver/src/stm32f0xx_flash.c ****   */
 497:../Libraries/STM32F0xx_StdPeriph_Driver/src/stm32f0xx_flash.c **** void FLASH_OB_Lock(void)
 498:../Libraries/STM32F0xx_StdPeriph_Driver/src/stm32f0xx_flash.c **** {
 243              		.loc 1 498 0
 244              		.cfi_startproc
 499:../Libraries/STM32F0xx_StdPeriph_Driver/src/stm32f0xx_flash.c ****   /* Set the OPTWREN Bit to lock the option bytes block access */
 500:../Libraries/STM32F0xx_StdPeriph_Driver/src/stm32f0xx_flash.c ****   FLASH->CR &= ~FLASH_CR_OPTWRE;
 245              		.loc 1 500 0
 246 0000 024B     		ldr	r3, .L28
 247 0002 034A     		ldr	r2, .L28+4
 248 0004 1969     		ldr	r1, [r3, #16]
 501:../Libraries/STM32F0xx_StdPeriph_Driver/src/stm32f0xx_flash.c **** }
 249              		.loc 1 501 0
 250              		@ sp needed for prologue
 500:../Libraries/STM32F0xx_StdPeriph_Driver/src/stm32f0xx_flash.c ****   FLASH->CR &= ~FLASH_CR_OPTWRE;
 251              		.loc 1 500 0
 252 0006 0A40     		and	r2, r1
 253 0008 1A61     		str	r2, [r3, #16]
 254              		.loc 1 501 0
 255 000a 7047     		bx	lr
 256              	.L29:
 257              		.align	2
 258              	.L28:
 259 000c 00200240 		.word	1073881088
 260 0010 FFFDFFFF 		.word	-513
 261              		.cfi_endproc
 262              	.LFE43:
 264              		.section	.text.FLASH_OB_Launch,"ax",%progbits
 265              		.align	1
 266              		.global	FLASH_OB_Launch
 267              		.code	16
 268              		.thumb_func
 270              	FLASH_OB_Launch:
 271              	.LFB44:
 502:../Libraries/STM32F0xx_StdPeriph_Driver/src/stm32f0xx_flash.c **** 
 503:../Libraries/STM32F0xx_StdPeriph_Driver/src/stm32f0xx_flash.c **** /**
 504:../Libraries/STM32F0xx_StdPeriph_Driver/src/stm32f0xx_flash.c ****   * @brief  Launch the option byte loading.
 505:../Libraries/STM32F0xx_StdPeriph_Driver/src/stm32f0xx_flash.c ****   * @param  None
 506:../Libraries/STM32F0xx_StdPeriph_Driver/src/stm32f0xx_flash.c ****   * @retval None
 507:../Libraries/STM32F0xx_StdPeriph_Driver/src/stm32f0xx_flash.c ****   */
 508:../Libraries/STM32F0xx_StdPeriph_Driver/src/stm32f0xx_flash.c **** void FLASH_OB_Launch(void)
 509:../Libraries/STM32F0xx_StdPeriph_Driver/src/stm32f0xx_flash.c **** {
 272              		.loc 1 509 0
 273              		.cfi_startproc
 510:../Libraries/STM32F0xx_StdPeriph_Driver/src/stm32f0xx_flash.c ****   /* Set the OBL_Launch bit to launch the option byte loading */
 511:../Libraries/STM32F0xx_StdPeriph_Driver/src/stm32f0xx_flash.c ****   FLASH->CR |= FLASH_CR_OBL_LAUNCH;
 274              		.loc 1 511 0
 275 0000 034B     		ldr	r3, .L31
 276 0002 8022     		mov	r2, #128
 277 0004 1969     		ldr	r1, [r3, #16]
 278 0006 9201     		lsl	r2, r2, #6
 279 0008 0A43     		orr	r2, r1
 280 000a 1A61     		str	r2, [r3, #16]
 512:../Libraries/STM32F0xx_StdPeriph_Driver/src/stm32f0xx_flash.c **** }
 281              		.loc 1 512 0
 282              		@ sp needed for prologue
 283 000c 7047     		bx	lr
 284              	.L32:
 285 000e C046     		.align	2
 286              	.L31:
 287 0010 00200240 		.word	1073881088
 288              		.cfi_endproc
 289              	.LFE44:
 291              		.section	.text.FLASH_OB_GetUser,"ax",%progbits
 292              		.align	1
 293              		.global	FLASH_OB_GetUser
 294              		.code	16
 295              		.thumb_func
 297              	FLASH_OB_GetUser:
 298              	.LFB56:
 513:../Libraries/STM32F0xx_StdPeriph_Driver/src/stm32f0xx_flash.c **** 
 514:../Libraries/STM32F0xx_StdPeriph_Driver/src/stm32f0xx_flash.c **** /**
 515:../Libraries/STM32F0xx_StdPeriph_Driver/src/stm32f0xx_flash.c ****   * @brief  Erases the FLASH option bytes.
 516:../Libraries/STM32F0xx_StdPeriph_Driver/src/stm32f0xx_flash.c ****   * @note   To correctly run this function, the FLASH_OB_Unlock() function must be called before.
 517:../Libraries/STM32F0xx_StdPeriph_Driver/src/stm32f0xx_flash.c ****   * @note   Call the FLASH_OB_Lock() to disable the flash control register access and the option
 518:../Libraries/STM32F0xx_StdPeriph_Driver/src/stm32f0xx_flash.c ****   *         bytes (recommended to protect the FLASH memory against possible unwanted operation)
 519:../Libraries/STM32F0xx_StdPeriph_Driver/src/stm32f0xx_flash.c ****   * @note   This functions erases all option bytes except the Read protection (RDP).
 520:../Libraries/STM32F0xx_StdPeriph_Driver/src/stm32f0xx_flash.c ****   * @param  None
 521:../Libraries/STM32F0xx_StdPeriph_Driver/src/stm32f0xx_flash.c ****   * @retval FLASH Status: The returned value can be: FLASH_ERROR_PG,
 522:../Libraries/STM32F0xx_StdPeriph_Driver/src/stm32f0xx_flash.c ****   *         FLASH_ERROR_WRP, FLASH_COMPLETE or FLASH_TIMEOUT.
 523:../Libraries/STM32F0xx_StdPeriph_Driver/src/stm32f0xx_flash.c ****   */
 524:../Libraries/STM32F0xx_StdPeriph_Driver/src/stm32f0xx_flash.c **** FLASH_Status FLASH_OB_Erase(void)
 525:../Libraries/STM32F0xx_StdPeriph_Driver/src/stm32f0xx_flash.c **** {
 526:../Libraries/STM32F0xx_StdPeriph_Driver/src/stm32f0xx_flash.c ****   uint16_t rdptmp = OB_RDP_Level_0;
 527:../Libraries/STM32F0xx_StdPeriph_Driver/src/stm32f0xx_flash.c **** 
 528:../Libraries/STM32F0xx_StdPeriph_Driver/src/stm32f0xx_flash.c ****   FLASH_Status status = FLASH_COMPLETE;
 529:../Libraries/STM32F0xx_StdPeriph_Driver/src/stm32f0xx_flash.c **** 
 530:../Libraries/STM32F0xx_StdPeriph_Driver/src/stm32f0xx_flash.c ****   /* Get the actual read protection Option Byte value */ 
 531:../Libraries/STM32F0xx_StdPeriph_Driver/src/stm32f0xx_flash.c ****   if(FLASH_OB_GetRDP() != RESET)
 532:../Libraries/STM32F0xx_StdPeriph_Driver/src/stm32f0xx_flash.c ****   {
 533:../Libraries/STM32F0xx_StdPeriph_Driver/src/stm32f0xx_flash.c ****     rdptmp = 0x00;  
 534:../Libraries/STM32F0xx_StdPeriph_Driver/src/stm32f0xx_flash.c ****   }
 535:../Libraries/STM32F0xx_StdPeriph_Driver/src/stm32f0xx_flash.c **** 
 536:../Libraries/STM32F0xx_StdPeriph_Driver/src/stm32f0xx_flash.c ****   /* Wait for last operation to be completed */
 537:../Libraries/STM32F0xx_StdPeriph_Driver/src/stm32f0xx_flash.c ****   status = FLASH_WaitForLastOperation(FLASH_ER_PRG_TIMEOUT);
 538:../Libraries/STM32F0xx_StdPeriph_Driver/src/stm32f0xx_flash.c **** 
 539:../Libraries/STM32F0xx_StdPeriph_Driver/src/stm32f0xx_flash.c ****   if(status == FLASH_COMPLETE)
 540:../Libraries/STM32F0xx_StdPeriph_Driver/src/stm32f0xx_flash.c ****   {   
 541:../Libraries/STM32F0xx_StdPeriph_Driver/src/stm32f0xx_flash.c ****     /* If the previous operation is completed, proceed to erase the option bytes */
 542:../Libraries/STM32F0xx_StdPeriph_Driver/src/stm32f0xx_flash.c ****     FLASH->CR |= FLASH_CR_OPTER;
 543:../Libraries/STM32F0xx_StdPeriph_Driver/src/stm32f0xx_flash.c ****     FLASH->CR |= FLASH_CR_STRT;
 544:../Libraries/STM32F0xx_StdPeriph_Driver/src/stm32f0xx_flash.c **** 
 545:../Libraries/STM32F0xx_StdPeriph_Driver/src/stm32f0xx_flash.c ****     /* Wait for last operation to be completed */
 546:../Libraries/STM32F0xx_StdPeriph_Driver/src/stm32f0xx_flash.c ****     status = FLASH_WaitForLastOperation(FLASH_ER_PRG_TIMEOUT);
 547:../Libraries/STM32F0xx_StdPeriph_Driver/src/stm32f0xx_flash.c ****     
 548:../Libraries/STM32F0xx_StdPeriph_Driver/src/stm32f0xx_flash.c ****     if(status == FLASH_COMPLETE)
 549:../Libraries/STM32F0xx_StdPeriph_Driver/src/stm32f0xx_flash.c ****     {
 550:../Libraries/STM32F0xx_StdPeriph_Driver/src/stm32f0xx_flash.c ****       /* If the erase operation is completed, disable the OPTER Bit */
 551:../Libraries/STM32F0xx_StdPeriph_Driver/src/stm32f0xx_flash.c ****       FLASH->CR &= ~FLASH_CR_OPTER;
 552:../Libraries/STM32F0xx_StdPeriph_Driver/src/stm32f0xx_flash.c ****        
 553:../Libraries/STM32F0xx_StdPeriph_Driver/src/stm32f0xx_flash.c ****       /* Enable the Option Bytes Programming operation */
 554:../Libraries/STM32F0xx_StdPeriph_Driver/src/stm32f0xx_flash.c ****       FLASH->CR |= FLASH_CR_OPTPG;
 555:../Libraries/STM32F0xx_StdPeriph_Driver/src/stm32f0xx_flash.c **** 
 556:../Libraries/STM32F0xx_StdPeriph_Driver/src/stm32f0xx_flash.c ****       /* Restore the last read protection Option Byte value */
 557:../Libraries/STM32F0xx_StdPeriph_Driver/src/stm32f0xx_flash.c ****       OB->RDP = (uint16_t)rdptmp; 
 558:../Libraries/STM32F0xx_StdPeriph_Driver/src/stm32f0xx_flash.c **** 
 559:../Libraries/STM32F0xx_StdPeriph_Driver/src/stm32f0xx_flash.c ****       /* Wait for last operation to be completed */
 560:../Libraries/STM32F0xx_StdPeriph_Driver/src/stm32f0xx_flash.c ****       status = FLASH_WaitForLastOperation(FLASH_ER_PRG_TIMEOUT);
 561:../Libraries/STM32F0xx_StdPeriph_Driver/src/stm32f0xx_flash.c ****  
 562:../Libraries/STM32F0xx_StdPeriph_Driver/src/stm32f0xx_flash.c ****       if(status != FLASH_TIMEOUT)
 563:../Libraries/STM32F0xx_StdPeriph_Driver/src/stm32f0xx_flash.c ****       {
 564:../Libraries/STM32F0xx_StdPeriph_Driver/src/stm32f0xx_flash.c ****         /* if the program operation is completed, disable the OPTPG Bit */
 565:../Libraries/STM32F0xx_StdPeriph_Driver/src/stm32f0xx_flash.c ****         FLASH->CR &= ~FLASH_CR_OPTPG;
 566:../Libraries/STM32F0xx_StdPeriph_Driver/src/stm32f0xx_flash.c ****       }
 567:../Libraries/STM32F0xx_StdPeriph_Driver/src/stm32f0xx_flash.c ****     }
 568:../Libraries/STM32F0xx_StdPeriph_Driver/src/stm32f0xx_flash.c ****     else
 569:../Libraries/STM32F0xx_StdPeriph_Driver/src/stm32f0xx_flash.c ****     {
 570:../Libraries/STM32F0xx_StdPeriph_Driver/src/stm32f0xx_flash.c ****       if (status != FLASH_TIMEOUT)
 571:../Libraries/STM32F0xx_StdPeriph_Driver/src/stm32f0xx_flash.c ****       {
 572:../Libraries/STM32F0xx_StdPeriph_Driver/src/stm32f0xx_flash.c ****         /* Disable the OPTPG Bit */
 573:../Libraries/STM32F0xx_StdPeriph_Driver/src/stm32f0xx_flash.c ****         FLASH->CR &= ~FLASH_CR_OPTPG;
 574:../Libraries/STM32F0xx_StdPeriph_Driver/src/stm32f0xx_flash.c ****       }
 575:../Libraries/STM32F0xx_StdPeriph_Driver/src/stm32f0xx_flash.c ****     }  
 576:../Libraries/STM32F0xx_StdPeriph_Driver/src/stm32f0xx_flash.c ****   }
 577:../Libraries/STM32F0xx_StdPeriph_Driver/src/stm32f0xx_flash.c ****   /* Return the erase status */
 578:../Libraries/STM32F0xx_StdPeriph_Driver/src/stm32f0xx_flash.c ****   return status;
 579:../Libraries/STM32F0xx_StdPeriph_Driver/src/stm32f0xx_flash.c **** }
 580:../Libraries/STM32F0xx_StdPeriph_Driver/src/stm32f0xx_flash.c **** 
 581:../Libraries/STM32F0xx_StdPeriph_Driver/src/stm32f0xx_flash.c **** /**
 582:../Libraries/STM32F0xx_StdPeriph_Driver/src/stm32f0xx_flash.c ****   * @brief  Write protects the desired pages
 583:../Libraries/STM32F0xx_StdPeriph_Driver/src/stm32f0xx_flash.c ****   * @note   To correctly run this function, the FLASH_OB_Unlock() function must be called before.
 584:../Libraries/STM32F0xx_StdPeriph_Driver/src/stm32f0xx_flash.c ****   * @note   Call the FLASH_OB_Lock() to disable the flash control register access and the option
 585:../Libraries/STM32F0xx_StdPeriph_Driver/src/stm32f0xx_flash.c ****   *         bytes (recommended to protect the FLASH memory against possible unwanted operation)
 586:../Libraries/STM32F0xx_StdPeriph_Driver/src/stm32f0xx_flash.c ****   * @param  OB_WRP: specifies the address of the pages to be write protected.
 587:../Libraries/STM32F0xx_StdPeriph_Driver/src/stm32f0xx_flash.c ****   *          This parameter can be:
 588:../Libraries/STM32F0xx_StdPeriph_Driver/src/stm32f0xx_flash.c ****   *             @arg OB_WRP_Pages0to3..OB_WRP_Pages60to63
 589:../Libraries/STM32F0xx_StdPeriph_Driver/src/stm32f0xx_flash.c ****   *             @arg OB_WRP_AllPages
 590:../Libraries/STM32F0xx_StdPeriph_Driver/src/stm32f0xx_flash.c ****   * @retval FLASH Status: The returned value can be: 
 591:../Libraries/STM32F0xx_StdPeriph_Driver/src/stm32f0xx_flash.c ****   *         FLASH_ERROR_PROGRAM, FLASH_ERROR_WRP, FLASH_COMPLETE or FLASH_TIMEOUT.
 592:../Libraries/STM32F0xx_StdPeriph_Driver/src/stm32f0xx_flash.c ****   */
 593:../Libraries/STM32F0xx_StdPeriph_Driver/src/stm32f0xx_flash.c **** FLASH_Status FLASH_OB_EnableWRP(uint32_t OB_WRP)
 594:../Libraries/STM32F0xx_StdPeriph_Driver/src/stm32f0xx_flash.c **** {
 595:../Libraries/STM32F0xx_StdPeriph_Driver/src/stm32f0xx_flash.c ****  uint16_t WRP0_Data = 0xFFFF, WRP1_Data = 0xFFFF, WRP2_Data = 0xFFFF, WRP3_Data = 0xFFFF;
 596:../Libraries/STM32F0xx_StdPeriph_Driver/src/stm32f0xx_flash.c **** 
 597:../Libraries/STM32F0xx_StdPeriph_Driver/src/stm32f0xx_flash.c ****   FLASH_Status status = FLASH_COMPLETE;
 598:../Libraries/STM32F0xx_StdPeriph_Driver/src/stm32f0xx_flash.c **** 
 599:../Libraries/STM32F0xx_StdPeriph_Driver/src/stm32f0xx_flash.c ****   /* Check the parameters */
 600:../Libraries/STM32F0xx_StdPeriph_Driver/src/stm32f0xx_flash.c ****   assert_param(IS_OB_WRP(OB_WRP));
 601:../Libraries/STM32F0xx_StdPeriph_Driver/src/stm32f0xx_flash.c **** 
 602:../Libraries/STM32F0xx_StdPeriph_Driver/src/stm32f0xx_flash.c ****   OB_WRP = (uint32_t)(~OB_WRP);
 603:../Libraries/STM32F0xx_StdPeriph_Driver/src/stm32f0xx_flash.c ****   WRP0_Data = (uint16_t)(OB_WRP & OB_WRP0_WRP0);
 604:../Libraries/STM32F0xx_StdPeriph_Driver/src/stm32f0xx_flash.c ****   WRP1_Data = (uint16_t)((OB_WRP >> 8) & OB_WRP0_WRP0);
 605:../Libraries/STM32F0xx_StdPeriph_Driver/src/stm32f0xx_flash.c ****   WRP2_Data = (uint16_t)((OB_WRP >> 16) & OB_WRP0_WRP0) ;
 606:../Libraries/STM32F0xx_StdPeriph_Driver/src/stm32f0xx_flash.c ****   WRP3_Data = (uint16_t)((OB_WRP >> 24) & OB_WRP0_WRP0) ;
 607:../Libraries/STM32F0xx_StdPeriph_Driver/src/stm32f0xx_flash.c ****     
 608:../Libraries/STM32F0xx_StdPeriph_Driver/src/stm32f0xx_flash.c ****   /* Wait for last operation to be completed */
 609:../Libraries/STM32F0xx_StdPeriph_Driver/src/stm32f0xx_flash.c ****   status = FLASH_WaitForLastOperation(FLASH_ER_PRG_TIMEOUT);
 610:../Libraries/STM32F0xx_StdPeriph_Driver/src/stm32f0xx_flash.c **** 
 611:../Libraries/STM32F0xx_StdPeriph_Driver/src/stm32f0xx_flash.c ****   if(status == FLASH_COMPLETE)
 612:../Libraries/STM32F0xx_StdPeriph_Driver/src/stm32f0xx_flash.c ****   {
 613:../Libraries/STM32F0xx_StdPeriph_Driver/src/stm32f0xx_flash.c ****     FLASH->CR |= FLASH_CR_OPTPG;
 614:../Libraries/STM32F0xx_StdPeriph_Driver/src/stm32f0xx_flash.c **** 
 615:../Libraries/STM32F0xx_StdPeriph_Driver/src/stm32f0xx_flash.c ****     if(WRP0_Data != 0xFF)
 616:../Libraries/STM32F0xx_StdPeriph_Driver/src/stm32f0xx_flash.c ****     {
 617:../Libraries/STM32F0xx_StdPeriph_Driver/src/stm32f0xx_flash.c ****       OB->WRP0 = WRP0_Data;
 618:../Libraries/STM32F0xx_StdPeriph_Driver/src/stm32f0xx_flash.c ****       
 619:../Libraries/STM32F0xx_StdPeriph_Driver/src/stm32f0xx_flash.c ****       /* Wait for last operation to be completed */
 620:../Libraries/STM32F0xx_StdPeriph_Driver/src/stm32f0xx_flash.c ****       status = FLASH_WaitForLastOperation(FLASH_ER_PRG_TIMEOUT);
 621:../Libraries/STM32F0xx_StdPeriph_Driver/src/stm32f0xx_flash.c ****     }
 622:../Libraries/STM32F0xx_StdPeriph_Driver/src/stm32f0xx_flash.c ****     if((status == FLASH_COMPLETE) && (WRP1_Data != 0xFF))
 623:../Libraries/STM32F0xx_StdPeriph_Driver/src/stm32f0xx_flash.c ****     {
 624:../Libraries/STM32F0xx_StdPeriph_Driver/src/stm32f0xx_flash.c ****       OB->WRP1 = WRP1_Data;
 625:../Libraries/STM32F0xx_StdPeriph_Driver/src/stm32f0xx_flash.c ****       
 626:../Libraries/STM32F0xx_StdPeriph_Driver/src/stm32f0xx_flash.c ****       /* Wait for last operation to be completed */
 627:../Libraries/STM32F0xx_StdPeriph_Driver/src/stm32f0xx_flash.c ****       status = FLASH_WaitForLastOperation(FLASH_ER_PRG_TIMEOUT);
 628:../Libraries/STM32F0xx_StdPeriph_Driver/src/stm32f0xx_flash.c ****     }
 629:../Libraries/STM32F0xx_StdPeriph_Driver/src/stm32f0xx_flash.c ****     if((status == FLASH_COMPLETE) && (WRP2_Data != 0xFF))
 630:../Libraries/STM32F0xx_StdPeriph_Driver/src/stm32f0xx_flash.c ****     {
 631:../Libraries/STM32F0xx_StdPeriph_Driver/src/stm32f0xx_flash.c ****       OB->WRP2 = WRP2_Data;
 632:../Libraries/STM32F0xx_StdPeriph_Driver/src/stm32f0xx_flash.c ****       
 633:../Libraries/STM32F0xx_StdPeriph_Driver/src/stm32f0xx_flash.c ****       /* Wait for last operation to be completed */
 634:../Libraries/STM32F0xx_StdPeriph_Driver/src/stm32f0xx_flash.c ****       status = FLASH_WaitForLastOperation(FLASH_ER_PRG_TIMEOUT);
 635:../Libraries/STM32F0xx_StdPeriph_Driver/src/stm32f0xx_flash.c ****     }    
 636:../Libraries/STM32F0xx_StdPeriph_Driver/src/stm32f0xx_flash.c ****     if((status == FLASH_COMPLETE) && (WRP3_Data != 0xFF))
 637:../Libraries/STM32F0xx_StdPeriph_Driver/src/stm32f0xx_flash.c ****     {
 638:../Libraries/STM32F0xx_StdPeriph_Driver/src/stm32f0xx_flash.c ****       OB->WRP3 = WRP3_Data;
 639:../Libraries/STM32F0xx_StdPeriph_Driver/src/stm32f0xx_flash.c ****       
 640:../Libraries/STM32F0xx_StdPeriph_Driver/src/stm32f0xx_flash.c ****       /* Wait for last operation to be completed */
 641:../Libraries/STM32F0xx_StdPeriph_Driver/src/stm32f0xx_flash.c ****       status = FLASH_WaitForLastOperation(FLASH_ER_PRG_TIMEOUT);
 642:../Libraries/STM32F0xx_StdPeriph_Driver/src/stm32f0xx_flash.c ****     }  
 643:../Libraries/STM32F0xx_StdPeriph_Driver/src/stm32f0xx_flash.c ****     if(status != FLASH_TIMEOUT)
 644:../Libraries/STM32F0xx_StdPeriph_Driver/src/stm32f0xx_flash.c ****     {
 645:../Libraries/STM32F0xx_StdPeriph_Driver/src/stm32f0xx_flash.c ****       /* if the program operation is completed, disable the OPTPG Bit */
 646:../Libraries/STM32F0xx_StdPeriph_Driver/src/stm32f0xx_flash.c ****       FLASH->CR &= ~FLASH_CR_OPTPG;
 647:../Libraries/STM32F0xx_StdPeriph_Driver/src/stm32f0xx_flash.c ****     }
 648:../Libraries/STM32F0xx_StdPeriph_Driver/src/stm32f0xx_flash.c ****   } 
 649:../Libraries/STM32F0xx_StdPeriph_Driver/src/stm32f0xx_flash.c ****   /* Return the write protection operation Status */
 650:../Libraries/STM32F0xx_StdPeriph_Driver/src/stm32f0xx_flash.c ****   return status;
 651:../Libraries/STM32F0xx_StdPeriph_Driver/src/stm32f0xx_flash.c **** }
 652:../Libraries/STM32F0xx_StdPeriph_Driver/src/stm32f0xx_flash.c **** 
 653:../Libraries/STM32F0xx_StdPeriph_Driver/src/stm32f0xx_flash.c **** /**
 654:../Libraries/STM32F0xx_StdPeriph_Driver/src/stm32f0xx_flash.c ****   * @brief  Enables or disables the read out protection.
 655:../Libraries/STM32F0xx_StdPeriph_Driver/src/stm32f0xx_flash.c ****   * @note   To correctly run this function, the FLASH_OB_Unlock() function must be called before.
 656:../Libraries/STM32F0xx_StdPeriph_Driver/src/stm32f0xx_flash.c ****   * @note   Call the FLASH_OB_Lock() to disable the flash control register access and the option
 657:../Libraries/STM32F0xx_StdPeriph_Driver/src/stm32f0xx_flash.c ****   *         bytes (recommended to protect the FLASH memory against possible unwanted operation)
 658:../Libraries/STM32F0xx_StdPeriph_Driver/src/stm32f0xx_flash.c ****   * @param  FLASH_ReadProtection_Level: specifies the read protection level. 
 659:../Libraries/STM32F0xx_StdPeriph_Driver/src/stm32f0xx_flash.c ****   *          This parameter can be:
 660:../Libraries/STM32F0xx_StdPeriph_Driver/src/stm32f0xx_flash.c ****   *             @arg OB_RDP_Level_0: No protection
 661:../Libraries/STM32F0xx_StdPeriph_Driver/src/stm32f0xx_flash.c ****   *             @arg OB_RDP_Level_1: Read protection of the memory
 662:../Libraries/STM32F0xx_StdPeriph_Driver/src/stm32f0xx_flash.c ****   *             @arg OB_RDP_Level_2: Chip protection
 663:../Libraries/STM32F0xx_StdPeriph_Driver/src/stm32f0xx_flash.c ****   * @note   When enabling OB_RDP level 2 it's no more possible to go back to level 1 or 0
 664:../Libraries/STM32F0xx_StdPeriph_Driver/src/stm32f0xx_flash.c ****   * @retval FLASH Status: The returned value can be: 
 665:../Libraries/STM32F0xx_StdPeriph_Driver/src/stm32f0xx_flash.c ****   *         FLASH_ERROR_PROGRAM, FLASH_ERROR_WRP, FLASH_COMPLETE or FLASH_TIMEOUT.
 666:../Libraries/STM32F0xx_StdPeriph_Driver/src/stm32f0xx_flash.c ****   */
 667:../Libraries/STM32F0xx_StdPeriph_Driver/src/stm32f0xx_flash.c **** FLASH_Status FLASH_OB_RDPConfig(uint8_t OB_RDP)
 668:../Libraries/STM32F0xx_StdPeriph_Driver/src/stm32f0xx_flash.c **** {
 669:../Libraries/STM32F0xx_StdPeriph_Driver/src/stm32f0xx_flash.c ****   FLASH_Status status = FLASH_COMPLETE;
 670:../Libraries/STM32F0xx_StdPeriph_Driver/src/stm32f0xx_flash.c ****   
 671:../Libraries/STM32F0xx_StdPeriph_Driver/src/stm32f0xx_flash.c ****   /* Check the parameters */
 672:../Libraries/STM32F0xx_StdPeriph_Driver/src/stm32f0xx_flash.c ****   assert_param(IS_OB_RDP(OB_RDP));
 673:../Libraries/STM32F0xx_StdPeriph_Driver/src/stm32f0xx_flash.c ****   status = FLASH_WaitForLastOperation(FLASH_ER_PRG_TIMEOUT);
 674:../Libraries/STM32F0xx_StdPeriph_Driver/src/stm32f0xx_flash.c ****   
 675:../Libraries/STM32F0xx_StdPeriph_Driver/src/stm32f0xx_flash.c ****   if(status == FLASH_COMPLETE)
 676:../Libraries/STM32F0xx_StdPeriph_Driver/src/stm32f0xx_flash.c ****   {
 677:../Libraries/STM32F0xx_StdPeriph_Driver/src/stm32f0xx_flash.c ****     FLASH->CR |= FLASH_CR_OPTER;
 678:../Libraries/STM32F0xx_StdPeriph_Driver/src/stm32f0xx_flash.c ****     FLASH->CR |= FLASH_CR_STRT;
 679:../Libraries/STM32F0xx_StdPeriph_Driver/src/stm32f0xx_flash.c ****     
 680:../Libraries/STM32F0xx_StdPeriph_Driver/src/stm32f0xx_flash.c ****     /* Wait for last operation to be completed */
 681:../Libraries/STM32F0xx_StdPeriph_Driver/src/stm32f0xx_flash.c ****     status = FLASH_WaitForLastOperation(FLASH_ER_PRG_TIMEOUT);
 682:../Libraries/STM32F0xx_StdPeriph_Driver/src/stm32f0xx_flash.c ****     
 683:../Libraries/STM32F0xx_StdPeriph_Driver/src/stm32f0xx_flash.c ****     if(status == FLASH_COMPLETE)
 684:../Libraries/STM32F0xx_StdPeriph_Driver/src/stm32f0xx_flash.c ****     {
 685:../Libraries/STM32F0xx_StdPeriph_Driver/src/stm32f0xx_flash.c ****       /* If the erase operation is completed, disable the OPTER Bit */
 686:../Libraries/STM32F0xx_StdPeriph_Driver/src/stm32f0xx_flash.c ****       FLASH->CR &= ~FLASH_CR_OPTER;
 687:../Libraries/STM32F0xx_StdPeriph_Driver/src/stm32f0xx_flash.c ****       
 688:../Libraries/STM32F0xx_StdPeriph_Driver/src/stm32f0xx_flash.c ****       /* Enable the Option Bytes Programming operation */
 689:../Libraries/STM32F0xx_StdPeriph_Driver/src/stm32f0xx_flash.c ****       FLASH->CR |= FLASH_CR_OPTPG;
 690:../Libraries/STM32F0xx_StdPeriph_Driver/src/stm32f0xx_flash.c ****        
 691:../Libraries/STM32F0xx_StdPeriph_Driver/src/stm32f0xx_flash.c ****       OB->RDP = OB_RDP;
 692:../Libraries/STM32F0xx_StdPeriph_Driver/src/stm32f0xx_flash.c **** 
 693:../Libraries/STM32F0xx_StdPeriph_Driver/src/stm32f0xx_flash.c ****       /* Wait for last operation to be completed */
 694:../Libraries/STM32F0xx_StdPeriph_Driver/src/stm32f0xx_flash.c ****       status = FLASH_WaitForLastOperation(FLASH_ER_PRG_TIMEOUT); 
 695:../Libraries/STM32F0xx_StdPeriph_Driver/src/stm32f0xx_flash.c ****     
 696:../Libraries/STM32F0xx_StdPeriph_Driver/src/stm32f0xx_flash.c ****       if(status != FLASH_TIMEOUT)
 697:../Libraries/STM32F0xx_StdPeriph_Driver/src/stm32f0xx_flash.c ****       {
 698:../Libraries/STM32F0xx_StdPeriph_Driver/src/stm32f0xx_flash.c ****         /* if the program operation is completed, disable the OPTPG Bit */
 699:../Libraries/STM32F0xx_StdPeriph_Driver/src/stm32f0xx_flash.c ****         FLASH->CR &= ~FLASH_CR_OPTPG;
 700:../Libraries/STM32F0xx_StdPeriph_Driver/src/stm32f0xx_flash.c ****       }
 701:../Libraries/STM32F0xx_StdPeriph_Driver/src/stm32f0xx_flash.c ****     }
 702:../Libraries/STM32F0xx_StdPeriph_Driver/src/stm32f0xx_flash.c ****     else 
 703:../Libraries/STM32F0xx_StdPeriph_Driver/src/stm32f0xx_flash.c ****     {
 704:../Libraries/STM32F0xx_StdPeriph_Driver/src/stm32f0xx_flash.c ****       if(status != FLASH_TIMEOUT)
 705:../Libraries/STM32F0xx_StdPeriph_Driver/src/stm32f0xx_flash.c ****       {
 706:../Libraries/STM32F0xx_StdPeriph_Driver/src/stm32f0xx_flash.c ****         /* Disable the OPTER Bit */
 707:../Libraries/STM32F0xx_StdPeriph_Driver/src/stm32f0xx_flash.c ****         FLASH->CR &= ~FLASH_CR_OPTER;
 708:../Libraries/STM32F0xx_StdPeriph_Driver/src/stm32f0xx_flash.c ****       }
 709:../Libraries/STM32F0xx_StdPeriph_Driver/src/stm32f0xx_flash.c ****     }
 710:../Libraries/STM32F0xx_StdPeriph_Driver/src/stm32f0xx_flash.c ****   }
 711:../Libraries/STM32F0xx_StdPeriph_Driver/src/stm32f0xx_flash.c ****   /* Return the protection operation Status */
 712:../Libraries/STM32F0xx_StdPeriph_Driver/src/stm32f0xx_flash.c ****   return status;
 713:../Libraries/STM32F0xx_StdPeriph_Driver/src/stm32f0xx_flash.c **** }
 714:../Libraries/STM32F0xx_StdPeriph_Driver/src/stm32f0xx_flash.c **** 
 715:../Libraries/STM32F0xx_StdPeriph_Driver/src/stm32f0xx_flash.c **** /**
 716:../Libraries/STM32F0xx_StdPeriph_Driver/src/stm32f0xx_flash.c ****   * @brief  Programs the FLASH User Option Byte: IWDG_SW / RST_STOP / RST_STDBY.
 717:../Libraries/STM32F0xx_StdPeriph_Driver/src/stm32f0xx_flash.c ****   * @note   To correctly run this function, the FLASH_OB_Unlock() function must be called before.
 718:../Libraries/STM32F0xx_StdPeriph_Driver/src/stm32f0xx_flash.c ****   * @note   Call the FLASH_OB_Lock() to disable the flash control register access and the option
 719:../Libraries/STM32F0xx_StdPeriph_Driver/src/stm32f0xx_flash.c ****   *         bytes (recommended to protect the FLASH memory against possible unwanted operation)
 720:../Libraries/STM32F0xx_StdPeriph_Driver/src/stm32f0xx_flash.c ****   * @param  OB_IWDG: Selects the WDG mode
 721:../Libraries/STM32F0xx_StdPeriph_Driver/src/stm32f0xx_flash.c ****   *          This parameter can be one of the following values:
 722:../Libraries/STM32F0xx_StdPeriph_Driver/src/stm32f0xx_flash.c ****   *             @arg OB_IWDG_SW: Software WDG selected
 723:../Libraries/STM32F0xx_StdPeriph_Driver/src/stm32f0xx_flash.c ****   *             @arg OB_IWDG_HW: Hardware WDG selected
 724:../Libraries/STM32F0xx_StdPeriph_Driver/src/stm32f0xx_flash.c ****   * @param  OB_STOP: Reset event when entering STOP mode.
 725:../Libraries/STM32F0xx_StdPeriph_Driver/src/stm32f0xx_flash.c ****   *          This parameter can be one of the following values:
 726:../Libraries/STM32F0xx_StdPeriph_Driver/src/stm32f0xx_flash.c ****   *             @arg OB_STOP_NoRST: No reset generated when entering in STOP
 727:../Libraries/STM32F0xx_StdPeriph_Driver/src/stm32f0xx_flash.c ****   *             @arg OB_STOP_RST: Reset generated when entering in STOP
 728:../Libraries/STM32F0xx_StdPeriph_Driver/src/stm32f0xx_flash.c ****   * @param  OB_STDBY: Reset event when entering Standby mode.
 729:../Libraries/STM32F0xx_StdPeriph_Driver/src/stm32f0xx_flash.c ****   *          This parameter can be one of the following values:
 730:../Libraries/STM32F0xx_StdPeriph_Driver/src/stm32f0xx_flash.c ****   *             @arg OB_STDBY_NoRST: No reset generated when entering in STANDBY
 731:../Libraries/STM32F0xx_StdPeriph_Driver/src/stm32f0xx_flash.c ****   *             @arg OB_STDBY_RST: Reset generated when entering in STANDBY
 732:../Libraries/STM32F0xx_StdPeriph_Driver/src/stm32f0xx_flash.c ****   * @retval FLASH Status: The returned value can be: 
 733:../Libraries/STM32F0xx_StdPeriph_Driver/src/stm32f0xx_flash.c ****   *         FLASH_ERROR_PROGRAM, FLASH_ERROR_WRP, FLASH_COMPLETE or FLASH_TIMEOUT.
 734:../Libraries/STM32F0xx_StdPeriph_Driver/src/stm32f0xx_flash.c ****   */
 735:../Libraries/STM32F0xx_StdPeriph_Driver/src/stm32f0xx_flash.c **** FLASH_Status FLASH_OB_UserConfig(uint8_t OB_IWDG, uint8_t OB_STOP, uint8_t OB_STDBY)
 736:../Libraries/STM32F0xx_StdPeriph_Driver/src/stm32f0xx_flash.c **** {
 737:../Libraries/STM32F0xx_StdPeriph_Driver/src/stm32f0xx_flash.c ****   FLASH_Status status = FLASH_COMPLETE; 
 738:../Libraries/STM32F0xx_StdPeriph_Driver/src/stm32f0xx_flash.c **** 
 739:../Libraries/STM32F0xx_StdPeriph_Driver/src/stm32f0xx_flash.c ****   /* Check the parameters */
 740:../Libraries/STM32F0xx_StdPeriph_Driver/src/stm32f0xx_flash.c ****   assert_param(IS_OB_IWDG_SOURCE(OB_IWDG));
 741:../Libraries/STM32F0xx_StdPeriph_Driver/src/stm32f0xx_flash.c ****   assert_param(IS_OB_STOP_SOURCE(OB_STOP));
 742:../Libraries/STM32F0xx_StdPeriph_Driver/src/stm32f0xx_flash.c ****   assert_param(IS_OB_STDBY_SOURCE(OB_STDBY));
 743:../Libraries/STM32F0xx_StdPeriph_Driver/src/stm32f0xx_flash.c **** 
 744:../Libraries/STM32F0xx_StdPeriph_Driver/src/stm32f0xx_flash.c ****   /* Wait for last operation to be completed */
 745:../Libraries/STM32F0xx_StdPeriph_Driver/src/stm32f0xx_flash.c ****   status = FLASH_WaitForLastOperation(FLASH_ER_PRG_TIMEOUT);
 746:../Libraries/STM32F0xx_StdPeriph_Driver/src/stm32f0xx_flash.c ****   
 747:../Libraries/STM32F0xx_StdPeriph_Driver/src/stm32f0xx_flash.c ****   if(status == FLASH_COMPLETE)
 748:../Libraries/STM32F0xx_StdPeriph_Driver/src/stm32f0xx_flash.c ****   {
 749:../Libraries/STM32F0xx_StdPeriph_Driver/src/stm32f0xx_flash.c ****     /* Enable the Option Bytes Programming operation */
 750:../Libraries/STM32F0xx_StdPeriph_Driver/src/stm32f0xx_flash.c ****     FLASH->CR |= FLASH_CR_OPTPG; 
 751:../Libraries/STM32F0xx_StdPeriph_Driver/src/stm32f0xx_flash.c **** 
 752:../Libraries/STM32F0xx_StdPeriph_Driver/src/stm32f0xx_flash.c ****     OB->USER = (uint16_t)((uint16_t)(OB_IWDG | OB_STOP) | (uint16_t)(OB_STDBY | 0xF8));
 753:../Libraries/STM32F0xx_StdPeriph_Driver/src/stm32f0xx_flash.c ****   
 754:../Libraries/STM32F0xx_StdPeriph_Driver/src/stm32f0xx_flash.c ****     /* Wait for last operation to be completed */
 755:../Libraries/STM32F0xx_StdPeriph_Driver/src/stm32f0xx_flash.c ****     status = FLASH_WaitForLastOperation(FLASH_ER_PRG_TIMEOUT);
 756:../Libraries/STM32F0xx_StdPeriph_Driver/src/stm32f0xx_flash.c **** 
 757:../Libraries/STM32F0xx_StdPeriph_Driver/src/stm32f0xx_flash.c ****     if(status != FLASH_TIMEOUT)
 758:../Libraries/STM32F0xx_StdPeriph_Driver/src/stm32f0xx_flash.c ****     {
 759:../Libraries/STM32F0xx_StdPeriph_Driver/src/stm32f0xx_flash.c ****       /* If the program operation is completed, disable the OPTPG Bit */
 760:../Libraries/STM32F0xx_StdPeriph_Driver/src/stm32f0xx_flash.c ****       FLASH->CR &= ~FLASH_CR_OPTPG;
 761:../Libraries/STM32F0xx_StdPeriph_Driver/src/stm32f0xx_flash.c ****     }
 762:../Libraries/STM32F0xx_StdPeriph_Driver/src/stm32f0xx_flash.c ****   }    
 763:../Libraries/STM32F0xx_StdPeriph_Driver/src/stm32f0xx_flash.c ****   /* Return the Option Byte program Status */
 764:../Libraries/STM32F0xx_StdPeriph_Driver/src/stm32f0xx_flash.c ****   return status;
 765:../Libraries/STM32F0xx_StdPeriph_Driver/src/stm32f0xx_flash.c **** }
 766:../Libraries/STM32F0xx_StdPeriph_Driver/src/stm32f0xx_flash.c **** 
 767:../Libraries/STM32F0xx_StdPeriph_Driver/src/stm32f0xx_flash.c **** /**
 768:../Libraries/STM32F0xx_StdPeriph_Driver/src/stm32f0xx_flash.c ****   * @brief  Sets or resets the BOOT1 option bit.
 769:../Libraries/STM32F0xx_StdPeriph_Driver/src/stm32f0xx_flash.c ****   * @param  OB_BOOT1: Set or Reset the BOOT1 option bit.
 770:../Libraries/STM32F0xx_StdPeriph_Driver/src/stm32f0xx_flash.c ****   *          This parameter can be one of the following values:
 771:../Libraries/STM32F0xx_StdPeriph_Driver/src/stm32f0xx_flash.c ****   *             @arg OB_BOOT1_RESET: BOOT1 option bit reset
 772:../Libraries/STM32F0xx_StdPeriph_Driver/src/stm32f0xx_flash.c ****   *             @arg OB_BOOT1_SET: BOOT1 option bit set
 773:../Libraries/STM32F0xx_StdPeriph_Driver/src/stm32f0xx_flash.c ****   * @retval None
 774:../Libraries/STM32F0xx_StdPeriph_Driver/src/stm32f0xx_flash.c ****   */
 775:../Libraries/STM32F0xx_StdPeriph_Driver/src/stm32f0xx_flash.c **** FLASH_Status FLASH_OB_BOOTConfig(uint8_t OB_BOOT1)
 776:../Libraries/STM32F0xx_StdPeriph_Driver/src/stm32f0xx_flash.c **** {
 777:../Libraries/STM32F0xx_StdPeriph_Driver/src/stm32f0xx_flash.c ****   FLASH_Status status = FLASH_COMPLETE; 
 778:../Libraries/STM32F0xx_StdPeriph_Driver/src/stm32f0xx_flash.c **** 
 779:../Libraries/STM32F0xx_StdPeriph_Driver/src/stm32f0xx_flash.c ****   /* Check the parameters */
 780:../Libraries/STM32F0xx_StdPeriph_Driver/src/stm32f0xx_flash.c ****   assert_param(IS_OB_BOOT1(OB_BOOT1));
 781:../Libraries/STM32F0xx_StdPeriph_Driver/src/stm32f0xx_flash.c **** 
 782:../Libraries/STM32F0xx_StdPeriph_Driver/src/stm32f0xx_flash.c ****   /* Wait for last operation to be completed */
 783:../Libraries/STM32F0xx_StdPeriph_Driver/src/stm32f0xx_flash.c ****   status = FLASH_WaitForLastOperation(FLASH_ER_PRG_TIMEOUT);
 784:../Libraries/STM32F0xx_StdPeriph_Driver/src/stm32f0xx_flash.c ****   
 785:../Libraries/STM32F0xx_StdPeriph_Driver/src/stm32f0xx_flash.c ****   if(status == FLASH_COMPLETE)
 786:../Libraries/STM32F0xx_StdPeriph_Driver/src/stm32f0xx_flash.c ****   {  
 787:../Libraries/STM32F0xx_StdPeriph_Driver/src/stm32f0xx_flash.c ****     /* Enable the Option Bytes Programming operation */
 788:../Libraries/STM32F0xx_StdPeriph_Driver/src/stm32f0xx_flash.c ****     FLASH->CR |= FLASH_CR_OPTPG;
 789:../Libraries/STM32F0xx_StdPeriph_Driver/src/stm32f0xx_flash.c **** 
 790:../Libraries/STM32F0xx_StdPeriph_Driver/src/stm32f0xx_flash.c ****     OB->USER = OB_BOOT1 | 0xEF;
 791:../Libraries/STM32F0xx_StdPeriph_Driver/src/stm32f0xx_flash.c ****   
 792:../Libraries/STM32F0xx_StdPeriph_Driver/src/stm32f0xx_flash.c ****     /* Wait for last operation to be completed */
 793:../Libraries/STM32F0xx_StdPeriph_Driver/src/stm32f0xx_flash.c ****     status = FLASH_WaitForLastOperation(FLASH_ER_PRG_TIMEOUT);
 794:../Libraries/STM32F0xx_StdPeriph_Driver/src/stm32f0xx_flash.c **** 
 795:../Libraries/STM32F0xx_StdPeriph_Driver/src/stm32f0xx_flash.c ****     if(status != FLASH_TIMEOUT)
 796:../Libraries/STM32F0xx_StdPeriph_Driver/src/stm32f0xx_flash.c ****     {
 797:../Libraries/STM32F0xx_StdPeriph_Driver/src/stm32f0xx_flash.c ****       /* If the program operation is completed, disable the OPTPG Bit */
 798:../Libraries/STM32F0xx_StdPeriph_Driver/src/stm32f0xx_flash.c ****       FLASH->CR &= ~FLASH_CR_OPTPG;
 799:../Libraries/STM32F0xx_StdPeriph_Driver/src/stm32f0xx_flash.c ****     }
 800:../Libraries/STM32F0xx_StdPeriph_Driver/src/stm32f0xx_flash.c ****   }
 801:../Libraries/STM32F0xx_StdPeriph_Driver/src/stm32f0xx_flash.c ****   /* Return the Option Byte program Status */
 802:../Libraries/STM32F0xx_StdPeriph_Driver/src/stm32f0xx_flash.c ****   return status;
 803:../Libraries/STM32F0xx_StdPeriph_Driver/src/stm32f0xx_flash.c **** }
 804:../Libraries/STM32F0xx_StdPeriph_Driver/src/stm32f0xx_flash.c **** 
 805:../Libraries/STM32F0xx_StdPeriph_Driver/src/stm32f0xx_flash.c **** /**
 806:../Libraries/STM32F0xx_StdPeriph_Driver/src/stm32f0xx_flash.c ****   * @brief  Sets or resets the BOOT0 option bit.
 807:../Libraries/STM32F0xx_StdPeriph_Driver/src/stm32f0xx_flash.c ****   * @note   This function is applicable only for the STM32F042 devices.
 808:../Libraries/STM32F0xx_StdPeriph_Driver/src/stm32f0xx_flash.c ****   * @param  OB_BOOT0: Set or Reset the BOOT0 option bit.
 809:../Libraries/STM32F0xx_StdPeriph_Driver/src/stm32f0xx_flash.c ****   *          This parameter can be one of the following values:
 810:../Libraries/STM32F0xx_StdPeriph_Driver/src/stm32f0xx_flash.c ****   *             @arg OB_BOOT0_RESET: BOOT0 option bit reset
 811:../Libraries/STM32F0xx_StdPeriph_Driver/src/stm32f0xx_flash.c ****   *             @arg OB_BOOT0_SET: BOOT0 option bit set
 812:../Libraries/STM32F0xx_StdPeriph_Driver/src/stm32f0xx_flash.c ****   * @retval None
 813:../Libraries/STM32F0xx_StdPeriph_Driver/src/stm32f0xx_flash.c ****   */
 814:../Libraries/STM32F0xx_StdPeriph_Driver/src/stm32f0xx_flash.c **** FLASH_Status FLASH_OB_BOOT0Config(uint8_t OB_BOOT0)
 815:../Libraries/STM32F0xx_StdPeriph_Driver/src/stm32f0xx_flash.c **** {
 816:../Libraries/STM32F0xx_StdPeriph_Driver/src/stm32f0xx_flash.c ****   FLASH_Status status = FLASH_COMPLETE; 
 817:../Libraries/STM32F0xx_StdPeriph_Driver/src/stm32f0xx_flash.c **** 
 818:../Libraries/STM32F0xx_StdPeriph_Driver/src/stm32f0xx_flash.c ****   /* Check the parameters */
 819:../Libraries/STM32F0xx_StdPeriph_Driver/src/stm32f0xx_flash.c ****   assert_param(IS_OB_BOOT0(OB_BOOT0));
 820:../Libraries/STM32F0xx_StdPeriph_Driver/src/stm32f0xx_flash.c **** 
 821:../Libraries/STM32F0xx_StdPeriph_Driver/src/stm32f0xx_flash.c ****   /* Wait for last operation to be completed */
 822:../Libraries/STM32F0xx_StdPeriph_Driver/src/stm32f0xx_flash.c ****   status = FLASH_WaitForLastOperation(FLASH_ER_PRG_TIMEOUT);
 823:../Libraries/STM32F0xx_StdPeriph_Driver/src/stm32f0xx_flash.c ****   
 824:../Libraries/STM32F0xx_StdPeriph_Driver/src/stm32f0xx_flash.c ****   if(status == FLASH_COMPLETE)
 825:../Libraries/STM32F0xx_StdPeriph_Driver/src/stm32f0xx_flash.c ****   {  
 826:../Libraries/STM32F0xx_StdPeriph_Driver/src/stm32f0xx_flash.c ****     /* Enable the Option Bytes Programming operation */
 827:../Libraries/STM32F0xx_StdPeriph_Driver/src/stm32f0xx_flash.c ****     FLASH->CR |= FLASH_CR_OPTPG;
 828:../Libraries/STM32F0xx_StdPeriph_Driver/src/stm32f0xx_flash.c **** 
 829:../Libraries/STM32F0xx_StdPeriph_Driver/src/stm32f0xx_flash.c ****     OB->USER = OB_BOOT0 | 0xF7;
 830:../Libraries/STM32F0xx_StdPeriph_Driver/src/stm32f0xx_flash.c ****   
 831:../Libraries/STM32F0xx_StdPeriph_Driver/src/stm32f0xx_flash.c ****     /* Wait for last operation to be completed */
 832:../Libraries/STM32F0xx_StdPeriph_Driver/src/stm32f0xx_flash.c ****     status = FLASH_WaitForLastOperation(FLASH_ER_PRG_TIMEOUT);
 833:../Libraries/STM32F0xx_StdPeriph_Driver/src/stm32f0xx_flash.c **** 
 834:../Libraries/STM32F0xx_StdPeriph_Driver/src/stm32f0xx_flash.c ****     if(status != FLASH_TIMEOUT)
 835:../Libraries/STM32F0xx_StdPeriph_Driver/src/stm32f0xx_flash.c ****     {
 836:../Libraries/STM32F0xx_StdPeriph_Driver/src/stm32f0xx_flash.c ****       /* If the program operation is completed, disable the OPTPG Bit */
 837:../Libraries/STM32F0xx_StdPeriph_Driver/src/stm32f0xx_flash.c ****       FLASH->CR &= ~FLASH_CR_OPTPG;
 838:../Libraries/STM32F0xx_StdPeriph_Driver/src/stm32f0xx_flash.c ****     }
 839:../Libraries/STM32F0xx_StdPeriph_Driver/src/stm32f0xx_flash.c ****   }
 840:../Libraries/STM32F0xx_StdPeriph_Driver/src/stm32f0xx_flash.c ****   /* Return the Option Byte program Status */
 841:../Libraries/STM32F0xx_StdPeriph_Driver/src/stm32f0xx_flash.c ****   return status;
 842:../Libraries/STM32F0xx_StdPeriph_Driver/src/stm32f0xx_flash.c **** }
 843:../Libraries/STM32F0xx_StdPeriph_Driver/src/stm32f0xx_flash.c **** 
 844:../Libraries/STM32F0xx_StdPeriph_Driver/src/stm32f0xx_flash.c **** /**
 845:../Libraries/STM32F0xx_StdPeriph_Driver/src/stm32f0xx_flash.c ****   * @brief  Sets or resets the BOOT0SW option bit.
 846:../Libraries/STM32F0xx_StdPeriph_Driver/src/stm32f0xx_flash.c ****   * @note   This function is applicable only for the STM32F042 devices.   
 847:../Libraries/STM32F0xx_StdPeriph_Driver/src/stm32f0xx_flash.c ****   * @param  OB_BOOT0SW: Set or Reset the BOOT0_SW option bit.
 848:../Libraries/STM32F0xx_StdPeriph_Driver/src/stm32f0xx_flash.c ****   *          This parameter can be one of the following values:
 849:../Libraries/STM32F0xx_StdPeriph_Driver/src/stm32f0xx_flash.c ****   *             @arg OB_BOOT0_SW: BOOT0_SW option bit reset
 850:../Libraries/STM32F0xx_StdPeriph_Driver/src/stm32f0xx_flash.c ****   *             @arg OB_BOOT0_HW: BOOT0_SW option bit set
 851:../Libraries/STM32F0xx_StdPeriph_Driver/src/stm32f0xx_flash.c ****   * @retval None
 852:../Libraries/STM32F0xx_StdPeriph_Driver/src/stm32f0xx_flash.c ****   */
 853:../Libraries/STM32F0xx_StdPeriph_Driver/src/stm32f0xx_flash.c **** FLASH_Status FLASH_OB_BOOT0SWConfig(uint8_t OB_BOOT0SW)
 854:../Libraries/STM32F0xx_StdPeriph_Driver/src/stm32f0xx_flash.c **** {
 855:../Libraries/STM32F0xx_StdPeriph_Driver/src/stm32f0xx_flash.c ****   FLASH_Status status = FLASH_COMPLETE; 
 856:../Libraries/STM32F0xx_StdPeriph_Driver/src/stm32f0xx_flash.c **** 
 857:../Libraries/STM32F0xx_StdPeriph_Driver/src/stm32f0xx_flash.c ****   /* Check the parameters */
 858:../Libraries/STM32F0xx_StdPeriph_Driver/src/stm32f0xx_flash.c ****   assert_param(IS_OB_BOOT0SW(OB_BOOT0SW));
 859:../Libraries/STM32F0xx_StdPeriph_Driver/src/stm32f0xx_flash.c **** 
 860:../Libraries/STM32F0xx_StdPeriph_Driver/src/stm32f0xx_flash.c ****   /* Wait for last operation to be completed */
 861:../Libraries/STM32F0xx_StdPeriph_Driver/src/stm32f0xx_flash.c ****   status = FLASH_WaitForLastOperation(FLASH_ER_PRG_TIMEOUT);
 862:../Libraries/STM32F0xx_StdPeriph_Driver/src/stm32f0xx_flash.c ****   
 863:../Libraries/STM32F0xx_StdPeriph_Driver/src/stm32f0xx_flash.c ****   if(status == FLASH_COMPLETE)
 864:../Libraries/STM32F0xx_StdPeriph_Driver/src/stm32f0xx_flash.c ****   {  
 865:../Libraries/STM32F0xx_StdPeriph_Driver/src/stm32f0xx_flash.c ****     /* Enable the Option Bytes Programming operation */
 866:../Libraries/STM32F0xx_StdPeriph_Driver/src/stm32f0xx_flash.c ****     FLASH->CR |= FLASH_CR_OPTPG;
 867:../Libraries/STM32F0xx_StdPeriph_Driver/src/stm32f0xx_flash.c **** 
 868:../Libraries/STM32F0xx_StdPeriph_Driver/src/stm32f0xx_flash.c ****     OB->USER = OB_BOOT0SW | 0x7F;
 869:../Libraries/STM32F0xx_StdPeriph_Driver/src/stm32f0xx_flash.c ****   
 870:../Libraries/STM32F0xx_StdPeriph_Driver/src/stm32f0xx_flash.c ****     /* Wait for last operation to be completed */
 871:../Libraries/STM32F0xx_StdPeriph_Driver/src/stm32f0xx_flash.c ****     status = FLASH_WaitForLastOperation(FLASH_ER_PRG_TIMEOUT);
 872:../Libraries/STM32F0xx_StdPeriph_Driver/src/stm32f0xx_flash.c **** 
 873:../Libraries/STM32F0xx_StdPeriph_Driver/src/stm32f0xx_flash.c ****     if(status != FLASH_TIMEOUT)
 874:../Libraries/STM32F0xx_StdPeriph_Driver/src/stm32f0xx_flash.c ****     {
 875:../Libraries/STM32F0xx_StdPeriph_Driver/src/stm32f0xx_flash.c ****       /* If the program operation is completed, disable the OPTPG Bit */
 876:../Libraries/STM32F0xx_StdPeriph_Driver/src/stm32f0xx_flash.c ****       FLASH->CR &= ~FLASH_CR_OPTPG;
 877:../Libraries/STM32F0xx_StdPeriph_Driver/src/stm32f0xx_flash.c ****     }
 878:../Libraries/STM32F0xx_StdPeriph_Driver/src/stm32f0xx_flash.c ****   }
 879:../Libraries/STM32F0xx_StdPeriph_Driver/src/stm32f0xx_flash.c ****   /* Return the Option Byte program Status */
 880:../Libraries/STM32F0xx_StdPeriph_Driver/src/stm32f0xx_flash.c ****   return status;
 881:../Libraries/STM32F0xx_StdPeriph_Driver/src/stm32f0xx_flash.c **** }
 882:../Libraries/STM32F0xx_StdPeriph_Driver/src/stm32f0xx_flash.c **** 
 883:../Libraries/STM32F0xx_StdPeriph_Driver/src/stm32f0xx_flash.c **** /**
 884:../Libraries/STM32F0xx_StdPeriph_Driver/src/stm32f0xx_flash.c ****   * @brief  Sets or resets the analogue monitoring on VDDA Power source.
 885:../Libraries/STM32F0xx_StdPeriph_Driver/src/stm32f0xx_flash.c ****   * @param  OB_VDDA_ANALOG: Selects the analog monitoring on VDDA Power source.
 886:../Libraries/STM32F0xx_StdPeriph_Driver/src/stm32f0xx_flash.c ****   *          This parameter can be one of the following values:
 887:../Libraries/STM32F0xx_StdPeriph_Driver/src/stm32f0xx_flash.c ****   *             @arg OB_VDDA_ANALOG_ON: Analog monitoring on VDDA Power source ON
 888:../Libraries/STM32F0xx_StdPeriph_Driver/src/stm32f0xx_flash.c ****   *             @arg OB_VDDA_ANALOG_OFF: Analog monitoring on VDDA Power source OFF
 889:../Libraries/STM32F0xx_StdPeriph_Driver/src/stm32f0xx_flash.c ****   * @retval None
 890:../Libraries/STM32F0xx_StdPeriph_Driver/src/stm32f0xx_flash.c ****   */
 891:../Libraries/STM32F0xx_StdPeriph_Driver/src/stm32f0xx_flash.c **** FLASH_Status FLASH_OB_VDDAConfig(uint8_t OB_VDDA_ANALOG)
 892:../Libraries/STM32F0xx_StdPeriph_Driver/src/stm32f0xx_flash.c **** {
 893:../Libraries/STM32F0xx_StdPeriph_Driver/src/stm32f0xx_flash.c ****   FLASH_Status status = FLASH_COMPLETE; 
 894:../Libraries/STM32F0xx_StdPeriph_Driver/src/stm32f0xx_flash.c **** 
 895:../Libraries/STM32F0xx_StdPeriph_Driver/src/stm32f0xx_flash.c ****   /* Check the parameters */
 896:../Libraries/STM32F0xx_StdPeriph_Driver/src/stm32f0xx_flash.c ****   assert_param(IS_OB_VDDA_ANALOG(OB_VDDA_ANALOG));
 897:../Libraries/STM32F0xx_StdPeriph_Driver/src/stm32f0xx_flash.c **** 
 898:../Libraries/STM32F0xx_StdPeriph_Driver/src/stm32f0xx_flash.c ****   /* Wait for last operation to be completed */
 899:../Libraries/STM32F0xx_StdPeriph_Driver/src/stm32f0xx_flash.c ****   status = FLASH_WaitForLastOperation(FLASH_ER_PRG_TIMEOUT);
 900:../Libraries/STM32F0xx_StdPeriph_Driver/src/stm32f0xx_flash.c ****   
 901:../Libraries/STM32F0xx_StdPeriph_Driver/src/stm32f0xx_flash.c ****   if(status == FLASH_COMPLETE)
 902:../Libraries/STM32F0xx_StdPeriph_Driver/src/stm32f0xx_flash.c ****   {  
 903:../Libraries/STM32F0xx_StdPeriph_Driver/src/stm32f0xx_flash.c ****     /* Enable the Option Bytes Programming operation */
 904:../Libraries/STM32F0xx_StdPeriph_Driver/src/stm32f0xx_flash.c ****     FLASH->CR |= FLASH_CR_OPTPG; 
 905:../Libraries/STM32F0xx_StdPeriph_Driver/src/stm32f0xx_flash.c **** 
 906:../Libraries/STM32F0xx_StdPeriph_Driver/src/stm32f0xx_flash.c ****     OB->USER = OB_VDDA_ANALOG | 0xDF;
 907:../Libraries/STM32F0xx_StdPeriph_Driver/src/stm32f0xx_flash.c ****   
 908:../Libraries/STM32F0xx_StdPeriph_Driver/src/stm32f0xx_flash.c ****     /* Wait for last operation to be completed */
 909:../Libraries/STM32F0xx_StdPeriph_Driver/src/stm32f0xx_flash.c ****     status = FLASH_WaitForLastOperation(FLASH_ER_PRG_TIMEOUT);
 910:../Libraries/STM32F0xx_StdPeriph_Driver/src/stm32f0xx_flash.c **** 
 911:../Libraries/STM32F0xx_StdPeriph_Driver/src/stm32f0xx_flash.c ****     if(status != FLASH_TIMEOUT)
 912:../Libraries/STM32F0xx_StdPeriph_Driver/src/stm32f0xx_flash.c ****     {
 913:../Libraries/STM32F0xx_StdPeriph_Driver/src/stm32f0xx_flash.c ****       /* if the program operation is completed, disable the OPTPG Bit */
 914:../Libraries/STM32F0xx_StdPeriph_Driver/src/stm32f0xx_flash.c ****       FLASH->CR &= ~FLASH_CR_OPTPG;
 915:../Libraries/STM32F0xx_StdPeriph_Driver/src/stm32f0xx_flash.c ****     }
 916:../Libraries/STM32F0xx_StdPeriph_Driver/src/stm32f0xx_flash.c ****   }
 917:../Libraries/STM32F0xx_StdPeriph_Driver/src/stm32f0xx_flash.c ****   /* Return the Option Byte program Status */
 918:../Libraries/STM32F0xx_StdPeriph_Driver/src/stm32f0xx_flash.c ****   return status;
 919:../Libraries/STM32F0xx_StdPeriph_Driver/src/stm32f0xx_flash.c **** }
 920:../Libraries/STM32F0xx_StdPeriph_Driver/src/stm32f0xx_flash.c **** 
 921:../Libraries/STM32F0xx_StdPeriph_Driver/src/stm32f0xx_flash.c **** /**
 922:../Libraries/STM32F0xx_StdPeriph_Driver/src/stm32f0xx_flash.c ****   * @brief  Sets or resets the SRAM parity.
 923:../Libraries/STM32F0xx_StdPeriph_Driver/src/stm32f0xx_flash.c ****   * @param  OB_SRAM_Parity: Set or Reset the SRAM parity enable bit.
 924:../Libraries/STM32F0xx_StdPeriph_Driver/src/stm32f0xx_flash.c ****   *          This parameter can be one of the following values:
 925:../Libraries/STM32F0xx_StdPeriph_Driver/src/stm32f0xx_flash.c ****   *             @arg OB_SRAM_PARITY_SET: Set SRAM parity.
 926:../Libraries/STM32F0xx_StdPeriph_Driver/src/stm32f0xx_flash.c ****   *             @arg OB_SRAM_PARITY_RESET: Reset SRAM parity.
 927:../Libraries/STM32F0xx_StdPeriph_Driver/src/stm32f0xx_flash.c ****   * @retval None
 928:../Libraries/STM32F0xx_StdPeriph_Driver/src/stm32f0xx_flash.c ****   */
 929:../Libraries/STM32F0xx_StdPeriph_Driver/src/stm32f0xx_flash.c **** FLASH_Status FLASH_OB_SRAMParityConfig(uint8_t OB_SRAM_Parity)
 930:../Libraries/STM32F0xx_StdPeriph_Driver/src/stm32f0xx_flash.c **** {
 931:../Libraries/STM32F0xx_StdPeriph_Driver/src/stm32f0xx_flash.c ****   FLASH_Status status = FLASH_COMPLETE; 
 932:../Libraries/STM32F0xx_StdPeriph_Driver/src/stm32f0xx_flash.c **** 
 933:../Libraries/STM32F0xx_StdPeriph_Driver/src/stm32f0xx_flash.c ****   /* Check the parameters */
 934:../Libraries/STM32F0xx_StdPeriph_Driver/src/stm32f0xx_flash.c ****   assert_param(IS_OB_SRAM_PARITY(OB_SRAM_Parity));
 935:../Libraries/STM32F0xx_StdPeriph_Driver/src/stm32f0xx_flash.c **** 
 936:../Libraries/STM32F0xx_StdPeriph_Driver/src/stm32f0xx_flash.c ****   /* Wait for last operation to be completed */
 937:../Libraries/STM32F0xx_StdPeriph_Driver/src/stm32f0xx_flash.c ****   status = FLASH_WaitForLastOperation(FLASH_ER_PRG_TIMEOUT);
 938:../Libraries/STM32F0xx_StdPeriph_Driver/src/stm32f0xx_flash.c ****   
 939:../Libraries/STM32F0xx_StdPeriph_Driver/src/stm32f0xx_flash.c ****   if(status == FLASH_COMPLETE)
 940:../Libraries/STM32F0xx_StdPeriph_Driver/src/stm32f0xx_flash.c ****   {  
 941:../Libraries/STM32F0xx_StdPeriph_Driver/src/stm32f0xx_flash.c ****     /* Enable the Option Bytes Programming operation */
 942:../Libraries/STM32F0xx_StdPeriph_Driver/src/stm32f0xx_flash.c ****     FLASH->CR |= FLASH_CR_OPTPG; 
 943:../Libraries/STM32F0xx_StdPeriph_Driver/src/stm32f0xx_flash.c **** 
 944:../Libraries/STM32F0xx_StdPeriph_Driver/src/stm32f0xx_flash.c ****     OB->USER = OB_SRAM_Parity | 0xBF;
 945:../Libraries/STM32F0xx_StdPeriph_Driver/src/stm32f0xx_flash.c ****   
 946:../Libraries/STM32F0xx_StdPeriph_Driver/src/stm32f0xx_flash.c ****     /* Wait for last operation to be completed */
 947:../Libraries/STM32F0xx_StdPeriph_Driver/src/stm32f0xx_flash.c ****     status = FLASH_WaitForLastOperation(FLASH_ER_PRG_TIMEOUT);
 948:../Libraries/STM32F0xx_StdPeriph_Driver/src/stm32f0xx_flash.c **** 
 949:../Libraries/STM32F0xx_StdPeriph_Driver/src/stm32f0xx_flash.c ****     if(status != FLASH_TIMEOUT)
 950:../Libraries/STM32F0xx_StdPeriph_Driver/src/stm32f0xx_flash.c ****     {
 951:../Libraries/STM32F0xx_StdPeriph_Driver/src/stm32f0xx_flash.c ****       /* if the program operation is completed, disable the OPTPG Bit */
 952:../Libraries/STM32F0xx_StdPeriph_Driver/src/stm32f0xx_flash.c ****       FLASH->CR &= ~FLASH_CR_OPTPG;
 953:../Libraries/STM32F0xx_StdPeriph_Driver/src/stm32f0xx_flash.c ****     }
 954:../Libraries/STM32F0xx_StdPeriph_Driver/src/stm32f0xx_flash.c ****   }
 955:../Libraries/STM32F0xx_StdPeriph_Driver/src/stm32f0xx_flash.c ****   /* Return the Option Byte program Status */
 956:../Libraries/STM32F0xx_StdPeriph_Driver/src/stm32f0xx_flash.c ****   return status;
 957:../Libraries/STM32F0xx_StdPeriph_Driver/src/stm32f0xx_flash.c **** }
 958:../Libraries/STM32F0xx_StdPeriph_Driver/src/stm32f0xx_flash.c **** 
 959:../Libraries/STM32F0xx_StdPeriph_Driver/src/stm32f0xx_flash.c **** /**
 960:../Libraries/STM32F0xx_StdPeriph_Driver/src/stm32f0xx_flash.c ****   * @brief  Programs the FLASH User Option Byte: IWDG_SW, RST_STOP, RST_STDBY,
 961:../Libraries/STM32F0xx_StdPeriph_Driver/src/stm32f0xx_flash.c ****   *         BOOT1 and VDDA ANALOG monitoring.
 962:../Libraries/STM32F0xx_StdPeriph_Driver/src/stm32f0xx_flash.c ****   * @note   To correctly run this function, the FLASH_OB_Unlock() function must be called before.
 963:../Libraries/STM32F0xx_StdPeriph_Driver/src/stm32f0xx_flash.c ****   * @note   Call the FLASH_OB_Lock() to disable the flash control register access and the option
 964:../Libraries/STM32F0xx_StdPeriph_Driver/src/stm32f0xx_flash.c ****   *         bytes (recommended to protect the FLASH memory against possible unwanted operation)
 965:../Libraries/STM32F0xx_StdPeriph_Driver/src/stm32f0xx_flash.c ****   * @param  OB_USER: Selects all user option bytes
 966:../Libraries/STM32F0xx_StdPeriph_Driver/src/stm32f0xx_flash.c ****   *          This parameter is a combination of the following values:
 967:../Libraries/STM32F0xx_StdPeriph_Driver/src/stm32f0xx_flash.c ****   *             @arg OB_IWDG_SW / OB_IWDG_HW: Software / Hardware WDG selected
 968:../Libraries/STM32F0xx_StdPeriph_Driver/src/stm32f0xx_flash.c ****   *             @arg OB_STOP_NoRST / OB_STOP_RST: No reset / Reset generated when entering in STOP
 969:../Libraries/STM32F0xx_StdPeriph_Driver/src/stm32f0xx_flash.c ****   *             @arg OB_STDBY_NoRST / OB_STDBY_RST: No reset / Reset generated when entering in STA
 970:../Libraries/STM32F0xx_StdPeriph_Driver/src/stm32f0xx_flash.c ****   *             @arg OB_BOOT1_RESET / OB_BOOT1_SET: BOOT1 Reset / Set
 971:../Libraries/STM32F0xx_StdPeriph_Driver/src/stm32f0xx_flash.c ****   *             @arg OB_VDDA_ANALOG_ON / OB_VDDA_ANALOG_OFF: Analog monitoring on VDDA Power source
 972:../Libraries/STM32F0xx_StdPeriph_Driver/src/stm32f0xx_flash.c ****   *             @arg OB_SRAM_PARITY_SET / OB_SRAM_PARITY_RESET: SRAM Parity SET / RESET
 973:../Libraries/STM32F0xx_StdPeriph_Driver/src/stm32f0xx_flash.c ****   *             @arg OB_BOOT0_RESET / OB_BOOT0_SET: BOOT0 Reset / Set
 974:../Libraries/STM32F0xx_StdPeriph_Driver/src/stm32f0xx_flash.c ****   *             @arg OB_BOOT0_SW / OB_BOOT0_SW: BOOT0 pin disabled / BOOT0 pin bonded with GPIO    
 975:../Libraries/STM32F0xx_StdPeriph_Driver/src/stm32f0xx_flash.c ****   * @retval FLASH Status: The returned value can be: 
 976:../Libraries/STM32F0xx_StdPeriph_Driver/src/stm32f0xx_flash.c ****   *         FLASH_ERROR_PROGRAM, FLASH_ERROR_WRP, FLASH_COMPLETE or FLASH_TIMEOUT.
 977:../Libraries/STM32F0xx_StdPeriph_Driver/src/stm32f0xx_flash.c ****   */
 978:../Libraries/STM32F0xx_StdPeriph_Driver/src/stm32f0xx_flash.c **** FLASH_Status FLASH_OB_WriteUser(uint8_t OB_USER)
 979:../Libraries/STM32F0xx_StdPeriph_Driver/src/stm32f0xx_flash.c **** {
 980:../Libraries/STM32F0xx_StdPeriph_Driver/src/stm32f0xx_flash.c ****   FLASH_Status status = FLASH_COMPLETE; 
 981:../Libraries/STM32F0xx_StdPeriph_Driver/src/stm32f0xx_flash.c **** 
 982:../Libraries/STM32F0xx_StdPeriph_Driver/src/stm32f0xx_flash.c ****   /* Wait for last operation to be completed */
 983:../Libraries/STM32F0xx_StdPeriph_Driver/src/stm32f0xx_flash.c ****   status = FLASH_WaitForLastOperation(FLASH_ER_PRG_TIMEOUT);
 984:../Libraries/STM32F0xx_StdPeriph_Driver/src/stm32f0xx_flash.c ****   
 985:../Libraries/STM32F0xx_StdPeriph_Driver/src/stm32f0xx_flash.c ****   if(status == FLASH_COMPLETE)
 986:../Libraries/STM32F0xx_StdPeriph_Driver/src/stm32f0xx_flash.c ****   {
 987:../Libraries/STM32F0xx_StdPeriph_Driver/src/stm32f0xx_flash.c ****     /* Enable the Option Bytes Programming operation */
 988:../Libraries/STM32F0xx_StdPeriph_Driver/src/stm32f0xx_flash.c ****     FLASH->CR |= FLASH_CR_OPTPG; 
 989:../Libraries/STM32F0xx_StdPeriph_Driver/src/stm32f0xx_flash.c **** 
 990:../Libraries/STM32F0xx_StdPeriph_Driver/src/stm32f0xx_flash.c ****     OB->USER = OB_USER;
 991:../Libraries/STM32F0xx_StdPeriph_Driver/src/stm32f0xx_flash.c ****   
 992:../Libraries/STM32F0xx_StdPeriph_Driver/src/stm32f0xx_flash.c ****     /* Wait for last operation to be completed */
 993:../Libraries/STM32F0xx_StdPeriph_Driver/src/stm32f0xx_flash.c ****     status = FLASH_WaitForLastOperation(FLASH_ER_PRG_TIMEOUT);
 994:../Libraries/STM32F0xx_StdPeriph_Driver/src/stm32f0xx_flash.c **** 
 995:../Libraries/STM32F0xx_StdPeriph_Driver/src/stm32f0xx_flash.c ****     if(status != FLASH_TIMEOUT)
 996:../Libraries/STM32F0xx_StdPeriph_Driver/src/stm32f0xx_flash.c ****     {
 997:../Libraries/STM32F0xx_StdPeriph_Driver/src/stm32f0xx_flash.c ****       /* If the program operation is completed, disable the OPTPG Bit */
 998:../Libraries/STM32F0xx_StdPeriph_Driver/src/stm32f0xx_flash.c ****       FLASH->CR &= ~FLASH_CR_OPTPG;
 999:../Libraries/STM32F0xx_StdPeriph_Driver/src/stm32f0xx_flash.c ****     }
1000:../Libraries/STM32F0xx_StdPeriph_Driver/src/stm32f0xx_flash.c ****   }    
1001:../Libraries/STM32F0xx_StdPeriph_Driver/src/stm32f0xx_flash.c ****   /* Return the Option Byte program Status */
1002:../Libraries/STM32F0xx_StdPeriph_Driver/src/stm32f0xx_flash.c ****   return status;
1003:../Libraries/STM32F0xx_StdPeriph_Driver/src/stm32f0xx_flash.c **** 
1004:../Libraries/STM32F0xx_StdPeriph_Driver/src/stm32f0xx_flash.c **** }
1005:../Libraries/STM32F0xx_StdPeriph_Driver/src/stm32f0xx_flash.c **** 
1006:../Libraries/STM32F0xx_StdPeriph_Driver/src/stm32f0xx_flash.c **** /**
1007:../Libraries/STM32F0xx_StdPeriph_Driver/src/stm32f0xx_flash.c ****   * @brief  Programs a half word at a specified Option Byte Data address.
1008:../Libraries/STM32F0xx_StdPeriph_Driver/src/stm32f0xx_flash.c ****   * @note   To correctly run this function, the FLASH_OB_Unlock() function must be called before.
1009:../Libraries/STM32F0xx_StdPeriph_Driver/src/stm32f0xx_flash.c ****   * @note   Call the FLASH_OB_Lock() to disable the flash control register access and the option
1010:../Libraries/STM32F0xx_StdPeriph_Driver/src/stm32f0xx_flash.c ****   *         bytes (recommended to protect the FLASH memory against possible unwanted operation)
1011:../Libraries/STM32F0xx_StdPeriph_Driver/src/stm32f0xx_flash.c ****   * @param  Address: specifies the address to be programmed.
1012:../Libraries/STM32F0xx_StdPeriph_Driver/src/stm32f0xx_flash.c ****   *          This parameter can be 0x1FFFF804 or 0x1FFFF806. 
1013:../Libraries/STM32F0xx_StdPeriph_Driver/src/stm32f0xx_flash.c ****   * @param  Data: specifies the data to be programmed.
1014:../Libraries/STM32F0xx_StdPeriph_Driver/src/stm32f0xx_flash.c ****   * @retval FLASH Status: The returned value can be: FLASH_ERROR_PG,
1015:../Libraries/STM32F0xx_StdPeriph_Driver/src/stm32f0xx_flash.c ****   *         FLASH_ERROR_WRP, FLASH_COMPLETE or FLASH_TIMEOUT.
1016:../Libraries/STM32F0xx_StdPeriph_Driver/src/stm32f0xx_flash.c ****   */
1017:../Libraries/STM32F0xx_StdPeriph_Driver/src/stm32f0xx_flash.c **** FLASH_Status FLASH_OB_ProgramData(uint32_t Address, uint8_t Data)
1018:../Libraries/STM32F0xx_StdPeriph_Driver/src/stm32f0xx_flash.c **** {
1019:../Libraries/STM32F0xx_StdPeriph_Driver/src/stm32f0xx_flash.c ****   FLASH_Status status = FLASH_COMPLETE;
1020:../Libraries/STM32F0xx_StdPeriph_Driver/src/stm32f0xx_flash.c ****   /* Check the parameters */
1021:../Libraries/STM32F0xx_StdPeriph_Driver/src/stm32f0xx_flash.c ****   assert_param(IS_OB_DATA_ADDRESS(Address));
1022:../Libraries/STM32F0xx_StdPeriph_Driver/src/stm32f0xx_flash.c ****   status = FLASH_WaitForLastOperation(FLASH_ER_PRG_TIMEOUT);
1023:../Libraries/STM32F0xx_StdPeriph_Driver/src/stm32f0xx_flash.c **** 
1024:../Libraries/STM32F0xx_StdPeriph_Driver/src/stm32f0xx_flash.c ****   if(status == FLASH_COMPLETE)
1025:../Libraries/STM32F0xx_StdPeriph_Driver/src/stm32f0xx_flash.c ****   {
1026:../Libraries/STM32F0xx_StdPeriph_Driver/src/stm32f0xx_flash.c ****     /* Enables the Option Bytes Programming operation */
1027:../Libraries/STM32F0xx_StdPeriph_Driver/src/stm32f0xx_flash.c ****     FLASH->CR |= FLASH_CR_OPTPG; 
1028:../Libraries/STM32F0xx_StdPeriph_Driver/src/stm32f0xx_flash.c ****     *(__IO uint16_t*)Address = Data;
1029:../Libraries/STM32F0xx_StdPeriph_Driver/src/stm32f0xx_flash.c ****     
1030:../Libraries/STM32F0xx_StdPeriph_Driver/src/stm32f0xx_flash.c ****     /* Wait for last operation to be completed */
1031:../Libraries/STM32F0xx_StdPeriph_Driver/src/stm32f0xx_flash.c ****     status = FLASH_WaitForLastOperation(FLASH_ER_PRG_TIMEOUT);
1032:../Libraries/STM32F0xx_StdPeriph_Driver/src/stm32f0xx_flash.c ****     
1033:../Libraries/STM32F0xx_StdPeriph_Driver/src/stm32f0xx_flash.c ****     if(status != FLASH_TIMEOUT)
1034:../Libraries/STM32F0xx_StdPeriph_Driver/src/stm32f0xx_flash.c ****     {
1035:../Libraries/STM32F0xx_StdPeriph_Driver/src/stm32f0xx_flash.c ****       /* If the program operation is completed, disable the OPTPG Bit */
1036:../Libraries/STM32F0xx_StdPeriph_Driver/src/stm32f0xx_flash.c ****       FLASH->CR &= ~FLASH_CR_OPTPG;
1037:../Libraries/STM32F0xx_StdPeriph_Driver/src/stm32f0xx_flash.c ****     }
1038:../Libraries/STM32F0xx_StdPeriph_Driver/src/stm32f0xx_flash.c ****   }
1039:../Libraries/STM32F0xx_StdPeriph_Driver/src/stm32f0xx_flash.c ****   /* Return the Option Byte Data Program Status */
1040:../Libraries/STM32F0xx_StdPeriph_Driver/src/stm32f0xx_flash.c ****   return status;
1041:../Libraries/STM32F0xx_StdPeriph_Driver/src/stm32f0xx_flash.c **** }
1042:../Libraries/STM32F0xx_StdPeriph_Driver/src/stm32f0xx_flash.c **** 
1043:../Libraries/STM32F0xx_StdPeriph_Driver/src/stm32f0xx_flash.c **** /**
1044:../Libraries/STM32F0xx_StdPeriph_Driver/src/stm32f0xx_flash.c ****   * @brief  Returns the FLASH User Option Bytes values.
1045:../Libraries/STM32F0xx_StdPeriph_Driver/src/stm32f0xx_flash.c ****   * @param  None
1046:../Libraries/STM32F0xx_StdPeriph_Driver/src/stm32f0xx_flash.c ****   * @retval The FLASH User Option Bytes .
1047:../Libraries/STM32F0xx_StdPeriph_Driver/src/stm32f0xx_flash.c ****   */
1048:../Libraries/STM32F0xx_StdPeriph_Driver/src/stm32f0xx_flash.c **** uint8_t FLASH_OB_GetUser(void)
1049:../Libraries/STM32F0xx_StdPeriph_Driver/src/stm32f0xx_flash.c **** {
 299              		.loc 1 1049 0
 300              		.cfi_startproc
1050:../Libraries/STM32F0xx_StdPeriph_Driver/src/stm32f0xx_flash.c ****   /* Return the User Option Byte */
1051:../Libraries/STM32F0xx_StdPeriph_Driver/src/stm32f0xx_flash.c ****   return (uint8_t)(FLASH->OBR >> 8);
 301              		.loc 1 1051 0
 302 0000 024B     		ldr	r3, .L34
1052:../Libraries/STM32F0xx_StdPeriph_Driver/src/stm32f0xx_flash.c **** }
 303              		.loc 1 1052 0
 304              		@ sp needed for prologue
1051:../Libraries/STM32F0xx_StdPeriph_Driver/src/stm32f0xx_flash.c ****   return (uint8_t)(FLASH->OBR >> 8);
 305              		.loc 1 1051 0
 306 0002 D869     		ldr	r0, [r3, #28]
 307 0004 000A     		lsr	r0, r0, #8
 308 0006 C0B2     		uxtb	r0, r0
 309              		.loc 1 1052 0
 310 0008 7047     		bx	lr
 311              	.L35:
 312 000a C046     		.align	2
 313              	.L34:
 314 000c 00200240 		.word	1073881088
 315              		.cfi_endproc
 316              	.LFE56:
 318              		.section	.text.FLASH_OB_GetWRP,"ax",%progbits
 319              		.align	1
 320              		.global	FLASH_OB_GetWRP
 321              		.code	16
 322              		.thumb_func
 324              	FLASH_OB_GetWRP:
 325              	.LFB57:
1053:../Libraries/STM32F0xx_StdPeriph_Driver/src/stm32f0xx_flash.c **** 
1054:../Libraries/STM32F0xx_StdPeriph_Driver/src/stm32f0xx_flash.c **** /**
1055:../Libraries/STM32F0xx_StdPeriph_Driver/src/stm32f0xx_flash.c ****   * @brief  Returns the FLASH Write Protection Option Bytes value.
1056:../Libraries/STM32F0xx_StdPeriph_Driver/src/stm32f0xx_flash.c ****   * @param  None
1057:../Libraries/STM32F0xx_StdPeriph_Driver/src/stm32f0xx_flash.c ****   * @retval The FLASH Write Protection Option Bytes value
1058:../Libraries/STM32F0xx_StdPeriph_Driver/src/stm32f0xx_flash.c ****   */
1059:../Libraries/STM32F0xx_StdPeriph_Driver/src/stm32f0xx_flash.c **** uint32_t FLASH_OB_GetWRP(void)
1060:../Libraries/STM32F0xx_StdPeriph_Driver/src/stm32f0xx_flash.c **** {
 326              		.loc 1 1060 0
 327              		.cfi_startproc
1061:../Libraries/STM32F0xx_StdPeriph_Driver/src/stm32f0xx_flash.c ****   /* Return the FLASH write protection Register value */
1062:../Libraries/STM32F0xx_StdPeriph_Driver/src/stm32f0xx_flash.c ****   return (uint32_t)(FLASH->WRPR);
 328              		.loc 1 1062 0
 329 0000 014B     		ldr	r3, .L37
1063:../Libraries/STM32F0xx_StdPeriph_Driver/src/stm32f0xx_flash.c **** }
 330              		.loc 1 1063 0
 331              		@ sp needed for prologue
1062:../Libraries/STM32F0xx_StdPeriph_Driver/src/stm32f0xx_flash.c ****   return (uint32_t)(FLASH->WRPR);
 332              		.loc 1 1062 0
 333 0002 186A     		ldr	r0, [r3, #32]
 334              		.loc 1 1063 0
 335 0004 7047     		bx	lr
 336              	.L38:
 337 0006 C046     		.align	2
 338              	.L37:
 339 0008 00200240 		.word	1073881088
 340              		.cfi_endproc
 341              	.LFE57:
 343              		.section	.text.FLASH_OB_GetRDP,"ax",%progbits
 344              		.align	1
 345              		.global	FLASH_OB_GetRDP
 346              		.code	16
 347              		.thumb_func
 349              	FLASH_OB_GetRDP:
 350              	.LFB58:
1064:../Libraries/STM32F0xx_StdPeriph_Driver/src/stm32f0xx_flash.c **** 
1065:../Libraries/STM32F0xx_StdPeriph_Driver/src/stm32f0xx_flash.c **** /**
1066:../Libraries/STM32F0xx_StdPeriph_Driver/src/stm32f0xx_flash.c ****   * @brief  Checks whether the FLASH Read out Protection Status is set or not.
1067:../Libraries/STM32F0xx_StdPeriph_Driver/src/stm32f0xx_flash.c ****   * @param  None
1068:../Libraries/STM32F0xx_StdPeriph_Driver/src/stm32f0xx_flash.c ****   * @retval FLASH ReadOut Protection Status(SET or RESET)
1069:../Libraries/STM32F0xx_StdPeriph_Driver/src/stm32f0xx_flash.c ****   */
1070:../Libraries/STM32F0xx_StdPeriph_Driver/src/stm32f0xx_flash.c **** FlagStatus FLASH_OB_GetRDP(void)
1071:../Libraries/STM32F0xx_StdPeriph_Driver/src/stm32f0xx_flash.c **** {
 351              		.loc 1 1071 0
 352              		.cfi_startproc
 353              	.LVL8:
1072:../Libraries/STM32F0xx_StdPeriph_Driver/src/stm32f0xx_flash.c ****   FlagStatus readstatus = RESET;
1073:../Libraries/STM32F0xx_StdPeriph_Driver/src/stm32f0xx_flash.c ****   
1074:../Libraries/STM32F0xx_StdPeriph_Driver/src/stm32f0xx_flash.c ****   if ((uint8_t)(FLASH->OBR & (FLASH_OBR_RDPRT1 | FLASH_OBR_RDPRT2)) != RESET)
 354              		.loc 1 1074 0
 355 0000 034B     		ldr	r3, .L40
1075:../Libraries/STM32F0xx_StdPeriph_Driver/src/stm32f0xx_flash.c ****   {
1076:../Libraries/STM32F0xx_StdPeriph_Driver/src/stm32f0xx_flash.c ****     readstatus = SET;
1077:../Libraries/STM32F0xx_StdPeriph_Driver/src/stm32f0xx_flash.c ****   }
1078:../Libraries/STM32F0xx_StdPeriph_Driver/src/stm32f0xx_flash.c ****   else
1079:../Libraries/STM32F0xx_StdPeriph_Driver/src/stm32f0xx_flash.c ****   {
1080:../Libraries/STM32F0xx_StdPeriph_Driver/src/stm32f0xx_flash.c ****     readstatus = RESET;
1081:../Libraries/STM32F0xx_StdPeriph_Driver/src/stm32f0xx_flash.c ****   }
1082:../Libraries/STM32F0xx_StdPeriph_Driver/src/stm32f0xx_flash.c ****   return readstatus;
1083:../Libraries/STM32F0xx_StdPeriph_Driver/src/stm32f0xx_flash.c **** }
 356              		.loc 1 1083 0
 357              		@ sp needed for prologue
1074:../Libraries/STM32F0xx_StdPeriph_Driver/src/stm32f0xx_flash.c ****   if ((uint8_t)(FLASH->OBR & (FLASH_OBR_RDPRT1 | FLASH_OBR_RDPRT2)) != RESET)
 358              		.loc 1 1074 0
 359 0002 D869     		ldr	r0, [r3, #28]
 360              	.LVL9:
 361 0004 0623     		mov	r3, #6
 362 0006 1840     		and	r0, r3
 363              	.LVL10:
1082:../Libraries/STM32F0xx_StdPeriph_Driver/src/stm32f0xx_flash.c ****   return readstatus;
 364              		.loc 1 1082 0
 365 0008 431E     		sub	r3, r0, #1
 366 000a 9841     		sbc	r0, r0, r3
 367              		.loc 1 1083 0
 368 000c 7047     		bx	lr
 369              	.L41:
 370 000e C046     		.align	2
 371              	.L40:
 372 0010 00200240 		.word	1073881088
 373              		.cfi_endproc
 374              	.LFE58:
 376              		.section	.text.FLASH_ITConfig,"ax",%progbits
 377              		.align	1
 378              		.global	FLASH_ITConfig
 379              		.code	16
 380              		.thumb_func
 382              	FLASH_ITConfig:
 383              	.LFB59:
1084:../Libraries/STM32F0xx_StdPeriph_Driver/src/stm32f0xx_flash.c **** 
1085:../Libraries/STM32F0xx_StdPeriph_Driver/src/stm32f0xx_flash.c **** /**
1086:../Libraries/STM32F0xx_StdPeriph_Driver/src/stm32f0xx_flash.c ****   * @}
1087:../Libraries/STM32F0xx_StdPeriph_Driver/src/stm32f0xx_flash.c ****   */
1088:../Libraries/STM32F0xx_StdPeriph_Driver/src/stm32f0xx_flash.c **** 
1089:../Libraries/STM32F0xx_StdPeriph_Driver/src/stm32f0xx_flash.c **** /** @defgroup FLASH_Group4 Interrupts and flags management functions
1090:../Libraries/STM32F0xx_StdPeriph_Driver/src/stm32f0xx_flash.c ****  *  @brief   Interrupts and flags management functions
1091:../Libraries/STM32F0xx_StdPeriph_Driver/src/stm32f0xx_flash.c ****  *
1092:../Libraries/STM32F0xx_StdPeriph_Driver/src/stm32f0xx_flash.c **** @verbatim   
1093:../Libraries/STM32F0xx_StdPeriph_Driver/src/stm32f0xx_flash.c ****  ===============================================================================
1094:../Libraries/STM32F0xx_StdPeriph_Driver/src/stm32f0xx_flash.c ****              ##### Interrupts and flags management functions #####
1095:../Libraries/STM32F0xx_StdPeriph_Driver/src/stm32f0xx_flash.c ****  ===============================================================================  
1096:../Libraries/STM32F0xx_StdPeriph_Driver/src/stm32f0xx_flash.c **** 
1097:../Libraries/STM32F0xx_StdPeriph_Driver/src/stm32f0xx_flash.c **** @endverbatim
1098:../Libraries/STM32F0xx_StdPeriph_Driver/src/stm32f0xx_flash.c ****   * @{
1099:../Libraries/STM32F0xx_StdPeriph_Driver/src/stm32f0xx_flash.c ****   */
1100:../Libraries/STM32F0xx_StdPeriph_Driver/src/stm32f0xx_flash.c **** 
1101:../Libraries/STM32F0xx_StdPeriph_Driver/src/stm32f0xx_flash.c **** /**
1102:../Libraries/STM32F0xx_StdPeriph_Driver/src/stm32f0xx_flash.c ****   * @brief  Enables or disables the specified FLASH interrupts.
1103:../Libraries/STM32F0xx_StdPeriph_Driver/src/stm32f0xx_flash.c ****   * @param  FLASH_IT: specifies the FLASH interrupt sources to be enabled or 
1104:../Libraries/STM32F0xx_StdPeriph_Driver/src/stm32f0xx_flash.c ****   *         disabled.
1105:../Libraries/STM32F0xx_StdPeriph_Driver/src/stm32f0xx_flash.c ****   *          This parameter can be any combination of the following values:
1106:../Libraries/STM32F0xx_StdPeriph_Driver/src/stm32f0xx_flash.c ****   *             @arg FLASH_IT_EOP: FLASH end of programming Interrupt
1107:../Libraries/STM32F0xx_StdPeriph_Driver/src/stm32f0xx_flash.c ****   *             @arg FLASH_IT_ERR: FLASH Error Interrupt
1108:../Libraries/STM32F0xx_StdPeriph_Driver/src/stm32f0xx_flash.c ****   * @retval None 
1109:../Libraries/STM32F0xx_StdPeriph_Driver/src/stm32f0xx_flash.c ****   */
1110:../Libraries/STM32F0xx_StdPeriph_Driver/src/stm32f0xx_flash.c **** void FLASH_ITConfig(uint32_t FLASH_IT, FunctionalState NewState)
1111:../Libraries/STM32F0xx_StdPeriph_Driver/src/stm32f0xx_flash.c **** {
 384              		.loc 1 1111 0
 385              		.cfi_startproc
 386              	.LVL11:
 387 0000 054B     		ldr	r3, .L45
 388 0002 00B5     		push	{lr}
 389              	.LCFI3:
 390              		.cfi_def_cfa_offset 4
 391              		.cfi_offset 14, -4
1112:../Libraries/STM32F0xx_StdPeriph_Driver/src/stm32f0xx_flash.c ****   /* Check the parameters */
1113:../Libraries/STM32F0xx_StdPeriph_Driver/src/stm32f0xx_flash.c ****   assert_param(IS_FLASH_IT(FLASH_IT)); 
1114:../Libraries/STM32F0xx_StdPeriph_Driver/src/stm32f0xx_flash.c ****   assert_param(IS_FUNCTIONAL_STATE(NewState));
1115:../Libraries/STM32F0xx_StdPeriph_Driver/src/stm32f0xx_flash.c ****   
1116:../Libraries/STM32F0xx_StdPeriph_Driver/src/stm32f0xx_flash.c ****   if(NewState != DISABLE)
1117:../Libraries/STM32F0xx_StdPeriph_Driver/src/stm32f0xx_flash.c ****   {
1118:../Libraries/STM32F0xx_StdPeriph_Driver/src/stm32f0xx_flash.c ****     /* Enable the interrupt sources */
1119:../Libraries/STM32F0xx_StdPeriph_Driver/src/stm32f0xx_flash.c ****     FLASH->CR |= FLASH_IT;
 392              		.loc 1 1119 0
 393 0004 1A69     		ldr	r2, [r3, #16]
1116:../Libraries/STM32F0xx_StdPeriph_Driver/src/stm32f0xx_flash.c ****   if(NewState != DISABLE)
 394              		.loc 1 1116 0
 395 0006 0029     		cmp	r1, #0
 396 0008 02D0     		beq	.L43
 397              		.loc 1 1119 0
 398 000a 1043     		orr	r0, r2
 399              	.LVL12:
 400 000c 1861     		str	r0, [r3, #16]
 401 000e 01E0     		b	.L42
 402              	.LVL13:
 403              	.L43:
1120:../Libraries/STM32F0xx_StdPeriph_Driver/src/stm32f0xx_flash.c ****   }
1121:../Libraries/STM32F0xx_StdPeriph_Driver/src/stm32f0xx_flash.c ****   else
1122:../Libraries/STM32F0xx_StdPeriph_Driver/src/stm32f0xx_flash.c ****   {
1123:../Libraries/STM32F0xx_StdPeriph_Driver/src/stm32f0xx_flash.c ****     /* Disable the interrupt sources */
1124:../Libraries/STM32F0xx_StdPeriph_Driver/src/stm32f0xx_flash.c ****     FLASH->CR &= ~(uint32_t)FLASH_IT;
 404              		.loc 1 1124 0
 405 0010 8243     		bic	r2, r0
 406 0012 1A61     		str	r2, [r3, #16]
 407              	.LVL14:
 408              	.L42:
1125:../Libraries/STM32F0xx_StdPeriph_Driver/src/stm32f0xx_flash.c ****   }
1126:../Libraries/STM32F0xx_StdPeriph_Driver/src/stm32f0xx_flash.c **** }
 409              		.loc 1 1126 0
 410              		@ sp needed for prologue
 411 0014 00BD     		pop	{pc}
 412              	.L46:
 413 0016 C046     		.align	2
 414              	.L45:
 415 0018 00200240 		.word	1073881088
 416              		.cfi_endproc
 417              	.LFE59:
 419              		.section	.text.FLASH_GetFlagStatus,"ax",%progbits
 420              		.align	1
 421              		.global	FLASH_GetFlagStatus
 422              		.code	16
 423              		.thumb_func
 425              	FLASH_GetFlagStatus:
 426              	.LFB60:
1127:../Libraries/STM32F0xx_StdPeriph_Driver/src/stm32f0xx_flash.c **** 
1128:../Libraries/STM32F0xx_StdPeriph_Driver/src/stm32f0xx_flash.c **** /**
1129:../Libraries/STM32F0xx_StdPeriph_Driver/src/stm32f0xx_flash.c ****   * @brief  Checks whether the specified FLASH flag is set or not.
1130:../Libraries/STM32F0xx_StdPeriph_Driver/src/stm32f0xx_flash.c ****   * @param  FLASH_FLAG: specifies the FLASH flag to check.
1131:../Libraries/STM32F0xx_StdPeriph_Driver/src/stm32f0xx_flash.c ****   *          This parameter can be one of the following values:
1132:../Libraries/STM32F0xx_StdPeriph_Driver/src/stm32f0xx_flash.c ****   *             @arg FLASH_FLAG_BSY: FLASH write/erase operations in progress flag 
1133:../Libraries/STM32F0xx_StdPeriph_Driver/src/stm32f0xx_flash.c ****   *             @arg FLASH_FLAG_PGERR: FLASH Programming error flag flag
1134:../Libraries/STM32F0xx_StdPeriph_Driver/src/stm32f0xx_flash.c ****   *             @arg FLASH_FLAG_WRPERR: FLASH Write protected error flag
1135:../Libraries/STM32F0xx_StdPeriph_Driver/src/stm32f0xx_flash.c ****   *             @arg FLASH_FLAG_EOP: FLASH End of Programming flag
1136:../Libraries/STM32F0xx_StdPeriph_Driver/src/stm32f0xx_flash.c ****   * @retval The new state of FLASH_FLAG (SET or RESET).
1137:../Libraries/STM32F0xx_StdPeriph_Driver/src/stm32f0xx_flash.c ****   */
1138:../Libraries/STM32F0xx_StdPeriph_Driver/src/stm32f0xx_flash.c **** FlagStatus FLASH_GetFlagStatus(uint32_t FLASH_FLAG)
1139:../Libraries/STM32F0xx_StdPeriph_Driver/src/stm32f0xx_flash.c **** {
 427              		.loc 1 1139 0
 428              		.cfi_startproc
 429              	.LVL15:
1140:../Libraries/STM32F0xx_StdPeriph_Driver/src/stm32f0xx_flash.c ****   FlagStatus bitstatus = RESET;
1141:../Libraries/STM32F0xx_StdPeriph_Driver/src/stm32f0xx_flash.c **** 
1142:../Libraries/STM32F0xx_StdPeriph_Driver/src/stm32f0xx_flash.c ****   /* Check the parameters */
1143:../Libraries/STM32F0xx_StdPeriph_Driver/src/stm32f0xx_flash.c ****   assert_param(IS_FLASH_GET_FLAG(FLASH_FLAG));
1144:../Libraries/STM32F0xx_StdPeriph_Driver/src/stm32f0xx_flash.c **** 
1145:../Libraries/STM32F0xx_StdPeriph_Driver/src/stm32f0xx_flash.c ****   if((FLASH->SR & FLASH_FLAG) != (uint32_t)RESET)
 430              		.loc 1 1145 0
 431 0000 024B     		ldr	r3, .L48
1146:../Libraries/STM32F0xx_StdPeriph_Driver/src/stm32f0xx_flash.c ****   {
1147:../Libraries/STM32F0xx_StdPeriph_Driver/src/stm32f0xx_flash.c ****     bitstatus = SET;
1148:../Libraries/STM32F0xx_StdPeriph_Driver/src/stm32f0xx_flash.c ****   }
1149:../Libraries/STM32F0xx_StdPeriph_Driver/src/stm32f0xx_flash.c ****   else
1150:../Libraries/STM32F0xx_StdPeriph_Driver/src/stm32f0xx_flash.c ****   {
1151:../Libraries/STM32F0xx_StdPeriph_Driver/src/stm32f0xx_flash.c ****     bitstatus = RESET;
1152:../Libraries/STM32F0xx_StdPeriph_Driver/src/stm32f0xx_flash.c ****   }
1153:../Libraries/STM32F0xx_StdPeriph_Driver/src/stm32f0xx_flash.c ****   /* Return the new state of FLASH_FLAG (SET or RESET) */
1154:../Libraries/STM32F0xx_StdPeriph_Driver/src/stm32f0xx_flash.c ****   return bitstatus; 
1155:../Libraries/STM32F0xx_StdPeriph_Driver/src/stm32f0xx_flash.c **** }
 432              		.loc 1 1155 0
 433              		@ sp needed for prologue
1145:../Libraries/STM32F0xx_StdPeriph_Driver/src/stm32f0xx_flash.c ****   if((FLASH->SR & FLASH_FLAG) != (uint32_t)RESET)
 434              		.loc 1 1145 0
 435 0002 DB68     		ldr	r3, [r3, #12]
 436              	.LVL16:
 437 0004 1840     		and	r0, r3
 438              	.LVL17:
1154:../Libraries/STM32F0xx_StdPeriph_Driver/src/stm32f0xx_flash.c ****   return bitstatus; 
 439              		.loc 1 1154 0
 440 0006 431E     		sub	r3, r0, #1
 441 0008 9841     		sbc	r0, r0, r3
 442              	.LVL18:
 443              		.loc 1 1155 0
 444 000a 7047     		bx	lr
 445              	.L49:
 446              		.align	2
 447              	.L48:
 448 000c 00200240 		.word	1073881088
 449              		.cfi_endproc
 450              	.LFE60:
 452              		.section	.text.FLASH_ClearFlag,"ax",%progbits
 453              		.align	1
 454              		.global	FLASH_ClearFlag
 455              		.code	16
 456              		.thumb_func
 458              	FLASH_ClearFlag:
 459              	.LFB61:
1156:../Libraries/STM32F0xx_StdPeriph_Driver/src/stm32f0xx_flash.c **** 
1157:../Libraries/STM32F0xx_StdPeriph_Driver/src/stm32f0xx_flash.c **** /**
1158:../Libraries/STM32F0xx_StdPeriph_Driver/src/stm32f0xx_flash.c ****   * @brief  Clears the FLASH's pending flags.
1159:../Libraries/STM32F0xx_StdPeriph_Driver/src/stm32f0xx_flash.c ****   * @param  FLASH_FLAG: specifies the FLASH flags to clear.
1160:../Libraries/STM32F0xx_StdPeriph_Driver/src/stm32f0xx_flash.c ****   *          This parameter can be any combination of the following values:
1161:../Libraries/STM32F0xx_StdPeriph_Driver/src/stm32f0xx_flash.c ****   *             @arg FLASH_FLAG_PGERR: FLASH Programming error flag flag
1162:../Libraries/STM32F0xx_StdPeriph_Driver/src/stm32f0xx_flash.c ****   *             @arg FLASH_FLAG_WRPERR: FLASH Write protected error flag
1163:../Libraries/STM32F0xx_StdPeriph_Driver/src/stm32f0xx_flash.c ****   *             @arg FLASH_FLAG_EOP: FLASH End of Programming flag
1164:../Libraries/STM32F0xx_StdPeriph_Driver/src/stm32f0xx_flash.c ****   * @retval None
1165:../Libraries/STM32F0xx_StdPeriph_Driver/src/stm32f0xx_flash.c ****   */
1166:../Libraries/STM32F0xx_StdPeriph_Driver/src/stm32f0xx_flash.c **** void FLASH_ClearFlag(uint32_t FLASH_FLAG)
1167:../Libraries/STM32F0xx_StdPeriph_Driver/src/stm32f0xx_flash.c **** {
 460              		.loc 1 1167 0
 461              		.cfi_startproc
 462              	.LVL19:
1168:../Libraries/STM32F0xx_StdPeriph_Driver/src/stm32f0xx_flash.c ****   /* Check the parameters */
1169:../Libraries/STM32F0xx_StdPeriph_Driver/src/stm32f0xx_flash.c ****   assert_param(IS_FLASH_CLEAR_FLAG(FLASH_FLAG));
1170:../Libraries/STM32F0xx_StdPeriph_Driver/src/stm32f0xx_flash.c ****   
1171:../Libraries/STM32F0xx_StdPeriph_Driver/src/stm32f0xx_flash.c ****   /* Clear the flags */
1172:../Libraries/STM32F0xx_StdPeriph_Driver/src/stm32f0xx_flash.c ****   FLASH->SR = FLASH_FLAG;
 463              		.loc 1 1172 0
 464 0000 014B     		ldr	r3, .L51
1173:../Libraries/STM32F0xx_StdPeriph_Driver/src/stm32f0xx_flash.c **** }
 465              		.loc 1 1173 0
 466              		@ sp needed for prologue
1172:../Libraries/STM32F0xx_StdPeriph_Driver/src/stm32f0xx_flash.c ****   FLASH->SR = FLASH_FLAG;
 467              		.loc 1 1172 0
 468 0002 D860     		str	r0, [r3, #12]
 469              		.loc 1 1173 0
 470 0004 7047     		bx	lr
 471              	.L52:
 472 0006 C046     		.align	2
 473              	.L51:
 474 0008 00200240 		.word	1073881088
 475              		.cfi_endproc
 476              	.LFE61:
 478              		.section	.text.FLASH_GetStatus,"ax",%progbits
 479              		.align	1
 480              		.global	FLASH_GetStatus
 481              		.code	16
 482              		.thumb_func
 484              	FLASH_GetStatus:
 485              	.LFB62:
1174:../Libraries/STM32F0xx_StdPeriph_Driver/src/stm32f0xx_flash.c **** 
1175:../Libraries/STM32F0xx_StdPeriph_Driver/src/stm32f0xx_flash.c **** /**
1176:../Libraries/STM32F0xx_StdPeriph_Driver/src/stm32f0xx_flash.c ****   * @brief  Returns the FLASH Status.
1177:../Libraries/STM32F0xx_StdPeriph_Driver/src/stm32f0xx_flash.c ****   * @param  None
1178:../Libraries/STM32F0xx_StdPeriph_Driver/src/stm32f0xx_flash.c ****   * @retval FLASH Status: The returned value can be: 
1179:../Libraries/STM32F0xx_StdPeriph_Driver/src/stm32f0xx_flash.c ****   *         FLASH_BUSY, FLASH_ERROR_PROGRAM, FLASH_ERROR_WRP or FLASH_COMPLETE.
1180:../Libraries/STM32F0xx_StdPeriph_Driver/src/stm32f0xx_flash.c ****   */
1181:../Libraries/STM32F0xx_StdPeriph_Driver/src/stm32f0xx_flash.c **** FLASH_Status FLASH_GetStatus(void)
1182:../Libraries/STM32F0xx_StdPeriph_Driver/src/stm32f0xx_flash.c **** {
 486              		.loc 1 1182 0
 487              		.cfi_startproc
 488              	.LVL20:
1183:../Libraries/STM32F0xx_StdPeriph_Driver/src/stm32f0xx_flash.c ****   FLASH_Status FLASHstatus = FLASH_COMPLETE;
1184:../Libraries/STM32F0xx_StdPeriph_Driver/src/stm32f0xx_flash.c ****   
1185:../Libraries/STM32F0xx_StdPeriph_Driver/src/stm32f0xx_flash.c ****   if((FLASH->SR & FLASH_FLAG_BSY) == FLASH_FLAG_BSY) 
 489              		.loc 1 1185 0
 490 0000 084B     		ldr	r3, .L59
1186:../Libraries/STM32F0xx_StdPeriph_Driver/src/stm32f0xx_flash.c ****   {
1187:../Libraries/STM32F0xx_StdPeriph_Driver/src/stm32f0xx_flash.c ****     FLASHstatus = FLASH_BUSY;
 491              		.loc 1 1187 0
 492 0002 0120     		mov	r0, #1
1185:../Libraries/STM32F0xx_StdPeriph_Driver/src/stm32f0xx_flash.c ****   if((FLASH->SR & FLASH_FLAG_BSY) == FLASH_FLAG_BSY) 
 493              		.loc 1 1185 0
 494 0004 DA68     		ldr	r2, [r3, #12]
1182:../Libraries/STM32F0xx_StdPeriph_Driver/src/stm32f0xx_flash.c **** {
 495              		.loc 1 1182 0
 496 0006 00B5     		push	{lr}
 497              	.LCFI4:
 498              		.cfi_def_cfa_offset 4
 499              		.cfi_offset 14, -4
1185:../Libraries/STM32F0xx_StdPeriph_Driver/src/stm32f0xx_flash.c ****   if((FLASH->SR & FLASH_FLAG_BSY) == FLASH_FLAG_BSY) 
 500              		.loc 1 1185 0
 501 0008 0242     		tst	r2, r0
 502 000a 09D1     		bne	.L54
1188:../Libraries/STM32F0xx_StdPeriph_Driver/src/stm32f0xx_flash.c ****   }
1189:../Libraries/STM32F0xx_StdPeriph_Driver/src/stm32f0xx_flash.c ****   else 
1190:../Libraries/STM32F0xx_StdPeriph_Driver/src/stm32f0xx_flash.c ****   {  
1191:../Libraries/STM32F0xx_StdPeriph_Driver/src/stm32f0xx_flash.c ****     if((FLASH->SR & (uint32_t)FLASH_FLAG_WRPERR)!= (uint32_t)0x00)
 503              		.loc 1 1191 0
 504 000c DA68     		ldr	r2, [r3, #12]
1192:../Libraries/STM32F0xx_StdPeriph_Driver/src/stm32f0xx_flash.c ****     { 
1193:../Libraries/STM32F0xx_StdPeriph_Driver/src/stm32f0xx_flash.c ****       FLASHstatus = FLASH_ERROR_WRP;
 505              		.loc 1 1193 0
 506 000e 0220     		mov	r0, #2
1191:../Libraries/STM32F0xx_StdPeriph_Driver/src/stm32f0xx_flash.c ****     if((FLASH->SR & (uint32_t)FLASH_FLAG_WRPERR)!= (uint32_t)0x00)
 507              		.loc 1 1191 0
 508 0010 D106     		lsl	r1, r2, #27
 509 0012 05D4     		bmi	.L54
 510              	.LBB4:
 511              	.LBB5:
1194:../Libraries/STM32F0xx_StdPeriph_Driver/src/stm32f0xx_flash.c ****     }
1195:../Libraries/STM32F0xx_StdPeriph_Driver/src/stm32f0xx_flash.c ****     else 
1196:../Libraries/STM32F0xx_StdPeriph_Driver/src/stm32f0xx_flash.c ****     {
1197:../Libraries/STM32F0xx_StdPeriph_Driver/src/stm32f0xx_flash.c ****       if((FLASH->SR & (uint32_t)(FLASH_SR_PGERR)) != (uint32_t)0x00)
 512              		.loc 1 1197 0
 513 0014 D868     		ldr	r0, [r3, #12]
 514 0016 0423     		mov	r3, #4
 515 0018 1840     		and	r0, r3
1198:../Libraries/STM32F0xx_StdPeriph_Driver/src/stm32f0xx_flash.c ****       {
1199:../Libraries/STM32F0xx_StdPeriph_Driver/src/stm32f0xx_flash.c ****         FLASHstatus = FLASH_ERROR_PROGRAM; 
 516              		.loc 1 1199 0
 517 001a 4342     		neg	r3, r0
 518 001c 5841     		adc	r0, r0, r3
 519 001e 0330     		add	r0, r0, #3
 520              	.L54:
 521              	.LVL21:
 522              	.LBE5:
 523              	.LBE4:
1200:../Libraries/STM32F0xx_StdPeriph_Driver/src/stm32f0xx_flash.c ****       }
1201:../Libraries/STM32F0xx_StdPeriph_Driver/src/stm32f0xx_flash.c ****       else
1202:../Libraries/STM32F0xx_StdPeriph_Driver/src/stm32f0xx_flash.c ****       {
1203:../Libraries/STM32F0xx_StdPeriph_Driver/src/stm32f0xx_flash.c ****         FLASHstatus = FLASH_COMPLETE;
1204:../Libraries/STM32F0xx_StdPeriph_Driver/src/stm32f0xx_flash.c ****       }
1205:../Libraries/STM32F0xx_StdPeriph_Driver/src/stm32f0xx_flash.c ****     }
1206:../Libraries/STM32F0xx_StdPeriph_Driver/src/stm32f0xx_flash.c ****   }
1207:../Libraries/STM32F0xx_StdPeriph_Driver/src/stm32f0xx_flash.c ****   /* Return the FLASH Status */
1208:../Libraries/STM32F0xx_StdPeriph_Driver/src/stm32f0xx_flash.c ****   return FLASHstatus;
1209:../Libraries/STM32F0xx_StdPeriph_Driver/src/stm32f0xx_flash.c **** }
 524              		.loc 1 1209 0
 525              		@ sp needed for prologue
 526 0020 00BD     		pop	{pc}
 527              	.L60:
 528 0022 C046     		.align	2
 529              	.L59:
 530 0024 00200240 		.word	1073881088
 531              		.cfi_endproc
 532              	.LFE62:
 534              		.section	.text.FLASH_WaitForLastOperation,"ax",%progbits
 535              		.align	1
 536              		.global	FLASH_WaitForLastOperation
 537              		.code	16
 538              		.thumb_func
 540              	FLASH_WaitForLastOperation:
 541              	.LFB63:
1210:../Libraries/STM32F0xx_StdPeriph_Driver/src/stm32f0xx_flash.c **** 
1211:../Libraries/STM32F0xx_StdPeriph_Driver/src/stm32f0xx_flash.c **** 
1212:../Libraries/STM32F0xx_StdPeriph_Driver/src/stm32f0xx_flash.c **** /**
1213:../Libraries/STM32F0xx_StdPeriph_Driver/src/stm32f0xx_flash.c ****   * @brief  Waits for a FLASH operation to complete or a TIMEOUT to occur.
1214:../Libraries/STM32F0xx_StdPeriph_Driver/src/stm32f0xx_flash.c ****   * @param  Timeout: FLASH programming Timeout
1215:../Libraries/STM32F0xx_StdPeriph_Driver/src/stm32f0xx_flash.c ****   * @retval FLASH Status: The returned value can be: FLASH_BUSY, 
1216:../Libraries/STM32F0xx_StdPeriph_Driver/src/stm32f0xx_flash.c ****   *         FLASH_ERROR_PROGRAM, FLASH_ERROR_WRP, FLASH_COMPLETE or FLASH_TIMEOUT.
1217:../Libraries/STM32F0xx_StdPeriph_Driver/src/stm32f0xx_flash.c ****   */
1218:../Libraries/STM32F0xx_StdPeriph_Driver/src/stm32f0xx_flash.c **** FLASH_Status FLASH_WaitForLastOperation(uint32_t Timeout)
1219:../Libraries/STM32F0xx_StdPeriph_Driver/src/stm32f0xx_flash.c **** { 
 542              		.loc 1 1219 0
 543              		.cfi_startproc
 544              	.LVL22:
 545 0000 10B5     		push	{r4, lr}
 546              	.LCFI5:
 547              		.cfi_def_cfa_offset 8
 548              		.cfi_offset 4, -8
 549              		.cfi_offset 14, -4
 550              		.loc 1 1219 0
 551 0002 041C     		mov	r4, r0
1220:../Libraries/STM32F0xx_StdPeriph_Driver/src/stm32f0xx_flash.c ****   FLASH_Status status = FLASH_COMPLETE;
1221:../Libraries/STM32F0xx_StdPeriph_Driver/src/stm32f0xx_flash.c ****    
1222:../Libraries/STM32F0xx_StdPeriph_Driver/src/stm32f0xx_flash.c ****   /* Check for the FLASH Status */
1223:../Libraries/STM32F0xx_StdPeriph_Driver/src/stm32f0xx_flash.c ****   status = FLASH_GetStatus();
 552              		.loc 1 1223 0
 553 0004 FFF7FEFF 		bl	FLASH_GetStatus
 554              	.LVL23:
1224:../Libraries/STM32F0xx_StdPeriph_Driver/src/stm32f0xx_flash.c ****   
1225:../Libraries/STM32F0xx_StdPeriph_Driver/src/stm32f0xx_flash.c ****   /* Wait for a FLASH operation to complete or a TIMEOUT to occur */
1226:../Libraries/STM32F0xx_StdPeriph_Driver/src/stm32f0xx_flash.c ****   while((status == FLASH_BUSY) && (Timeout != 0x00))
 555              		.loc 1 1226 0
 556 0008 02E0     		b	.L62
 557              	.L63:
1227:../Libraries/STM32F0xx_StdPeriph_Driver/src/stm32f0xx_flash.c ****   {
1228:../Libraries/STM32F0xx_StdPeriph_Driver/src/stm32f0xx_flash.c ****     status = FLASH_GetStatus();
 558              		.loc 1 1228 0
 559 000a FFF7FEFF 		bl	FLASH_GetStatus
 560              	.LVL24:
1229:../Libraries/STM32F0xx_StdPeriph_Driver/src/stm32f0xx_flash.c ****     Timeout--;
 561              		.loc 1 1229 0
 562 000e 013C     		sub	r4, r4, #1
 563              	.LVL25:
 564              	.L62:
1226:../Libraries/STM32F0xx_StdPeriph_Driver/src/stm32f0xx_flash.c ****   while((status == FLASH_BUSY) && (Timeout != 0x00))
 565              		.loc 1 1226 0 discriminator 1
 566 0010 002C     		cmp	r4, #0
 567 0012 01D0     		beq	.L67
 568 0014 0128     		cmp	r0, #1
 569 0016 F8D0     		beq	.L63
 570              	.L67:
1230:../Libraries/STM32F0xx_StdPeriph_Driver/src/stm32f0xx_flash.c ****   }
1231:../Libraries/STM32F0xx_StdPeriph_Driver/src/stm32f0xx_flash.c ****   
1232:../Libraries/STM32F0xx_StdPeriph_Driver/src/stm32f0xx_flash.c ****   if(Timeout == 0x00 )
 571              		.loc 1 1232 0
 572 0018 002C     		cmp	r4, #0
 573 001a 00D1     		bne	.L65
1233:../Libraries/STM32F0xx_StdPeriph_Driver/src/stm32f0xx_flash.c ****   {
1234:../Libraries/STM32F0xx_StdPeriph_Driver/src/stm32f0xx_flash.c ****     status = FLASH_TIMEOUT;
 574              		.loc 1 1234 0
 575 001c 0520     		mov	r0, #5
 576              	.LVL26:
 577              	.L65:
1235:../Libraries/STM32F0xx_StdPeriph_Driver/src/stm32f0xx_flash.c ****   }
1236:../Libraries/STM32F0xx_StdPeriph_Driver/src/stm32f0xx_flash.c ****   /* Return the operation status */
1237:../Libraries/STM32F0xx_StdPeriph_Driver/src/stm32f0xx_flash.c ****   return status;
1238:../Libraries/STM32F0xx_StdPeriph_Driver/src/stm32f0xx_flash.c **** }
 578              		.loc 1 1238 0
 579              		@ sp needed for prologue
 580              	.LVL27:
 581 001e 10BD     		pop	{r4, pc}
 582              		.cfi_endproc
 583              	.LFE63:
 585              		.section	.text.FLASH_OB_ProgramData,"ax",%progbits
 586              		.align	1
 587              		.global	FLASH_OB_ProgramData
 588              		.code	16
 589              		.thumb_func
 591              	FLASH_OB_ProgramData:
 592              	.LFB55:
1018:../Libraries/STM32F0xx_StdPeriph_Driver/src/stm32f0xx_flash.c **** {
 593              		.loc 1 1018 0
 594              		.cfi_startproc
 595              	.LVL28:
 596 0000 F8B5     		push	{r3, r4, r5, r6, r7, lr}
 597              	.LCFI6:
 598              		.cfi_def_cfa_offset 24
 599              		.cfi_offset 3, -24
 600              		.cfi_offset 4, -20
 601              		.cfi_offset 5, -16
 602              		.cfi_offset 6, -12
 603              		.cfi_offset 7, -8
 604              		.cfi_offset 14, -4
1018:../Libraries/STM32F0xx_StdPeriph_Driver/src/stm32f0xx_flash.c **** {
 605              		.loc 1 1018 0
 606 0002 061C     		mov	r6, r0
1022:../Libraries/STM32F0xx_StdPeriph_Driver/src/stm32f0xx_flash.c ****   status = FLASH_WaitForLastOperation(FLASH_ER_PRG_TIMEOUT);
 607              		.loc 1 1022 0
 608 0004 B020     		mov	r0, #176
 609              	.LVL29:
 610 0006 0003     		lsl	r0, r0, #12
1018:../Libraries/STM32F0xx_StdPeriph_Driver/src/stm32f0xx_flash.c **** {
 611              		.loc 1 1018 0
 612 0008 0F1C     		mov	r7, r1
1022:../Libraries/STM32F0xx_StdPeriph_Driver/src/stm32f0xx_flash.c ****   status = FLASH_WaitForLastOperation(FLASH_ER_PRG_TIMEOUT);
 613              		.loc 1 1022 0
 614 000a FFF7FEFF 		bl	FLASH_WaitForLastOperation
 615              	.LVL30:
1024:../Libraries/STM32F0xx_StdPeriph_Driver/src/stm32f0xx_flash.c ****   if(status == FLASH_COMPLETE)
 616              		.loc 1 1024 0
 617 000e 0428     		cmp	r0, #4
 618 0010 0ED1     		bne	.L72
1027:../Libraries/STM32F0xx_StdPeriph_Driver/src/stm32f0xx_flash.c ****     FLASH->CR |= FLASH_CR_OPTPG; 
 619              		.loc 1 1027 0
 620 0012 084C     		ldr	r4, .L76
 621 0014 1025     		mov	r5, #16
 622 0016 2369     		ldr	r3, [r4, #16]
1031:../Libraries/STM32F0xx_StdPeriph_Driver/src/stm32f0xx_flash.c ****     status = FLASH_WaitForLastOperation(FLASH_ER_PRG_TIMEOUT);
 623              		.loc 1 1031 0
 624 0018 B020     		mov	r0, #176
 625              	.LVL31:
1027:../Libraries/STM32F0xx_StdPeriph_Driver/src/stm32f0xx_flash.c ****     FLASH->CR |= FLASH_CR_OPTPG; 
 626              		.loc 1 1027 0
 627 001a 2B43     		orr	r3, r5
 628 001c 2361     		str	r3, [r4, #16]
1031:../Libraries/STM32F0xx_StdPeriph_Driver/src/stm32f0xx_flash.c ****     status = FLASH_WaitForLastOperation(FLASH_ER_PRG_TIMEOUT);
 629              		.loc 1 1031 0
 630 001e 0003     		lsl	r0, r0, #12
1028:../Libraries/STM32F0xx_StdPeriph_Driver/src/stm32f0xx_flash.c ****     *(__IO uint16_t*)Address = Data;
 631              		.loc 1 1028 0
 632 0020 3780     		strh	r7, [r6]
1031:../Libraries/STM32F0xx_StdPeriph_Driver/src/stm32f0xx_flash.c ****     status = FLASH_WaitForLastOperation(FLASH_ER_PRG_TIMEOUT);
 633              		.loc 1 1031 0
 634 0022 FFF7FEFF 		bl	FLASH_WaitForLastOperation
 635              	.LVL32:
1033:../Libraries/STM32F0xx_StdPeriph_Driver/src/stm32f0xx_flash.c ****     if(status != FLASH_TIMEOUT)
 636              		.loc 1 1033 0
 637 0026 0528     		cmp	r0, #5
 638 0028 02D0     		beq	.L72
1036:../Libraries/STM32F0xx_StdPeriph_Driver/src/stm32f0xx_flash.c ****       FLASH->CR &= ~FLASH_CR_OPTPG;
 639              		.loc 1 1036 0
 640 002a 2369     		ldr	r3, [r4, #16]
 641 002c AB43     		bic	r3, r5
 642 002e 2361     		str	r3, [r4, #16]
 643              	.LVL33:
 644              	.L72:
1041:../Libraries/STM32F0xx_StdPeriph_Driver/src/stm32f0xx_flash.c **** }
 645              		.loc 1 1041 0
 646              		@ sp needed for prologue
 647              	.LVL34:
 648 0030 F8BD     		pop	{r3, r4, r5, r6, r7, pc}
 649              	.L77:
 650 0032 C046     		.align	2
 651              	.L76:
 652 0034 00200240 		.word	1073881088
 653              		.cfi_endproc
 654              	.LFE55:
 656              		.section	.text.FLASH_OB_WriteUser,"ax",%progbits
 657              		.align	1
 658              		.global	FLASH_OB_WriteUser
 659              		.code	16
 660              		.thumb_func
 662              	FLASH_OB_WriteUser:
 663              	.LFB54:
 979:../Libraries/STM32F0xx_StdPeriph_Driver/src/stm32f0xx_flash.c **** {
 664              		.loc 1 979 0
 665              		.cfi_startproc
 666              	.LVL35:
 667 0000 70B5     		push	{r4, r5, r6, lr}
 668              	.LCFI7:
 669              		.cfi_def_cfa_offset 16
 670              		.cfi_offset 4, -16
 671              		.cfi_offset 5, -12
 672              		.cfi_offset 6, -8
 673              		.cfi_offset 14, -4
 979:../Libraries/STM32F0xx_StdPeriph_Driver/src/stm32f0xx_flash.c **** {
 674              		.loc 1 979 0
 675 0002 061C     		mov	r6, r0
 983:../Libraries/STM32F0xx_StdPeriph_Driver/src/stm32f0xx_flash.c ****   status = FLASH_WaitForLastOperation(FLASH_ER_PRG_TIMEOUT);
 676              		.loc 1 983 0
 677 0004 B020     		mov	r0, #176
 678              	.LVL36:
 679 0006 0003     		lsl	r0, r0, #12
 680 0008 FFF7FEFF 		bl	FLASH_WaitForLastOperation
 681              	.LVL37:
 985:../Libraries/STM32F0xx_StdPeriph_Driver/src/stm32f0xx_flash.c ****   if(status == FLASH_COMPLETE)
 682              		.loc 1 985 0
 683 000c 0428     		cmp	r0, #4
 684 000e 0FD1     		bne	.L79
 988:../Libraries/STM32F0xx_StdPeriph_Driver/src/stm32f0xx_flash.c ****     FLASH->CR |= FLASH_CR_OPTPG; 
 685              		.loc 1 988 0
 686 0010 084C     		ldr	r4, .L83
 687 0012 1025     		mov	r5, #16
 688 0014 2369     		ldr	r3, [r4, #16]
 993:../Libraries/STM32F0xx_StdPeriph_Driver/src/stm32f0xx_flash.c ****     status = FLASH_WaitForLastOperation(FLASH_ER_PRG_TIMEOUT);
 689              		.loc 1 993 0
 690 0016 B020     		mov	r0, #176
 691              	.LVL38:
 988:../Libraries/STM32F0xx_StdPeriph_Driver/src/stm32f0xx_flash.c ****     FLASH->CR |= FLASH_CR_OPTPG; 
 692              		.loc 1 988 0
 693 0018 2B43     		orr	r3, r5
 694 001a 2361     		str	r3, [r4, #16]
 990:../Libraries/STM32F0xx_StdPeriph_Driver/src/stm32f0xx_flash.c ****     OB->USER = OB_USER;
 695              		.loc 1 990 0
 696 001c 064B     		ldr	r3, .L83+4
 993:../Libraries/STM32F0xx_StdPeriph_Driver/src/stm32f0xx_flash.c ****     status = FLASH_WaitForLastOperation(FLASH_ER_PRG_TIMEOUT);
 697              		.loc 1 993 0
 698 001e 0003     		lsl	r0, r0, #12
 990:../Libraries/STM32F0xx_StdPeriph_Driver/src/stm32f0xx_flash.c ****     OB->USER = OB_USER;
 699              		.loc 1 990 0
 700 0020 5E80     		strh	r6, [r3, #2]
 993:../Libraries/STM32F0xx_StdPeriph_Driver/src/stm32f0xx_flash.c ****     status = FLASH_WaitForLastOperation(FLASH_ER_PRG_TIMEOUT);
 701              		.loc 1 993 0
 702 0022 FFF7FEFF 		bl	FLASH_WaitForLastOperation
 703              	.LVL39:
 995:../Libraries/STM32F0xx_StdPeriph_Driver/src/stm32f0xx_flash.c ****     if(status != FLASH_TIMEOUT)
 704              		.loc 1 995 0
 705 0026 0528     		cmp	r0, #5
 706 0028 02D0     		beq	.L79
 998:../Libraries/STM32F0xx_StdPeriph_Driver/src/stm32f0xx_flash.c ****       FLASH->CR &= ~FLASH_CR_OPTPG;
 707              		.loc 1 998 0
 708 002a 2369     		ldr	r3, [r4, #16]
 709 002c AB43     		bic	r3, r5
 710 002e 2361     		str	r3, [r4, #16]
 711              	.LVL40:
 712              	.L79:
1004:../Libraries/STM32F0xx_StdPeriph_Driver/src/stm32f0xx_flash.c **** }
 713              		.loc 1 1004 0
 714              		@ sp needed for prologue
 715 0030 70BD     		pop	{r4, r5, r6, pc}
 716              	.L84:
 717 0032 C046     		.align	2
 718              	.L83:
 719 0034 00200240 		.word	1073881088
 720 0038 00F8FF1F 		.word	536868864
 721              		.cfi_endproc
 722              	.LFE54:
 724              		.section	.text.FLASH_OB_SRAMParityConfig,"ax",%progbits
 725              		.align	1
 726              		.global	FLASH_OB_SRAMParityConfig
 727              		.code	16
 728              		.thumb_func
 730              	FLASH_OB_SRAMParityConfig:
 731              	.LFB53:
 930:../Libraries/STM32F0xx_StdPeriph_Driver/src/stm32f0xx_flash.c **** {
 732              		.loc 1 930 0
 733              		.cfi_startproc
 734              	.LVL41:
 735 0000 70B5     		push	{r4, r5, r6, lr}
 736              	.LCFI8:
 737              		.cfi_def_cfa_offset 16
 738              		.cfi_offset 4, -16
 739              		.cfi_offset 5, -12
 740              		.cfi_offset 6, -8
 741              		.cfi_offset 14, -4
 930:../Libraries/STM32F0xx_StdPeriph_Driver/src/stm32f0xx_flash.c **** {
 742              		.loc 1 930 0
 743 0002 061C     		mov	r6, r0
 937:../Libraries/STM32F0xx_StdPeriph_Driver/src/stm32f0xx_flash.c ****   status = FLASH_WaitForLastOperation(FLASH_ER_PRG_TIMEOUT);
 744              		.loc 1 937 0
 745 0004 B020     		mov	r0, #176
 746              	.LVL42:
 747 0006 0003     		lsl	r0, r0, #12
 748 0008 FFF7FEFF 		bl	FLASH_WaitForLastOperation
 749              	.LVL43:
 939:../Libraries/STM32F0xx_StdPeriph_Driver/src/stm32f0xx_flash.c ****   if(status == FLASH_COMPLETE)
 750              		.loc 1 939 0
 751 000c 0428     		cmp	r0, #4
 752 000e 11D1     		bne	.L86
 942:../Libraries/STM32F0xx_StdPeriph_Driver/src/stm32f0xx_flash.c ****     FLASH->CR |= FLASH_CR_OPTPG; 
 753              		.loc 1 942 0
 754 0010 094C     		ldr	r4, .L90
 755 0012 1025     		mov	r5, #16
 756 0014 2369     		ldr	r3, [r4, #16]
 947:../Libraries/STM32F0xx_StdPeriph_Driver/src/stm32f0xx_flash.c ****     status = FLASH_WaitForLastOperation(FLASH_ER_PRG_TIMEOUT);
 757              		.loc 1 947 0
 758 0016 B020     		mov	r0, #176
 759              	.LVL44:
 942:../Libraries/STM32F0xx_StdPeriph_Driver/src/stm32f0xx_flash.c ****     FLASH->CR |= FLASH_CR_OPTPG; 
 760              		.loc 1 942 0
 761 0018 2B43     		orr	r3, r5
 762 001a 2361     		str	r3, [r4, #16]
 944:../Libraries/STM32F0xx_StdPeriph_Driver/src/stm32f0xx_flash.c ****     OB->USER = OB_SRAM_Parity | 0xBF;
 763              		.loc 1 944 0
 764 001c BF23     		mov	r3, #191
 765 001e 1E43     		orr	r6, r3
 766 0020 064B     		ldr	r3, .L90+4
 947:../Libraries/STM32F0xx_StdPeriph_Driver/src/stm32f0xx_flash.c ****     status = FLASH_WaitForLastOperation(FLASH_ER_PRG_TIMEOUT);
 767              		.loc 1 947 0
 768 0022 0003     		lsl	r0, r0, #12
 944:../Libraries/STM32F0xx_StdPeriph_Driver/src/stm32f0xx_flash.c ****     OB->USER = OB_SRAM_Parity | 0xBF;
 769              		.loc 1 944 0
 770 0024 5E80     		strh	r6, [r3, #2]
 947:../Libraries/STM32F0xx_StdPeriph_Driver/src/stm32f0xx_flash.c ****     status = FLASH_WaitForLastOperation(FLASH_ER_PRG_TIMEOUT);
 771              		.loc 1 947 0
 772 0026 FFF7FEFF 		bl	FLASH_WaitForLastOperation
 773              	.LVL45:
 949:../Libraries/STM32F0xx_StdPeriph_Driver/src/stm32f0xx_flash.c ****     if(status != FLASH_TIMEOUT)
 774              		.loc 1 949 0
 775 002a 0528     		cmp	r0, #5
 776 002c 02D0     		beq	.L86
 952:../Libraries/STM32F0xx_StdPeriph_Driver/src/stm32f0xx_flash.c ****       FLASH->CR &= ~FLASH_CR_OPTPG;
 777              		.loc 1 952 0
 778 002e 2369     		ldr	r3, [r4, #16]
 779 0030 AB43     		bic	r3, r5
 780 0032 2361     		str	r3, [r4, #16]
 781              	.LVL46:
 782              	.L86:
 957:../Libraries/STM32F0xx_StdPeriph_Driver/src/stm32f0xx_flash.c **** }
 783              		.loc 1 957 0
 784              		@ sp needed for prologue
 785 0034 70BD     		pop	{r4, r5, r6, pc}
 786              	.L91:
 787 0036 C046     		.align	2
 788              	.L90:
 789 0038 00200240 		.word	1073881088
 790 003c 00F8FF1F 		.word	536868864
 791              		.cfi_endproc
 792              	.LFE53:
 794              		.section	.text.FLASH_OB_VDDAConfig,"ax",%progbits
 795              		.align	1
 796              		.global	FLASH_OB_VDDAConfig
 797              		.code	16
 798              		.thumb_func
 800              	FLASH_OB_VDDAConfig:
 801              	.LFB52:
 892:../Libraries/STM32F0xx_StdPeriph_Driver/src/stm32f0xx_flash.c **** {
 802              		.loc 1 892 0
 803              		.cfi_startproc
 804              	.LVL47:
 805 0000 70B5     		push	{r4, r5, r6, lr}
 806              	.LCFI9:
 807              		.cfi_def_cfa_offset 16
 808              		.cfi_offset 4, -16
 809              		.cfi_offset 5, -12
 810              		.cfi_offset 6, -8
 811              		.cfi_offset 14, -4
 892:../Libraries/STM32F0xx_StdPeriph_Driver/src/stm32f0xx_flash.c **** {
 812              		.loc 1 892 0
 813 0002 061C     		mov	r6, r0
 899:../Libraries/STM32F0xx_StdPeriph_Driver/src/stm32f0xx_flash.c ****   status = FLASH_WaitForLastOperation(FLASH_ER_PRG_TIMEOUT);
 814              		.loc 1 899 0
 815 0004 B020     		mov	r0, #176
 816              	.LVL48:
 817 0006 0003     		lsl	r0, r0, #12
 818 0008 FFF7FEFF 		bl	FLASH_WaitForLastOperation
 819              	.LVL49:
 901:../Libraries/STM32F0xx_StdPeriph_Driver/src/stm32f0xx_flash.c ****   if(status == FLASH_COMPLETE)
 820              		.loc 1 901 0
 821 000c 0428     		cmp	r0, #4
 822 000e 11D1     		bne	.L93
 904:../Libraries/STM32F0xx_StdPeriph_Driver/src/stm32f0xx_flash.c ****     FLASH->CR |= FLASH_CR_OPTPG; 
 823              		.loc 1 904 0
 824 0010 094C     		ldr	r4, .L97
 825 0012 1025     		mov	r5, #16
 826 0014 2369     		ldr	r3, [r4, #16]
 909:../Libraries/STM32F0xx_StdPeriph_Driver/src/stm32f0xx_flash.c ****     status = FLASH_WaitForLastOperation(FLASH_ER_PRG_TIMEOUT);
 827              		.loc 1 909 0
 828 0016 B020     		mov	r0, #176
 829              	.LVL50:
 904:../Libraries/STM32F0xx_StdPeriph_Driver/src/stm32f0xx_flash.c ****     FLASH->CR |= FLASH_CR_OPTPG; 
 830              		.loc 1 904 0
 831 0018 2B43     		orr	r3, r5
 832 001a 2361     		str	r3, [r4, #16]
 906:../Libraries/STM32F0xx_StdPeriph_Driver/src/stm32f0xx_flash.c ****     OB->USER = OB_VDDA_ANALOG | 0xDF;
 833              		.loc 1 906 0
 834 001c DF23     		mov	r3, #223
 835 001e 1E43     		orr	r6, r3
 836 0020 064B     		ldr	r3, .L97+4
 909:../Libraries/STM32F0xx_StdPeriph_Driver/src/stm32f0xx_flash.c ****     status = FLASH_WaitForLastOperation(FLASH_ER_PRG_TIMEOUT);
 837              		.loc 1 909 0
 838 0022 0003     		lsl	r0, r0, #12
 906:../Libraries/STM32F0xx_StdPeriph_Driver/src/stm32f0xx_flash.c ****     OB->USER = OB_VDDA_ANALOG | 0xDF;
 839              		.loc 1 906 0
 840 0024 5E80     		strh	r6, [r3, #2]
 909:../Libraries/STM32F0xx_StdPeriph_Driver/src/stm32f0xx_flash.c ****     status = FLASH_WaitForLastOperation(FLASH_ER_PRG_TIMEOUT);
 841              		.loc 1 909 0
 842 0026 FFF7FEFF 		bl	FLASH_WaitForLastOperation
 843              	.LVL51:
 911:../Libraries/STM32F0xx_StdPeriph_Driver/src/stm32f0xx_flash.c ****     if(status != FLASH_TIMEOUT)
 844              		.loc 1 911 0
 845 002a 0528     		cmp	r0, #5
 846 002c 02D0     		beq	.L93
 914:../Libraries/STM32F0xx_StdPeriph_Driver/src/stm32f0xx_flash.c ****       FLASH->CR &= ~FLASH_CR_OPTPG;
 847              		.loc 1 914 0
 848 002e 2369     		ldr	r3, [r4, #16]
 849 0030 AB43     		bic	r3, r5
 850 0032 2361     		str	r3, [r4, #16]
 851              	.LVL52:
 852              	.L93:
 919:../Libraries/STM32F0xx_StdPeriph_Driver/src/stm32f0xx_flash.c **** }
 853              		.loc 1 919 0
 854              		@ sp needed for prologue
 855 0034 70BD     		pop	{r4, r5, r6, pc}
 856              	.L98:
 857 0036 C046     		.align	2
 858              	.L97:
 859 0038 00200240 		.word	1073881088
 860 003c 00F8FF1F 		.word	536868864
 861              		.cfi_endproc
 862              	.LFE52:
 864              		.section	.text.FLASH_OB_BOOT0SWConfig,"ax",%progbits
 865              		.align	1
 866              		.global	FLASH_OB_BOOT0SWConfig
 867              		.code	16
 868              		.thumb_func
 870              	FLASH_OB_BOOT0SWConfig:
 871              	.LFB51:
 854:../Libraries/STM32F0xx_StdPeriph_Driver/src/stm32f0xx_flash.c **** {
 872              		.loc 1 854 0
 873              		.cfi_startproc
 874              	.LVL53:
 875 0000 70B5     		push	{r4, r5, r6, lr}
 876              	.LCFI10:
 877              		.cfi_def_cfa_offset 16
 878              		.cfi_offset 4, -16
 879              		.cfi_offset 5, -12
 880              		.cfi_offset 6, -8
 881              		.cfi_offset 14, -4
 854:../Libraries/STM32F0xx_StdPeriph_Driver/src/stm32f0xx_flash.c **** {
 882              		.loc 1 854 0
 883 0002 061C     		mov	r6, r0
 861:../Libraries/STM32F0xx_StdPeriph_Driver/src/stm32f0xx_flash.c ****   status = FLASH_WaitForLastOperation(FLASH_ER_PRG_TIMEOUT);
 884              		.loc 1 861 0
 885 0004 B020     		mov	r0, #176
 886              	.LVL54:
 887 0006 0003     		lsl	r0, r0, #12
 888 0008 FFF7FEFF 		bl	FLASH_WaitForLastOperation
 889              	.LVL55:
 863:../Libraries/STM32F0xx_StdPeriph_Driver/src/stm32f0xx_flash.c ****   if(status == FLASH_COMPLETE)
 890              		.loc 1 863 0
 891 000c 0428     		cmp	r0, #4
 892 000e 11D1     		bne	.L100
 866:../Libraries/STM32F0xx_StdPeriph_Driver/src/stm32f0xx_flash.c ****     FLASH->CR |= FLASH_CR_OPTPG;
 893              		.loc 1 866 0
 894 0010 094C     		ldr	r4, .L104
 895 0012 1025     		mov	r5, #16
 896 0014 2369     		ldr	r3, [r4, #16]
 871:../Libraries/STM32F0xx_StdPeriph_Driver/src/stm32f0xx_flash.c ****     status = FLASH_WaitForLastOperation(FLASH_ER_PRG_TIMEOUT);
 897              		.loc 1 871 0
 898 0016 B020     		mov	r0, #176
 899              	.LVL56:
 866:../Libraries/STM32F0xx_StdPeriph_Driver/src/stm32f0xx_flash.c ****     FLASH->CR |= FLASH_CR_OPTPG;
 900              		.loc 1 866 0
 901 0018 2B43     		orr	r3, r5
 902 001a 2361     		str	r3, [r4, #16]
 868:../Libraries/STM32F0xx_StdPeriph_Driver/src/stm32f0xx_flash.c ****     OB->USER = OB_BOOT0SW | 0x7F;
 903              		.loc 1 868 0
 904 001c 7F23     		mov	r3, #127
 905 001e 1E43     		orr	r6, r3
 906 0020 064B     		ldr	r3, .L104+4
 871:../Libraries/STM32F0xx_StdPeriph_Driver/src/stm32f0xx_flash.c ****     status = FLASH_WaitForLastOperation(FLASH_ER_PRG_TIMEOUT);
 907              		.loc 1 871 0
 908 0022 0003     		lsl	r0, r0, #12
 868:../Libraries/STM32F0xx_StdPeriph_Driver/src/stm32f0xx_flash.c ****     OB->USER = OB_BOOT0SW | 0x7F;
 909              		.loc 1 868 0
 910 0024 5E80     		strh	r6, [r3, #2]
 871:../Libraries/STM32F0xx_StdPeriph_Driver/src/stm32f0xx_flash.c ****     status = FLASH_WaitForLastOperation(FLASH_ER_PRG_TIMEOUT);
 911              		.loc 1 871 0
 912 0026 FFF7FEFF 		bl	FLASH_WaitForLastOperation
 913              	.LVL57:
 873:../Libraries/STM32F0xx_StdPeriph_Driver/src/stm32f0xx_flash.c ****     if(status != FLASH_TIMEOUT)
 914              		.loc 1 873 0
 915 002a 0528     		cmp	r0, #5
 916 002c 02D0     		beq	.L100
 876:../Libraries/STM32F0xx_StdPeriph_Driver/src/stm32f0xx_flash.c ****       FLASH->CR &= ~FLASH_CR_OPTPG;
 917              		.loc 1 876 0
 918 002e 2369     		ldr	r3, [r4, #16]
 919 0030 AB43     		bic	r3, r5
 920 0032 2361     		str	r3, [r4, #16]
 921              	.LVL58:
 922              	.L100:
 881:../Libraries/STM32F0xx_StdPeriph_Driver/src/stm32f0xx_flash.c **** }
 923              		.loc 1 881 0
 924              		@ sp needed for prologue
 925 0034 70BD     		pop	{r4, r5, r6, pc}
 926              	.L105:
 927 0036 C046     		.align	2
 928              	.L104:
 929 0038 00200240 		.word	1073881088
 930 003c 00F8FF1F 		.word	536868864
 931              		.cfi_endproc
 932              	.LFE51:
 934              		.section	.text.FLASH_OB_BOOT0Config,"ax",%progbits
 935              		.align	1
 936              		.global	FLASH_OB_BOOT0Config
 937              		.code	16
 938              		.thumb_func
 940              	FLASH_OB_BOOT0Config:
 941              	.LFB50:
 815:../Libraries/STM32F0xx_StdPeriph_Driver/src/stm32f0xx_flash.c **** {
 942              		.loc 1 815 0
 943              		.cfi_startproc
 944              	.LVL59:
 945 0000 70B5     		push	{r4, r5, r6, lr}
 946              	.LCFI11:
 947              		.cfi_def_cfa_offset 16
 948              		.cfi_offset 4, -16
 949              		.cfi_offset 5, -12
 950              		.cfi_offset 6, -8
 951              		.cfi_offset 14, -4
 815:../Libraries/STM32F0xx_StdPeriph_Driver/src/stm32f0xx_flash.c **** {
 952              		.loc 1 815 0
 953 0002 061C     		mov	r6, r0
 822:../Libraries/STM32F0xx_StdPeriph_Driver/src/stm32f0xx_flash.c ****   status = FLASH_WaitForLastOperation(FLASH_ER_PRG_TIMEOUT);
 954              		.loc 1 822 0
 955 0004 B020     		mov	r0, #176
 956              	.LVL60:
 957 0006 0003     		lsl	r0, r0, #12
 958 0008 FFF7FEFF 		bl	FLASH_WaitForLastOperation
 959              	.LVL61:
 824:../Libraries/STM32F0xx_StdPeriph_Driver/src/stm32f0xx_flash.c ****   if(status == FLASH_COMPLETE)
 960              		.loc 1 824 0
 961 000c 0428     		cmp	r0, #4
 962 000e 11D1     		bne	.L107
 827:../Libraries/STM32F0xx_StdPeriph_Driver/src/stm32f0xx_flash.c ****     FLASH->CR |= FLASH_CR_OPTPG;
 963              		.loc 1 827 0
 964 0010 094C     		ldr	r4, .L111
 965 0012 1025     		mov	r5, #16
 966 0014 2369     		ldr	r3, [r4, #16]
 832:../Libraries/STM32F0xx_StdPeriph_Driver/src/stm32f0xx_flash.c ****     status = FLASH_WaitForLastOperation(FLASH_ER_PRG_TIMEOUT);
 967              		.loc 1 832 0
 968 0016 B020     		mov	r0, #176
 969              	.LVL62:
 827:../Libraries/STM32F0xx_StdPeriph_Driver/src/stm32f0xx_flash.c ****     FLASH->CR |= FLASH_CR_OPTPG;
 970              		.loc 1 827 0
 971 0018 2B43     		orr	r3, r5
 972 001a 2361     		str	r3, [r4, #16]
 829:../Libraries/STM32F0xx_StdPeriph_Driver/src/stm32f0xx_flash.c ****     OB->USER = OB_BOOT0 | 0xF7;
 973              		.loc 1 829 0
 974 001c F723     		mov	r3, #247
 975 001e 1E43     		orr	r6, r3
 976 0020 064B     		ldr	r3, .L111+4
 832:../Libraries/STM32F0xx_StdPeriph_Driver/src/stm32f0xx_flash.c ****     status = FLASH_WaitForLastOperation(FLASH_ER_PRG_TIMEOUT);
 977              		.loc 1 832 0
 978 0022 0003     		lsl	r0, r0, #12
 829:../Libraries/STM32F0xx_StdPeriph_Driver/src/stm32f0xx_flash.c ****     OB->USER = OB_BOOT0 | 0xF7;
 979              		.loc 1 829 0
 980 0024 5E80     		strh	r6, [r3, #2]
 832:../Libraries/STM32F0xx_StdPeriph_Driver/src/stm32f0xx_flash.c ****     status = FLASH_WaitForLastOperation(FLASH_ER_PRG_TIMEOUT);
 981              		.loc 1 832 0
 982 0026 FFF7FEFF 		bl	FLASH_WaitForLastOperation
 983              	.LVL63:
 834:../Libraries/STM32F0xx_StdPeriph_Driver/src/stm32f0xx_flash.c ****     if(status != FLASH_TIMEOUT)
 984              		.loc 1 834 0
 985 002a 0528     		cmp	r0, #5
 986 002c 02D0     		beq	.L107
 837:../Libraries/STM32F0xx_StdPeriph_Driver/src/stm32f0xx_flash.c ****       FLASH->CR &= ~FLASH_CR_OPTPG;
 987              		.loc 1 837 0
 988 002e 2369     		ldr	r3, [r4, #16]
 989 0030 AB43     		bic	r3, r5
 990 0032 2361     		str	r3, [r4, #16]
 991              	.LVL64:
 992              	.L107:
 842:../Libraries/STM32F0xx_StdPeriph_Driver/src/stm32f0xx_flash.c **** }
 993              		.loc 1 842 0
 994              		@ sp needed for prologue
 995 0034 70BD     		pop	{r4, r5, r6, pc}
 996              	.L112:
 997 0036 C046     		.align	2
 998              	.L111:
 999 0038 00200240 		.word	1073881088
 1000 003c 00F8FF1F 		.word	536868864
 1001              		.cfi_endproc
 1002              	.LFE50:
 1004              		.section	.text.FLASH_OB_BOOTConfig,"ax",%progbits
 1005              		.align	1
 1006              		.global	FLASH_OB_BOOTConfig
 1007              		.code	16
 1008              		.thumb_func
 1010              	FLASH_OB_BOOTConfig:
 1011              	.LFB49:
 776:../Libraries/STM32F0xx_StdPeriph_Driver/src/stm32f0xx_flash.c **** {
 1012              		.loc 1 776 0
 1013              		.cfi_startproc
 1014              	.LVL65:
 1015 0000 70B5     		push	{r4, r5, r6, lr}
 1016              	.LCFI12:
 1017              		.cfi_def_cfa_offset 16
 1018              		.cfi_offset 4, -16
 1019              		.cfi_offset 5, -12
 1020              		.cfi_offset 6, -8
 1021              		.cfi_offset 14, -4
 776:../Libraries/STM32F0xx_StdPeriph_Driver/src/stm32f0xx_flash.c **** {
 1022              		.loc 1 776 0
 1023 0002 061C     		mov	r6, r0
 783:../Libraries/STM32F0xx_StdPeriph_Driver/src/stm32f0xx_flash.c ****   status = FLASH_WaitForLastOperation(FLASH_ER_PRG_TIMEOUT);
 1024              		.loc 1 783 0
 1025 0004 B020     		mov	r0, #176
 1026              	.LVL66:
 1027 0006 0003     		lsl	r0, r0, #12
 1028 0008 FFF7FEFF 		bl	FLASH_WaitForLastOperation
 1029              	.LVL67:
 785:../Libraries/STM32F0xx_StdPeriph_Driver/src/stm32f0xx_flash.c ****   if(status == FLASH_COMPLETE)
 1030              		.loc 1 785 0
 1031 000c 0428     		cmp	r0, #4
 1032 000e 11D1     		bne	.L114
 788:../Libraries/STM32F0xx_StdPeriph_Driver/src/stm32f0xx_flash.c ****     FLASH->CR |= FLASH_CR_OPTPG;
 1033              		.loc 1 788 0
 1034 0010 094C     		ldr	r4, .L118
 1035 0012 1025     		mov	r5, #16
 1036 0014 2369     		ldr	r3, [r4, #16]
 793:../Libraries/STM32F0xx_StdPeriph_Driver/src/stm32f0xx_flash.c ****     status = FLASH_WaitForLastOperation(FLASH_ER_PRG_TIMEOUT);
 1037              		.loc 1 793 0
 1038 0016 B020     		mov	r0, #176
 1039              	.LVL68:
 788:../Libraries/STM32F0xx_StdPeriph_Driver/src/stm32f0xx_flash.c ****     FLASH->CR |= FLASH_CR_OPTPG;
 1040              		.loc 1 788 0
 1041 0018 2B43     		orr	r3, r5
 1042 001a 2361     		str	r3, [r4, #16]
 790:../Libraries/STM32F0xx_StdPeriph_Driver/src/stm32f0xx_flash.c ****     OB->USER = OB_BOOT1 | 0xEF;
 1043              		.loc 1 790 0
 1044 001c EF23     		mov	r3, #239
 1045 001e 1E43     		orr	r6, r3
 1046 0020 064B     		ldr	r3, .L118+4
 793:../Libraries/STM32F0xx_StdPeriph_Driver/src/stm32f0xx_flash.c ****     status = FLASH_WaitForLastOperation(FLASH_ER_PRG_TIMEOUT);
 1047              		.loc 1 793 0
 1048 0022 0003     		lsl	r0, r0, #12
 790:../Libraries/STM32F0xx_StdPeriph_Driver/src/stm32f0xx_flash.c ****     OB->USER = OB_BOOT1 | 0xEF;
 1049              		.loc 1 790 0
 1050 0024 5E80     		strh	r6, [r3, #2]
 793:../Libraries/STM32F0xx_StdPeriph_Driver/src/stm32f0xx_flash.c ****     status = FLASH_WaitForLastOperation(FLASH_ER_PRG_TIMEOUT);
 1051              		.loc 1 793 0
 1052 0026 FFF7FEFF 		bl	FLASH_WaitForLastOperation
 1053              	.LVL69:
 795:../Libraries/STM32F0xx_StdPeriph_Driver/src/stm32f0xx_flash.c ****     if(status != FLASH_TIMEOUT)
 1054              		.loc 1 795 0
 1055 002a 0528     		cmp	r0, #5
 1056 002c 02D0     		beq	.L114
 798:../Libraries/STM32F0xx_StdPeriph_Driver/src/stm32f0xx_flash.c ****       FLASH->CR &= ~FLASH_CR_OPTPG;
 1057              		.loc 1 798 0
 1058 002e 2369     		ldr	r3, [r4, #16]
 1059 0030 AB43     		bic	r3, r5
 1060 0032 2361     		str	r3, [r4, #16]
 1061              	.LVL70:
 1062              	.L114:
 803:../Libraries/STM32F0xx_StdPeriph_Driver/src/stm32f0xx_flash.c **** }
 1063              		.loc 1 803 0
 1064              		@ sp needed for prologue
 1065 0034 70BD     		pop	{r4, r5, r6, pc}
 1066              	.L119:
 1067 0036 C046     		.align	2
 1068              	.L118:
 1069 0038 00200240 		.word	1073881088
 1070 003c 00F8FF1F 		.word	536868864
 1071              		.cfi_endproc
 1072              	.LFE49:
 1074              		.section	.text.FLASH_OB_UserConfig,"ax",%progbits
 1075              		.align	1
 1076              		.global	FLASH_OB_UserConfig
 1077              		.code	16
 1078              		.thumb_func
 1080              	FLASH_OB_UserConfig:
 1081              	.LFB48:
 736:../Libraries/STM32F0xx_StdPeriph_Driver/src/stm32f0xx_flash.c **** {
 1082              		.loc 1 736 0
 1083              		.cfi_startproc
 1084              	.LVL71:
 1085 0000 F7B5     		push	{r0, r1, r2, r4, r5, r6, r7, lr}
 1086              	.LCFI13:
 1087              		.cfi_def_cfa_offset 32
 1088              		.cfi_offset 0, -32
 1089              		.cfi_offset 1, -28
 1090              		.cfi_offset 2, -24
 1091              		.cfi_offset 4, -20
 1092              		.cfi_offset 5, -16
 1093              		.cfi_offset 6, -12
 1094              		.cfi_offset 7, -8
 1095              		.cfi_offset 14, -4
 736:../Libraries/STM32F0xx_StdPeriph_Driver/src/stm32f0xx_flash.c **** {
 1096              		.loc 1 736 0
 1097 0002 071C     		mov	r7, r0
 745:../Libraries/STM32F0xx_StdPeriph_Driver/src/stm32f0xx_flash.c ****   status = FLASH_WaitForLastOperation(FLASH_ER_PRG_TIMEOUT);
 1098              		.loc 1 745 0
 1099 0004 B020     		mov	r0, #176
 1100              	.LVL72:
 1101 0006 0003     		lsl	r0, r0, #12
 736:../Libraries/STM32F0xx_StdPeriph_Driver/src/stm32f0xx_flash.c **** {
 1102              		.loc 1 736 0
 1103 0008 0E1C     		mov	r6, r1
 1104 000a 0192     		str	r2, [sp, #4]
 745:../Libraries/STM32F0xx_StdPeriph_Driver/src/stm32f0xx_flash.c ****   status = FLASH_WaitForLastOperation(FLASH_ER_PRG_TIMEOUT);
 1105              		.loc 1 745 0
 1106 000c FFF7FEFF 		bl	FLASH_WaitForLastOperation
 1107              	.LVL73:
 747:../Libraries/STM32F0xx_StdPeriph_Driver/src/stm32f0xx_flash.c ****   if(status == FLASH_COMPLETE)
 1108              		.loc 1 747 0
 1109 0010 0428     		cmp	r0, #4
 1110 0012 16D1     		bne	.L121
 750:../Libraries/STM32F0xx_StdPeriph_Driver/src/stm32f0xx_flash.c ****     FLASH->CR |= FLASH_CR_OPTPG; 
 1111              		.loc 1 750 0
 1112 0014 0B4C     		ldr	r4, .L125
 1113 0016 1025     		mov	r5, #16
 1114 0018 2369     		ldr	r3, [r4, #16]
 755:../Libraries/STM32F0xx_StdPeriph_Driver/src/stm32f0xx_flash.c ****     status = FLASH_WaitForLastOperation(FLASH_ER_PRG_TIMEOUT);
 1115              		.loc 1 755 0
 1116 001a B020     		mov	r0, #176
 1117              	.LVL74:
 750:../Libraries/STM32F0xx_StdPeriph_Driver/src/stm32f0xx_flash.c ****     FLASH->CR |= FLASH_CR_OPTPG; 
 1118              		.loc 1 750 0
 1119 001c 2B43     		orr	r3, r5
 1120 001e 2361     		str	r3, [r4, #16]
 752:../Libraries/STM32F0xx_StdPeriph_Driver/src/stm32f0xx_flash.c ****     OB->USER = (uint16_t)((uint16_t)(OB_IWDG | OB_STOP) | (uint16_t)(OB_STDBY | 0xF8));
 1121              		.loc 1 752 0
 1122 0020 0823     		mov	r3, #8
 1123 0022 5B42     		neg	r3, r3
 1124 0024 1F43     		orr	r7, r3
 1125 0026 019B     		ldr	r3, [sp, #4]
 1126 0028 3E43     		orr	r6, r7
 1127 002a 1E43     		orr	r6, r3
 1128 002c 064B     		ldr	r3, .L125+4
 1129 002e F6B2     		uxtb	r6, r6
 1130 0030 5E80     		strh	r6, [r3, #2]
 755:../Libraries/STM32F0xx_StdPeriph_Driver/src/stm32f0xx_flash.c ****     status = FLASH_WaitForLastOperation(FLASH_ER_PRG_TIMEOUT);
 1131              		.loc 1 755 0
 1132 0032 0003     		lsl	r0, r0, #12
 1133 0034 FFF7FEFF 		bl	FLASH_WaitForLastOperation
 1134              	.LVL75:
 757:../Libraries/STM32F0xx_StdPeriph_Driver/src/stm32f0xx_flash.c ****     if(status != FLASH_TIMEOUT)
 1135              		.loc 1 757 0
 1136 0038 0528     		cmp	r0, #5
 1137 003a 02D0     		beq	.L121
 760:../Libraries/STM32F0xx_StdPeriph_Driver/src/stm32f0xx_flash.c ****       FLASH->CR &= ~FLASH_CR_OPTPG;
 1138              		.loc 1 760 0
 1139 003c 2369     		ldr	r3, [r4, #16]
 1140 003e AB43     		bic	r3, r5
 1141 0040 2361     		str	r3, [r4, #16]
 1142              	.LVL76:
 1143              	.L121:
 765:../Libraries/STM32F0xx_StdPeriph_Driver/src/stm32f0xx_flash.c **** }
 1144              		.loc 1 765 0
 1145              		@ sp needed for prologue
 1146 0042 FEBD     		pop	{r1, r2, r3, r4, r5, r6, r7, pc}
 1147              	.L126:
 1148              		.align	2
 1149              	.L125:
 1150 0044 00200240 		.word	1073881088
 1151 0048 00F8FF1F 		.word	536868864
 1152              		.cfi_endproc
 1153              	.LFE48:
 1155              		.section	.text.FLASH_OB_RDPConfig,"ax",%progbits
 1156              		.align	1
 1157              		.global	FLASH_OB_RDPConfig
 1158              		.code	16
 1159              		.thumb_func
 1161              	FLASH_OB_RDPConfig:
 1162              	.LFB47:
 668:../Libraries/STM32F0xx_StdPeriph_Driver/src/stm32f0xx_flash.c **** {
 1163              		.loc 1 668 0
 1164              		.cfi_startproc
 1165              	.LVL77:
 1166 0000 70B5     		push	{r4, r5, r6, lr}
 1167              	.LCFI14:
 1168              		.cfi_def_cfa_offset 16
 1169              		.cfi_offset 4, -16
 1170              		.cfi_offset 5, -12
 1171              		.cfi_offset 6, -8
 1172              		.cfi_offset 14, -4
 668:../Libraries/STM32F0xx_StdPeriph_Driver/src/stm32f0xx_flash.c **** {
 1173              		.loc 1 668 0
 1174 0002 061C     		mov	r6, r0
 673:../Libraries/STM32F0xx_StdPeriph_Driver/src/stm32f0xx_flash.c ****   status = FLASH_WaitForLastOperation(FLASH_ER_PRG_TIMEOUT);
 1175              		.loc 1 673 0
 1176 0004 B020     		mov	r0, #176
 1177              	.LVL78:
 1178 0006 0003     		lsl	r0, r0, #12
 1179 0008 FFF7FEFF 		bl	FLASH_WaitForLastOperation
 1180              	.LVL79:
 675:../Libraries/STM32F0xx_StdPeriph_Driver/src/stm32f0xx_flash.c ****   if(status == FLASH_COMPLETE)
 1181              		.loc 1 675 0
 1182 000c 0428     		cmp	r0, #4
 1183 000e 22D1     		bne	.L128
 677:../Libraries/STM32F0xx_StdPeriph_Driver/src/stm32f0xx_flash.c ****     FLASH->CR |= FLASH_CR_OPTER;
 1184              		.loc 1 677 0
 1185 0010 114C     		ldr	r4, .L137
 1186 0012 2025     		mov	r5, #32
 1187 0014 2369     		ldr	r3, [r4, #16]
 678:../Libraries/STM32F0xx_StdPeriph_Driver/src/stm32f0xx_flash.c ****     FLASH->CR |= FLASH_CR_STRT;
 1188              		.loc 1 678 0
 1189 0016 4022     		mov	r2, #64
 677:../Libraries/STM32F0xx_StdPeriph_Driver/src/stm32f0xx_flash.c ****     FLASH->CR |= FLASH_CR_OPTER;
 1190              		.loc 1 677 0
 1191 0018 2B43     		orr	r3, r5
 1192 001a 2361     		str	r3, [r4, #16]
 678:../Libraries/STM32F0xx_StdPeriph_Driver/src/stm32f0xx_flash.c ****     FLASH->CR |= FLASH_CR_STRT;
 1193              		.loc 1 678 0
 1194 001c 2369     		ldr	r3, [r4, #16]
 681:../Libraries/STM32F0xx_StdPeriph_Driver/src/stm32f0xx_flash.c ****     status = FLASH_WaitForLastOperation(FLASH_ER_PRG_TIMEOUT);
 1195              		.loc 1 681 0
 1196 001e B020     		mov	r0, #176
 1197              	.LVL80:
 678:../Libraries/STM32F0xx_StdPeriph_Driver/src/stm32f0xx_flash.c ****     FLASH->CR |= FLASH_CR_STRT;
 1198              		.loc 1 678 0
 1199 0020 1343     		orr	r3, r2
 1200 0022 2361     		str	r3, [r4, #16]
 681:../Libraries/STM32F0xx_StdPeriph_Driver/src/stm32f0xx_flash.c ****     status = FLASH_WaitForLastOperation(FLASH_ER_PRG_TIMEOUT);
 1201              		.loc 1 681 0
 1202 0024 0003     		lsl	r0, r0, #12
 1203 0026 FFF7FEFF 		bl	FLASH_WaitForLastOperation
 1204              	.LVL81:
 683:../Libraries/STM32F0xx_StdPeriph_Driver/src/stm32f0xx_flash.c ****     if(status == FLASH_COMPLETE)
 1205              		.loc 1 683 0
 1206 002a 0428     		cmp	r0, #4
 1207 002c 0CD1     		bne	.L136
 686:../Libraries/STM32F0xx_StdPeriph_Driver/src/stm32f0xx_flash.c ****       FLASH->CR &= ~FLASH_CR_OPTER;
 1208              		.loc 1 686 0
 1209 002e 2369     		ldr	r3, [r4, #16]
 694:../Libraries/STM32F0xx_StdPeriph_Driver/src/stm32f0xx_flash.c ****       status = FLASH_WaitForLastOperation(FLASH_ER_PRG_TIMEOUT); 
 1210              		.loc 1 694 0
 1211 0030 B020     		mov	r0, #176
 1212              	.LVL82:
 686:../Libraries/STM32F0xx_StdPeriph_Driver/src/stm32f0xx_flash.c ****       FLASH->CR &= ~FLASH_CR_OPTER;
 1213              		.loc 1 686 0
 1214 0032 AB43     		bic	r3, r5
 1215 0034 2361     		str	r3, [r4, #16]
 689:../Libraries/STM32F0xx_StdPeriph_Driver/src/stm32f0xx_flash.c ****       FLASH->CR |= FLASH_CR_OPTPG;
 1216              		.loc 1 689 0
 1217 0036 2369     		ldr	r3, [r4, #16]
 1218 0038 1025     		mov	r5, #16
 1219 003a 2B43     		orr	r3, r5
 1220 003c 2361     		str	r3, [r4, #16]
 691:../Libraries/STM32F0xx_StdPeriph_Driver/src/stm32f0xx_flash.c ****       OB->RDP = OB_RDP;
 1221              		.loc 1 691 0
 1222 003e 074B     		ldr	r3, .L137+4
 694:../Libraries/STM32F0xx_StdPeriph_Driver/src/stm32f0xx_flash.c ****       status = FLASH_WaitForLastOperation(FLASH_ER_PRG_TIMEOUT); 
 1223              		.loc 1 694 0
 1224 0040 0003     		lsl	r0, r0, #12
 691:../Libraries/STM32F0xx_StdPeriph_Driver/src/stm32f0xx_flash.c ****       OB->RDP = OB_RDP;
 1225              		.loc 1 691 0
 1226 0042 1E80     		strh	r6, [r3]
 694:../Libraries/STM32F0xx_StdPeriph_Driver/src/stm32f0xx_flash.c ****       status = FLASH_WaitForLastOperation(FLASH_ER_PRG_TIMEOUT); 
 1227              		.loc 1 694 0
 1228 0044 FFF7FEFF 		bl	FLASH_WaitForLastOperation
 1229              	.LVL83:
 1230              	.L136:
 696:../Libraries/STM32F0xx_StdPeriph_Driver/src/stm32f0xx_flash.c ****       if(status != FLASH_TIMEOUT)
 1231              		.loc 1 696 0
 1232 0048 0528     		cmp	r0, #5
 1233 004a 01D1     		bne	.L135
 668:../Libraries/STM32F0xx_StdPeriph_Driver/src/stm32f0xx_flash.c **** {
 1234              		.loc 1 668 0
 1235 004c 0520     		mov	r0, #5
 1236              	.LVL84:
 1237 004e 02E0     		b	.L128
 1238              	.LVL85:
 1239              	.L135:
 707:../Libraries/STM32F0xx_StdPeriph_Driver/src/stm32f0xx_flash.c ****         FLASH->CR &= ~FLASH_CR_OPTER;
 1240              		.loc 1 707 0
 1241 0050 2369     		ldr	r3, [r4, #16]
 1242 0052 AB43     		bic	r3, r5
 1243 0054 2361     		str	r3, [r4, #16]
 1244              	.LVL86:
 1245              	.L128:
 713:../Libraries/STM32F0xx_StdPeriph_Driver/src/stm32f0xx_flash.c **** }
 1246              		.loc 1 713 0
 1247              		@ sp needed for prologue
 1248 0056 70BD     		pop	{r4, r5, r6, pc}
 1249              	.L138:
 1250              		.align	2
 1251              	.L137:
 1252 0058 00200240 		.word	1073881088
 1253 005c 00F8FF1F 		.word	536868864
 1254              		.cfi_endproc
 1255              	.LFE47:
 1257              		.section	.text.FLASH_OB_EnableWRP,"ax",%progbits
 1258              		.align	1
 1259              		.global	FLASH_OB_EnableWRP
 1260              		.code	16
 1261              		.thumb_func
 1263              	FLASH_OB_EnableWRP:
 1264              	.LFB46:
 594:../Libraries/STM32F0xx_StdPeriph_Driver/src/stm32f0xx_flash.c **** {
 1265              		.loc 1 594 0
 1266              		.cfi_startproc
 1267              	.LVL87:
 1268 0000 38B5     		push	{r3, r4, r5, lr}
 1269              	.LCFI15:
 1270              		.cfi_def_cfa_offset 16
 1271              		.cfi_offset 3, -16
 1272              		.cfi_offset 4, -12
 1273              		.cfi_offset 5, -8
 1274              		.cfi_offset 14, -4
 594:../Libraries/STM32F0xx_StdPeriph_Driver/src/stm32f0xx_flash.c **** {
 1275              		.loc 1 594 0
 1276 0002 041C     		mov	r4, r0
 1277              	.LVL88:
 609:../Libraries/STM32F0xx_StdPeriph_Driver/src/stm32f0xx_flash.c ****   status = FLASH_WaitForLastOperation(FLASH_ER_PRG_TIMEOUT);
 1278              		.loc 1 609 0
 1279 0004 B020     		mov	r0, #176
 1280              	.LVL89:
 1281 0006 0003     		lsl	r0, r0, #12
 1282 0008 FFF7FEFF 		bl	FLASH_WaitForLastOperation
 1283              	.LVL90:
 611:../Libraries/STM32F0xx_StdPeriph_Driver/src/stm32f0xx_flash.c ****   if(status == FLASH_COMPLETE)
 1284              		.loc 1 611 0
 1285 000c 0428     		cmp	r0, #4
 1286 000e 38D1     		bne	.L140
 613:../Libraries/STM32F0xx_StdPeriph_Driver/src/stm32f0xx_flash.c ****     FLASH->CR |= FLASH_CR_OPTPG;
 1287              		.loc 1 613 0
 1288 0010 1C4B     		ldr	r3, .L169
 1289 0012 1025     		mov	r5, #16
 1290 0014 1969     		ldr	r1, [r3, #16]
 602:../Libraries/STM32F0xx_StdPeriph_Driver/src/stm32f0xx_flash.c ****   OB_WRP = (uint32_t)(~OB_WRP);
 1291              		.loc 1 602 0
 1292 0016 E443     		mvn	r4, r4
 1293              	.LVL91:
 613:../Libraries/STM32F0xx_StdPeriph_Driver/src/stm32f0xx_flash.c ****     FLASH->CR |= FLASH_CR_OPTPG;
 1294              		.loc 1 613 0
 1295 0018 2943     		orr	r1, r5
 603:../Libraries/STM32F0xx_StdPeriph_Driver/src/stm32f0xx_flash.c ****   WRP0_Data = (uint16_t)(OB_WRP & OB_WRP0_WRP0);
 1296              		.loc 1 603 0
 1297 001a E2B2     		uxtb	r2, r4
 613:../Libraries/STM32F0xx_StdPeriph_Driver/src/stm32f0xx_flash.c ****     FLASH->CR |= FLASH_CR_OPTPG;
 1298              		.loc 1 613 0
 1299 001c 1961     		str	r1, [r3, #16]
 1300 001e 1D1C     		mov	r5, r3
 615:../Libraries/STM32F0xx_StdPeriph_Driver/src/stm32f0xx_flash.c ****     if(WRP0_Data != 0xFF)
 1301              		.loc 1 615 0
 1302 0020 FF2A     		cmp	r2, #255
 1303 0022 05D0     		beq	.L141
 617:../Libraries/STM32F0xx_StdPeriph_Driver/src/stm32f0xx_flash.c ****       OB->WRP0 = WRP0_Data;
 1304              		.loc 1 617 0
 1305 0024 184B     		ldr	r3, .L169+4
 620:../Libraries/STM32F0xx_StdPeriph_Driver/src/stm32f0xx_flash.c ****       status = FLASH_WaitForLastOperation(FLASH_ER_PRG_TIMEOUT);
 1306              		.loc 1 620 0
 1307 0026 B020     		mov	r0, #176
 1308              	.LVL92:
 617:../Libraries/STM32F0xx_StdPeriph_Driver/src/stm32f0xx_flash.c ****       OB->WRP0 = WRP0_Data;
 1309              		.loc 1 617 0
 1310 0028 1A81     		strh	r2, [r3, #8]
 620:../Libraries/STM32F0xx_StdPeriph_Driver/src/stm32f0xx_flash.c ****       status = FLASH_WaitForLastOperation(FLASH_ER_PRG_TIMEOUT);
 1311              		.loc 1 620 0
 1312 002a 0003     		lsl	r0, r0, #12
 1313 002c FFF7FEFF 		bl	FLASH_WaitForLastOperation
 1314              	.LVL93:
 1315              	.L141:
 604:../Libraries/STM32F0xx_StdPeriph_Driver/src/stm32f0xx_flash.c ****   WRP1_Data = (uint16_t)((OB_WRP >> 8) & OB_WRP0_WRP0);
 1316              		.loc 1 604 0
 1317 0030 230A     		lsr	r3, r4, #8
 1318 0032 DBB2     		uxtb	r3, r3
 1319              	.LVL94:
 622:../Libraries/STM32F0xx_StdPeriph_Driver/src/stm32f0xx_flash.c ****     if((status == FLASH_COMPLETE) && (WRP1_Data != 0xFF))
 1320              		.loc 1 622 0
 1321 0034 0428     		cmp	r0, #4
 1322 0036 07D1     		bne	.L142
 1323 0038 FF2B     		cmp	r3, #255
 1324 003a 05D0     		beq	.L142
 624:../Libraries/STM32F0xx_StdPeriph_Driver/src/stm32f0xx_flash.c ****       OB->WRP1 = WRP1_Data;
 1325              		.loc 1 624 0
 1326 003c 124A     		ldr	r2, .L169+4
 627:../Libraries/STM32F0xx_StdPeriph_Driver/src/stm32f0xx_flash.c ****       status = FLASH_WaitForLastOperation(FLASH_ER_PRG_TIMEOUT);
 1327              		.loc 1 627 0
 1328 003e B020     		mov	r0, #176
 1329              	.LVL95:
 624:../Libraries/STM32F0xx_StdPeriph_Driver/src/stm32f0xx_flash.c ****       OB->WRP1 = WRP1_Data;
 1330              		.loc 1 624 0
 1331 0040 5381     		strh	r3, [r2, #10]
 627:../Libraries/STM32F0xx_StdPeriph_Driver/src/stm32f0xx_flash.c ****       status = FLASH_WaitForLastOperation(FLASH_ER_PRG_TIMEOUT);
 1332              		.loc 1 627 0
 1333 0042 0003     		lsl	r0, r0, #12
 1334 0044 FFF7FEFF 		bl	FLASH_WaitForLastOperation
 1335              	.LVL96:
 1336              	.L142:
 605:../Libraries/STM32F0xx_StdPeriph_Driver/src/stm32f0xx_flash.c ****   WRP2_Data = (uint16_t)((OB_WRP >> 16) & OB_WRP0_WRP0) ;
 1337              		.loc 1 605 0
 1338 0048 230C     		lsr	r3, r4, #16
 1339 004a DBB2     		uxtb	r3, r3
 1340              	.LVL97:
 629:../Libraries/STM32F0xx_StdPeriph_Driver/src/stm32f0xx_flash.c ****     if((status == FLASH_COMPLETE) && (WRP2_Data != 0xFF))
 1341              		.loc 1 629 0
 1342 004c 0428     		cmp	r0, #4
 1343 004e 07D1     		bne	.L143
 1344 0050 FF2B     		cmp	r3, #255
 1345 0052 05D0     		beq	.L143
 631:../Libraries/STM32F0xx_StdPeriph_Driver/src/stm32f0xx_flash.c ****       OB->WRP2 = WRP2_Data;
 1346              		.loc 1 631 0
 1347 0054 0C4A     		ldr	r2, .L169+4
 634:../Libraries/STM32F0xx_StdPeriph_Driver/src/stm32f0xx_flash.c ****       status = FLASH_WaitForLastOperation(FLASH_ER_PRG_TIMEOUT);
 1348              		.loc 1 634 0
 1349 0056 B020     		mov	r0, #176
 1350              	.LVL98:
 631:../Libraries/STM32F0xx_StdPeriph_Driver/src/stm32f0xx_flash.c ****       OB->WRP2 = WRP2_Data;
 1351              		.loc 1 631 0
 1352 0058 9381     		strh	r3, [r2, #12]
 634:../Libraries/STM32F0xx_StdPeriph_Driver/src/stm32f0xx_flash.c ****       status = FLASH_WaitForLastOperation(FLASH_ER_PRG_TIMEOUT);
 1353              		.loc 1 634 0
 1354 005a 0003     		lsl	r0, r0, #12
 1355 005c FFF7FEFF 		bl	FLASH_WaitForLastOperation
 1356              	.LVL99:
 1357              	.L143:
 606:../Libraries/STM32F0xx_StdPeriph_Driver/src/stm32f0xx_flash.c ****   WRP3_Data = (uint16_t)((OB_WRP >> 24) & OB_WRP0_WRP0) ;
 1358              		.loc 1 606 0
 1359 0060 240E     		lsr	r4, r4, #24
 1360              	.LVL100:
 636:../Libraries/STM32F0xx_StdPeriph_Driver/src/stm32f0xx_flash.c ****     if((status == FLASH_COMPLETE) && (WRP3_Data != 0xFF))
 1361              		.loc 1 636 0
 1362 0062 0428     		cmp	r0, #4
 1363 0064 07D1     		bne	.L144
 1364 0066 FF2C     		cmp	r4, #255
 1365 0068 05D0     		beq	.L144
 638:../Libraries/STM32F0xx_StdPeriph_Driver/src/stm32f0xx_flash.c ****       OB->WRP3 = WRP3_Data;
 1366              		.loc 1 638 0
 1367 006a 074B     		ldr	r3, .L169+4
 641:../Libraries/STM32F0xx_StdPeriph_Driver/src/stm32f0xx_flash.c ****       status = FLASH_WaitForLastOperation(FLASH_ER_PRG_TIMEOUT);
 1368              		.loc 1 641 0
 1369 006c B020     		mov	r0, #176
 1370              	.LVL101:
 638:../Libraries/STM32F0xx_StdPeriph_Driver/src/stm32f0xx_flash.c ****       OB->WRP3 = WRP3_Data;
 1371              		.loc 1 638 0
 1372 006e DC81     		strh	r4, [r3, #14]
 641:../Libraries/STM32F0xx_StdPeriph_Driver/src/stm32f0xx_flash.c ****       status = FLASH_WaitForLastOperation(FLASH_ER_PRG_TIMEOUT);
 1373              		.loc 1 641 0
 1374 0070 0003     		lsl	r0, r0, #12
 1375 0072 FFF7FEFF 		bl	FLASH_WaitForLastOperation
 1376              	.LVL102:
 1377              	.L144:
 643:../Libraries/STM32F0xx_StdPeriph_Driver/src/stm32f0xx_flash.c ****     if(status != FLASH_TIMEOUT)
 1378              		.loc 1 643 0
 1379 0076 0528     		cmp	r0, #5
 1380 0078 03D0     		beq	.L140
 646:../Libraries/STM32F0xx_StdPeriph_Driver/src/stm32f0xx_flash.c ****       FLASH->CR &= ~FLASH_CR_OPTPG;
 1381              		.loc 1 646 0
 1382 007a 2B69     		ldr	r3, [r5, #16]
 1383 007c 1022     		mov	r2, #16
 1384 007e 9343     		bic	r3, r2
 1385 0080 2B61     		str	r3, [r5, #16]
 1386              	.LVL103:
 1387              	.L140:
 651:../Libraries/STM32F0xx_StdPeriph_Driver/src/stm32f0xx_flash.c **** }
 1388              		.loc 1 651 0
 1389              		@ sp needed for prologue
 1390 0082 38BD     		pop	{r3, r4, r5, pc}
 1391              	.L170:
 1392              		.align	2
 1393              	.L169:
 1394 0084 00200240 		.word	1073881088
 1395 0088 00F8FF1F 		.word	536868864
 1396              		.cfi_endproc
 1397              	.LFE46:
 1399              		.section	.text.FLASH_OB_Erase,"ax",%progbits
 1400              		.align	1
 1401              		.global	FLASH_OB_Erase
 1402              		.code	16
 1403              		.thumb_func
 1405              	FLASH_OB_Erase:
 1406              	.LFB45:
 525:../Libraries/STM32F0xx_StdPeriph_Driver/src/stm32f0xx_flash.c **** {
 1407              		.loc 1 525 0
 1408              		.cfi_startproc
 1409              	.LVL104:
 1410 0000 70B5     		push	{r4, r5, r6, lr}
 1411              	.LCFI16:
 1412              		.cfi_def_cfa_offset 16
 1413              		.cfi_offset 4, -16
 1414              		.cfi_offset 5, -12
 1415              		.cfi_offset 6, -8
 1416              		.cfi_offset 14, -4
 531:../Libraries/STM32F0xx_StdPeriph_Driver/src/stm32f0xx_flash.c ****   if(FLASH_OB_GetRDP() != RESET)
 1417              		.loc 1 531 0
 1418 0002 FFF7FEFF 		bl	FLASH_OB_GetRDP
 1419              	.LVL105:
 533:../Libraries/STM32F0xx_StdPeriph_Driver/src/stm32f0xx_flash.c ****     rdptmp = 0x00;  
 1420              		.loc 1 533 0
 1421 0006 0026     		mov	r6, #0
 531:../Libraries/STM32F0xx_StdPeriph_Driver/src/stm32f0xx_flash.c ****   if(FLASH_OB_GetRDP() != RESET)
 1422              		.loc 1 531 0
 1423 0008 B042     		cmp	r0, r6
 1424 000a 00D1     		bne	.L172
 526:../Libraries/STM32F0xx_StdPeriph_Driver/src/stm32f0xx_flash.c ****   uint16_t rdptmp = OB_RDP_Level_0;
 1425              		.loc 1 526 0
 1426 000c AA26     		mov	r6, #170
 1427              	.L172:
 1428              	.LVL106:
 537:../Libraries/STM32F0xx_StdPeriph_Driver/src/stm32f0xx_flash.c ****   status = FLASH_WaitForLastOperation(FLASH_ER_PRG_TIMEOUT);
 1429              		.loc 1 537 0
 1430 000e B020     		mov	r0, #176
 1431 0010 0003     		lsl	r0, r0, #12
 1432 0012 FFF7FEFF 		bl	FLASH_WaitForLastOperation
 1433              	.LVL107:
 539:../Libraries/STM32F0xx_StdPeriph_Driver/src/stm32f0xx_flash.c ****   if(status == FLASH_COMPLETE)
 1434              		.loc 1 539 0
 1435 0016 0428     		cmp	r0, #4
 1436 0018 28D1     		bne	.L173
 542:../Libraries/STM32F0xx_StdPeriph_Driver/src/stm32f0xx_flash.c ****     FLASH->CR |= FLASH_CR_OPTER;
 1437              		.loc 1 542 0
 1438 001a 154C     		ldr	r4, .L182
 1439 001c 2025     		mov	r5, #32
 1440 001e 2369     		ldr	r3, [r4, #16]
 543:../Libraries/STM32F0xx_StdPeriph_Driver/src/stm32f0xx_flash.c ****     FLASH->CR |= FLASH_CR_STRT;
 1441              		.loc 1 543 0
 1442 0020 4022     		mov	r2, #64
 542:../Libraries/STM32F0xx_StdPeriph_Driver/src/stm32f0xx_flash.c ****     FLASH->CR |= FLASH_CR_OPTER;
 1443              		.loc 1 542 0
 1444 0022 2B43     		orr	r3, r5
 1445 0024 2361     		str	r3, [r4, #16]
 543:../Libraries/STM32F0xx_StdPeriph_Driver/src/stm32f0xx_flash.c ****     FLASH->CR |= FLASH_CR_STRT;
 1446              		.loc 1 543 0
 1447 0026 2369     		ldr	r3, [r4, #16]
 546:../Libraries/STM32F0xx_StdPeriph_Driver/src/stm32f0xx_flash.c ****     status = FLASH_WaitForLastOperation(FLASH_ER_PRG_TIMEOUT);
 1448              		.loc 1 546 0
 1449 0028 B020     		mov	r0, #176
 1450              	.LVL108:
 543:../Libraries/STM32F0xx_StdPeriph_Driver/src/stm32f0xx_flash.c ****     FLASH->CR |= FLASH_CR_STRT;
 1451              		.loc 1 543 0
 1452 002a 1343     		orr	r3, r2
 1453 002c 2361     		str	r3, [r4, #16]
 546:../Libraries/STM32F0xx_StdPeriph_Driver/src/stm32f0xx_flash.c ****     status = FLASH_WaitForLastOperation(FLASH_ER_PRG_TIMEOUT);
 1454              		.loc 1 546 0
 1455 002e 0003     		lsl	r0, r0, #12
 1456 0030 FFF7FEFF 		bl	FLASH_WaitForLastOperation
 1457              	.LVL109:
 548:../Libraries/STM32F0xx_StdPeriph_Driver/src/stm32f0xx_flash.c ****     if(status == FLASH_COMPLETE)
 1458              		.loc 1 548 0
 1459 0034 0428     		cmp	r0, #4
 1460 0036 13D1     		bne	.L174
 551:../Libraries/STM32F0xx_StdPeriph_Driver/src/stm32f0xx_flash.c ****       FLASH->CR &= ~FLASH_CR_OPTER;
 1461              		.loc 1 551 0
 1462 0038 2369     		ldr	r3, [r4, #16]
 560:../Libraries/STM32F0xx_StdPeriph_Driver/src/stm32f0xx_flash.c ****       status = FLASH_WaitForLastOperation(FLASH_ER_PRG_TIMEOUT);
 1463              		.loc 1 560 0
 1464 003a B020     		mov	r0, #176
 1465              	.LVL110:
 551:../Libraries/STM32F0xx_StdPeriph_Driver/src/stm32f0xx_flash.c ****       FLASH->CR &= ~FLASH_CR_OPTER;
 1466              		.loc 1 551 0
 1467 003c AB43     		bic	r3, r5
 1468 003e 2361     		str	r3, [r4, #16]
 554:../Libraries/STM32F0xx_StdPeriph_Driver/src/stm32f0xx_flash.c ****       FLASH->CR |= FLASH_CR_OPTPG;
 1469              		.loc 1 554 0
 1470 0040 2369     		ldr	r3, [r4, #16]
 1471 0042 1025     		mov	r5, #16
 1472 0044 2B43     		orr	r3, r5
 1473 0046 2361     		str	r3, [r4, #16]
 557:../Libraries/STM32F0xx_StdPeriph_Driver/src/stm32f0xx_flash.c ****       OB->RDP = (uint16_t)rdptmp; 
 1474              		.loc 1 557 0
 1475 0048 0A4B     		ldr	r3, .L182+4
 560:../Libraries/STM32F0xx_StdPeriph_Driver/src/stm32f0xx_flash.c ****       status = FLASH_WaitForLastOperation(FLASH_ER_PRG_TIMEOUT);
 1476              		.loc 1 560 0
 1477 004a 0003     		lsl	r0, r0, #12
 557:../Libraries/STM32F0xx_StdPeriph_Driver/src/stm32f0xx_flash.c ****       OB->RDP = (uint16_t)rdptmp; 
 1478              		.loc 1 557 0
 1479 004c 1E80     		strh	r6, [r3]
 560:../Libraries/STM32F0xx_StdPeriph_Driver/src/stm32f0xx_flash.c ****       status = FLASH_WaitForLastOperation(FLASH_ER_PRG_TIMEOUT);
 1480              		.loc 1 560 0
 1481 004e FFF7FEFF 		bl	FLASH_WaitForLastOperation
 1482              	.LVL111:
 562:../Libraries/STM32F0xx_StdPeriph_Driver/src/stm32f0xx_flash.c ****       if(status != FLASH_TIMEOUT)
 1483              		.loc 1 562 0
 1484 0052 0528     		cmp	r0, #5
 1485 0054 01D1     		bne	.L175
 1486              	.LVL112:
 1487              	.L176:
 533:../Libraries/STM32F0xx_StdPeriph_Driver/src/stm32f0xx_flash.c ****     rdptmp = 0x00;  
 1488              		.loc 1 533 0
 1489 0056 0520     		mov	r0, #5
 1490 0058 08E0     		b	.L173
 1491              	.LVL113:
 1492              	.L175:
 565:../Libraries/STM32F0xx_StdPeriph_Driver/src/stm32f0xx_flash.c ****         FLASH->CR &= ~FLASH_CR_OPTPG;
 1493              		.loc 1 565 0
 1494 005a 2369     		ldr	r3, [r4, #16]
 1495 005c AB43     		bic	r3, r5
 1496 005e 04E0     		b	.L181
 1497              	.L174:
 570:../Libraries/STM32F0xx_StdPeriph_Driver/src/stm32f0xx_flash.c ****       if (status != FLASH_TIMEOUT)
 1498              		.loc 1 570 0
 1499 0060 0528     		cmp	r0, #5
 1500 0062 F8D0     		beq	.L176
 573:../Libraries/STM32F0xx_StdPeriph_Driver/src/stm32f0xx_flash.c ****         FLASH->CR &= ~FLASH_CR_OPTPG;
 1501              		.loc 1 573 0
 1502 0064 2369     		ldr	r3, [r4, #16]
 1503 0066 1022     		mov	r2, #16
 1504 0068 9343     		bic	r3, r2
 1505              	.LVL114:
 1506              	.L181:
 1507 006a 2361     		str	r3, [r4, #16]
 1508              	.L173:
 1509              	.LVL115:
 579:../Libraries/STM32F0xx_StdPeriph_Driver/src/stm32f0xx_flash.c **** }
 1510              		.loc 1 579 0
 1511              		@ sp needed for prologue
 1512              	.LVL116:
 1513 006c 70BD     		pop	{r4, r5, r6, pc}
 1514              	.L183:
 1515 006e C046     		.align	2
 1516              	.L182:
 1517 0070 00200240 		.word	1073881088
 1518 0074 00F8FF1F 		.word	536868864
 1519              		.cfi_endproc
 1520              	.LFE45:
 1522              		.section	.text.FLASH_ProgramHalfWord,"ax",%progbits
 1523              		.align	1
 1524              		.global	FLASH_ProgramHalfWord
 1525              		.code	16
 1526              		.thumb_func
 1528              	FLASH_ProgramHalfWord:
 1529              	.LFB41:
 393:../Libraries/STM32F0xx_StdPeriph_Driver/src/stm32f0xx_flash.c **** {
 1530              		.loc 1 393 0
 1531              		.cfi_startproc
 1532              	.LVL117:
 1533 0000 F8B5     		push	{r3, r4, r5, r6, r7, lr}
 1534              	.LCFI17:
 1535              		.cfi_def_cfa_offset 24
 1536              		.cfi_offset 3, -24
 1537              		.cfi_offset 4, -20
 1538              		.cfi_offset 5, -16
 1539              		.cfi_offset 6, -12
 1540              		.cfi_offset 7, -8
 1541              		.cfi_offset 14, -4
 393:../Libraries/STM32F0xx_StdPeriph_Driver/src/stm32f0xx_flash.c **** {
 1542              		.loc 1 393 0
 1543 0002 061C     		mov	r6, r0
 400:../Libraries/STM32F0xx_StdPeriph_Driver/src/stm32f0xx_flash.c ****   status = FLASH_WaitForLastOperation(FLASH_ER_PRG_TIMEOUT);
 1544              		.loc 1 400 0
 1545 0004 B020     		mov	r0, #176
 1546              	.LVL118:
 1547 0006 0003     		lsl	r0, r0, #12
 393:../Libraries/STM32F0xx_StdPeriph_Driver/src/stm32f0xx_flash.c **** {
 1548              		.loc 1 393 0
 1549 0008 0F1C     		mov	r7, r1
 400:../Libraries/STM32F0xx_StdPeriph_Driver/src/stm32f0xx_flash.c ****   status = FLASH_WaitForLastOperation(FLASH_ER_PRG_TIMEOUT);
 1550              		.loc 1 400 0
 1551 000a FFF7FEFF 		bl	FLASH_WaitForLastOperation
 1552              	.LVL119:
 402:../Libraries/STM32F0xx_StdPeriph_Driver/src/stm32f0xx_flash.c ****   if(status == FLASH_COMPLETE)
 1553              		.loc 1 402 0
 1554 000e 0428     		cmp	r0, #4
 1555 0010 0CD1     		bne	.L185
 405:../Libraries/STM32F0xx_StdPeriph_Driver/src/stm32f0xx_flash.c ****     FLASH->CR |= FLASH_CR_PG;
 1556              		.loc 1 405 0
 1557 0012 074C     		ldr	r4, .L186
 1558 0014 0125     		mov	r5, #1
 1559 0016 2369     		ldr	r3, [r4, #16]
 410:../Libraries/STM32F0xx_StdPeriph_Driver/src/stm32f0xx_flash.c ****     status = FLASH_WaitForLastOperation(FLASH_ER_PRG_TIMEOUT);
 1560              		.loc 1 410 0
 1561 0018 B020     		mov	r0, #176
 1562              	.LVL120:
 405:../Libraries/STM32F0xx_StdPeriph_Driver/src/stm32f0xx_flash.c ****     FLASH->CR |= FLASH_CR_PG;
 1563              		.loc 1 405 0
 1564 001a 2B43     		orr	r3, r5
 1565 001c 2361     		str	r3, [r4, #16]
 410:../Libraries/STM32F0xx_StdPeriph_Driver/src/stm32f0xx_flash.c ****     status = FLASH_WaitForLastOperation(FLASH_ER_PRG_TIMEOUT);
 1566              		.loc 1 410 0
 1567 001e 0003     		lsl	r0, r0, #12
 407:../Libraries/STM32F0xx_StdPeriph_Driver/src/stm32f0xx_flash.c ****     *(__IO uint16_t*)Address = Data;
 1568              		.loc 1 407 0
 1569 0020 3780     		strh	r7, [r6]
 410:../Libraries/STM32F0xx_StdPeriph_Driver/src/stm32f0xx_flash.c ****     status = FLASH_WaitForLastOperation(FLASH_ER_PRG_TIMEOUT);
 1570              		.loc 1 410 0
 1571 0022 FFF7FEFF 		bl	FLASH_WaitForLastOperation
 1572              	.LVL121:
 413:../Libraries/STM32F0xx_StdPeriph_Driver/src/stm32f0xx_flash.c ****     FLASH->CR &= ~FLASH_CR_PG;
 1573              		.loc 1 413 0
 1574 0026 2369     		ldr	r3, [r4, #16]
 1575 0028 AB43     		bic	r3, r5
 1576 002a 2361     		str	r3, [r4, #16]
 1577              	.LVL122:
 1578              	.L185:
 418:../Libraries/STM32F0xx_StdPeriph_Driver/src/stm32f0xx_flash.c **** }
 1579              		.loc 1 418 0
 1580              		@ sp needed for prologue
 1581              	.LVL123:
 1582 002c F8BD     		pop	{r3, r4, r5, r6, r7, pc}
 1583              	.L187:
 1584 002e C046     		.align	2
 1585              	.L186:
 1586 0030 00200240 		.word	1073881088
 1587              		.cfi_endproc
 1588              	.LFE41:
 1590              		.section	.text.FLASH_ProgramWord,"ax",%progbits
 1591              		.align	1
 1592              		.global	FLASH_ProgramWord
 1593              		.code	16
 1594              		.thumb_func
 1596              	FLASH_ProgramWord:
 1597              	.LFB40:
 336:../Libraries/STM32F0xx_StdPeriph_Driver/src/stm32f0xx_flash.c **** {
 1598              		.loc 1 336 0
 1599              		.cfi_startproc
 1600              	.LVL124:
 1601 0000 F7B5     		push	{r0, r1, r2, r4, r5, r6, r7, lr}
 1602              	.LCFI18:
 1603              		.cfi_def_cfa_offset 32
 1604              		.cfi_offset 0, -32
 1605              		.cfi_offset 1, -28
 1606              		.cfi_offset 2, -24
 1607              		.cfi_offset 4, -20
 1608              		.cfi_offset 5, -16
 1609              		.cfi_offset 6, -12
 1610              		.cfi_offset 7, -8
 1611              		.cfi_offset 14, -4
 336:../Libraries/STM32F0xx_StdPeriph_Driver/src/stm32f0xx_flash.c **** {
 1612              		.loc 1 336 0
 1613 0002 071C     		mov	r7, r0
 344:../Libraries/STM32F0xx_StdPeriph_Driver/src/stm32f0xx_flash.c ****   status = FLASH_WaitForLastOperation(FLASH_ER_PRG_TIMEOUT);
 1614              		.loc 1 344 0
 1615 0004 B020     		mov	r0, #176
 1616              	.LVL125:
 338:../Libraries/STM32F0xx_StdPeriph_Driver/src/stm32f0xx_flash.c ****   __IO uint32_t tmp = 0;
 1617              		.loc 1 338 0
 1618 0006 0023     		mov	r3, #0
 344:../Libraries/STM32F0xx_StdPeriph_Driver/src/stm32f0xx_flash.c ****   status = FLASH_WaitForLastOperation(FLASH_ER_PRG_TIMEOUT);
 1619              		.loc 1 344 0
 1620 0008 0003     		lsl	r0, r0, #12
 336:../Libraries/STM32F0xx_StdPeriph_Driver/src/stm32f0xx_flash.c **** {
 1621              		.loc 1 336 0
 1622 000a 0E1C     		mov	r6, r1
 338:../Libraries/STM32F0xx_StdPeriph_Driver/src/stm32f0xx_flash.c ****   __IO uint32_t tmp = 0;
 1623              		.loc 1 338 0
 1624 000c 0193     		str	r3, [sp, #4]
 1625              	.LVL126:
 344:../Libraries/STM32F0xx_StdPeriph_Driver/src/stm32f0xx_flash.c ****   status = FLASH_WaitForLastOperation(FLASH_ER_PRG_TIMEOUT);
 1626              		.loc 1 344 0
 1627 000e FFF7FEFF 		bl	FLASH_WaitForLastOperation
 1628              	.LVL127:
 346:../Libraries/STM32F0xx_StdPeriph_Driver/src/stm32f0xx_flash.c ****   if(status == FLASH_COMPLETE)
 1629              		.loc 1 346 0
 1630 0012 0428     		cmp	r0, #4
 1631 0014 17D1     		bne	.L189
 350:../Libraries/STM32F0xx_StdPeriph_Driver/src/stm32f0xx_flash.c ****     FLASH->CR |= FLASH_CR_PG;
 1632              		.loc 1 350 0
 1633 0016 0C4C     		ldr	r4, .L191
 1634 0018 0125     		mov	r5, #1
 1635 001a 2369     		ldr	r3, [r4, #16]
 355:../Libraries/STM32F0xx_StdPeriph_Driver/src/stm32f0xx_flash.c ****     status = FLASH_WaitForLastOperation(FLASH_ER_PRG_TIMEOUT);
 1636              		.loc 1 355 0
 1637 001c B020     		mov	r0, #176
 1638              	.LVL128:
 350:../Libraries/STM32F0xx_StdPeriph_Driver/src/stm32f0xx_flash.c ****     FLASH->CR |= FLASH_CR_PG;
 1639              		.loc 1 350 0
 1640 001e 2B43     		orr	r3, r5
 1641 0020 2361     		str	r3, [r4, #16]
 355:../Libraries/STM32F0xx_StdPeriph_Driver/src/stm32f0xx_flash.c ****     status = FLASH_WaitForLastOperation(FLASH_ER_PRG_TIMEOUT);
 1642              		.loc 1 355 0
 1643 0022 0003     		lsl	r0, r0, #12
 352:../Libraries/STM32F0xx_StdPeriph_Driver/src/stm32f0xx_flash.c ****     *(__IO uint16_t*)Address = (uint16_t)Data;
 1644              		.loc 1 352 0
 1645 0024 3E80     		strh	r6, [r7]
 355:../Libraries/STM32F0xx_StdPeriph_Driver/src/stm32f0xx_flash.c ****     status = FLASH_WaitForLastOperation(FLASH_ER_PRG_TIMEOUT);
 1646              		.loc 1 355 0
 1647 0026 FFF7FEFF 		bl	FLASH_WaitForLastOperation
 1648              	.LVL129:
 357:../Libraries/STM32F0xx_StdPeriph_Driver/src/stm32f0xx_flash.c ****     if(status == FLASH_COMPLETE)
 1649              		.loc 1 357 0
 1650 002a 0428     		cmp	r0, #4
 1651 002c 08D1     		bne	.L190
 361:../Libraries/STM32F0xx_StdPeriph_Driver/src/stm32f0xx_flash.c ****       tmp = Address + 2;
 1652              		.loc 1 361 0
 1653 002e 0237     		add	r7, r7, #2
 1654              	.LVL130:
 1655 0030 0197     		str	r7, [sp, #4]
 1656              	.LVL131:
 363:../Libraries/STM32F0xx_StdPeriph_Driver/src/stm32f0xx_flash.c ****       *(__IO uint16_t*) tmp = Data >> 16;
 1657              		.loc 1 363 0
 1658 0032 019B     		ldr	r3, [sp, #4]
 1659 0034 360C     		lsr	r6, r6, #16
 1660              	.LVL132:
 366:../Libraries/STM32F0xx_StdPeriph_Driver/src/stm32f0xx_flash.c ****       status = FLASH_WaitForLastOperation(FLASH_ER_PRG_TIMEOUT);
 1661              		.loc 1 366 0
 1662 0036 B020     		mov	r0, #176
 1663              	.LVL133:
 363:../Libraries/STM32F0xx_StdPeriph_Driver/src/stm32f0xx_flash.c ****       *(__IO uint16_t*) tmp = Data >> 16;
 1664              		.loc 1 363 0
 1665 0038 1E80     		strh	r6, [r3]
 366:../Libraries/STM32F0xx_StdPeriph_Driver/src/stm32f0xx_flash.c ****       status = FLASH_WaitForLastOperation(FLASH_ER_PRG_TIMEOUT);
 1666              		.loc 1 366 0
 1667 003a 0003     		lsl	r0, r0, #12
 1668 003c FFF7FEFF 		bl	FLASH_WaitForLastOperation
 1669              	.LVL134:
 1670              	.L190:
 374:../Libraries/STM32F0xx_StdPeriph_Driver/src/stm32f0xx_flash.c ****       FLASH->CR &= ~FLASH_CR_PG;
 1671              		.loc 1 374 0
 1672 0040 2369     		ldr	r3, [r4, #16]
 1673 0042 AB43     		bic	r3, r5
 1674 0044 2361     		str	r3, [r4, #16]
 1675              	.L189:
 1676              	.LVL135:
 380:../Libraries/STM32F0xx_StdPeriph_Driver/src/stm32f0xx_flash.c **** }
 1677              		.loc 1 380 0
 1678              		@ sp needed for prologue
 1679 0046 FEBD     		pop	{r1, r2, r3, r4, r5, r6, r7, pc}
 1680              	.L192:
 1681              		.align	2
 1682              	.L191:
 1683 0048 00200240 		.word	1073881088
 1684              		.cfi_endproc
 1685              	.LFE40:
 1687              		.section	.text.FLASH_EraseAllPages,"ax",%progbits
 1688              		.align	1
 1689              		.global	FLASH_EraseAllPages
 1690              		.code	16
 1691              		.thumb_func
 1693              	FLASH_EraseAllPages:
 1694              	.LFB39:
 302:../Libraries/STM32F0xx_StdPeriph_Driver/src/stm32f0xx_flash.c **** {
 1695              		.loc 1 302 0
 1696              		.cfi_startproc
 1697              	.LVL136:
 306:../Libraries/STM32F0xx_StdPeriph_Driver/src/stm32f0xx_flash.c ****   status = FLASH_WaitForLastOperation(FLASH_ER_PRG_TIMEOUT);
 1698              		.loc 1 306 0
 1699 0000 B020     		mov	r0, #176
 302:../Libraries/STM32F0xx_StdPeriph_Driver/src/stm32f0xx_flash.c **** {
 1700              		.loc 1 302 0
 1701 0002 38B5     		push	{r3, r4, r5, lr}
 1702              	.LCFI19:
 1703              		.cfi_def_cfa_offset 16
 1704              		.cfi_offset 3, -16
 1705              		.cfi_offset 4, -12
 1706              		.cfi_offset 5, -8
 1707              		.cfi_offset 14, -4
 306:../Libraries/STM32F0xx_StdPeriph_Driver/src/stm32f0xx_flash.c ****   status = FLASH_WaitForLastOperation(FLASH_ER_PRG_TIMEOUT);
 1708              		.loc 1 306 0
 1709 0004 0003     		lsl	r0, r0, #12
 1710 0006 FFF7FEFF 		bl	FLASH_WaitForLastOperation
 1711              	.LVL137:
 1712 000a 051C     		mov	r5, r0
 1713              	.LVL138:
 308:../Libraries/STM32F0xx_StdPeriph_Driver/src/stm32f0xx_flash.c ****   if(status == FLASH_COMPLETE)
 1714              		.loc 1 308 0
 1715 000c 0428     		cmp	r0, #4
 1716 000e 0ED1     		bne	.L194
 311:../Libraries/STM32F0xx_StdPeriph_Driver/src/stm32f0xx_flash.c ****      FLASH->CR |= FLASH_CR_MER;
 1717              		.loc 1 311 0
 1718 0010 074C     		ldr	r4, .L195
 312:../Libraries/STM32F0xx_StdPeriph_Driver/src/stm32f0xx_flash.c ****      FLASH->CR |= FLASH_CR_STRT;
 1719              		.loc 1 312 0
 1720 0012 4022     		mov	r2, #64
 311:../Libraries/STM32F0xx_StdPeriph_Driver/src/stm32f0xx_flash.c ****      FLASH->CR |= FLASH_CR_MER;
 1721              		.loc 1 311 0
 1722 0014 2369     		ldr	r3, [r4, #16]
 1723 0016 1843     		orr	r0, r3
 1724              	.LVL139:
 1725 0018 2061     		str	r0, [r4, #16]
 312:../Libraries/STM32F0xx_StdPeriph_Driver/src/stm32f0xx_flash.c ****      FLASH->CR |= FLASH_CR_STRT;
 1726              		.loc 1 312 0
 1727 001a 2369     		ldr	r3, [r4, #16]
 315:../Libraries/STM32F0xx_StdPeriph_Driver/src/stm32f0xx_flash.c ****     status = FLASH_WaitForLastOperation(FLASH_ER_PRG_TIMEOUT);
 1728              		.loc 1 315 0
 1729 001c B020     		mov	r0, #176
 312:../Libraries/STM32F0xx_StdPeriph_Driver/src/stm32f0xx_flash.c ****      FLASH->CR |= FLASH_CR_STRT;
 1730              		.loc 1 312 0
 1731 001e 1343     		orr	r3, r2
 1732 0020 2361     		str	r3, [r4, #16]
 315:../Libraries/STM32F0xx_StdPeriph_Driver/src/stm32f0xx_flash.c ****     status = FLASH_WaitForLastOperation(FLASH_ER_PRG_TIMEOUT);
 1733              		.loc 1 315 0
 1734 0022 0003     		lsl	r0, r0, #12
 1735 0024 FFF7FEFF 		bl	FLASH_WaitForLastOperation
 1736              	.LVL140:
 318:../Libraries/STM32F0xx_StdPeriph_Driver/src/stm32f0xx_flash.c ****     FLASH->CR &= ~FLASH_CR_MER;
 1737              		.loc 1 318 0
 1738 0028 2369     		ldr	r3, [r4, #16]
 1739 002a AB43     		bic	r3, r5
 1740 002c 2361     		str	r3, [r4, #16]
 1741              	.LVL141:
 1742              	.L194:
 323:../Libraries/STM32F0xx_StdPeriph_Driver/src/stm32f0xx_flash.c **** }
 1743              		.loc 1 323 0
 1744              		@ sp needed for prologue
 1745 002e 38BD     		pop	{r3, r4, r5, pc}
 1746              	.L196:
 1747              		.align	2
 1748              	.L195:
 1749 0030 00200240 		.word	1073881088
 1750              		.cfi_endproc
 1751              	.LFE39:
 1753              		.section	.text.FLASH_ErasePage,"ax",%progbits
 1754              		.align	1
 1755              		.global	FLASH_ErasePage
 1756              		.code	16
 1757              		.thumb_func
 1759              	FLASH_ErasePage:
 1760              	.LFB38:
 265:../Libraries/STM32F0xx_StdPeriph_Driver/src/stm32f0xx_flash.c **** {
 1761              		.loc 1 265 0
 1762              		.cfi_startproc
 1763              	.LVL142:
 1764 0000 70B5     		push	{r4, r5, r6, lr}
 1765              	.LCFI20:
 1766              		.cfi_def_cfa_offset 16
 1767              		.cfi_offset 4, -16
 1768              		.cfi_offset 5, -12
 1769              		.cfi_offset 6, -8
 1770              		.cfi_offset 14, -4
 265:../Libraries/STM32F0xx_StdPeriph_Driver/src/stm32f0xx_flash.c **** {
 1771              		.loc 1 265 0
 1772 0002 061C     		mov	r6, r0
 272:../Libraries/STM32F0xx_StdPeriph_Driver/src/stm32f0xx_flash.c ****   status = FLASH_WaitForLastOperation(FLASH_ER_PRG_TIMEOUT);
 1773              		.loc 1 272 0
 1774 0004 B020     		mov	r0, #176
 1775              	.LVL143:
 1776 0006 0003     		lsl	r0, r0, #12
 1777 0008 FFF7FEFF 		bl	FLASH_WaitForLastOperation
 1778              	.LVL144:
 274:../Libraries/STM32F0xx_StdPeriph_Driver/src/stm32f0xx_flash.c ****   if(status == FLASH_COMPLETE)
 1779              		.loc 1 274 0
 1780 000c 0428     		cmp	r0, #4
 1781 000e 10D1     		bne	.L198
 277:../Libraries/STM32F0xx_StdPeriph_Driver/src/stm32f0xx_flash.c ****     FLASH->CR |= FLASH_CR_PER;
 1782              		.loc 1 277 0
 1783 0010 084C     		ldr	r4, .L199
 1784 0012 0225     		mov	r5, #2
 1785 0014 2369     		ldr	r3, [r4, #16]
 279:../Libraries/STM32F0xx_StdPeriph_Driver/src/stm32f0xx_flash.c ****     FLASH->CR |= FLASH_CR_STRT;
 1786              		.loc 1 279 0
 1787 0016 4022     		mov	r2, #64
 277:../Libraries/STM32F0xx_StdPeriph_Driver/src/stm32f0xx_flash.c ****     FLASH->CR |= FLASH_CR_PER;
 1788              		.loc 1 277 0
 1789 0018 2B43     		orr	r3, r5
 1790 001a 2361     		str	r3, [r4, #16]
 278:../Libraries/STM32F0xx_StdPeriph_Driver/src/stm32f0xx_flash.c ****     FLASH->AR  = Page_Address;
 1791              		.loc 1 278 0
 1792 001c 6661     		str	r6, [r4, #20]
 279:../Libraries/STM32F0xx_StdPeriph_Driver/src/stm32f0xx_flash.c ****     FLASH->CR |= FLASH_CR_STRT;
 1793              		.loc 1 279 0
 1794 001e 2369     		ldr	r3, [r4, #16]
 282:../Libraries/STM32F0xx_StdPeriph_Driver/src/stm32f0xx_flash.c ****     status = FLASH_WaitForLastOperation(FLASH_ER_PRG_TIMEOUT);
 1795              		.loc 1 282 0
 1796 0020 B020     		mov	r0, #176
 1797              	.LVL145:
 279:../Libraries/STM32F0xx_StdPeriph_Driver/src/stm32f0xx_flash.c ****     FLASH->CR |= FLASH_CR_STRT;
 1798              		.loc 1 279 0
 1799 0022 1343     		orr	r3, r2
 1800 0024 2361     		str	r3, [r4, #16]
 282:../Libraries/STM32F0xx_StdPeriph_Driver/src/stm32f0xx_flash.c ****     status = FLASH_WaitForLastOperation(FLASH_ER_PRG_TIMEOUT);
 1801              		.loc 1 282 0
 1802 0026 0003     		lsl	r0, r0, #12
 1803 0028 FFF7FEFF 		bl	FLASH_WaitForLastOperation
 1804              	.LVL146:
 285:../Libraries/STM32F0xx_StdPeriph_Driver/src/stm32f0xx_flash.c ****     FLASH->CR &= ~FLASH_CR_PER;
 1805              		.loc 1 285 0
 1806 002c 2369     		ldr	r3, [r4, #16]
 1807 002e AB43     		bic	r3, r5
 1808 0030 2361     		str	r3, [r4, #16]
 1809              	.LVL147:
 1810              	.L198:
 290:../Libraries/STM32F0xx_StdPeriph_Driver/src/stm32f0xx_flash.c **** }
 1811              		.loc 1 290 0
 1812              		@ sp needed for prologue
 1813              	.LVL148:
 1814 0032 70BD     		pop	{r4, r5, r6, pc}
 1815              	.L200:
 1816              		.align	2
 1817              	.L199:
 1818 0034 00200240 		.word	1073881088
 1819              		.cfi_endproc
 1820              	.LFE38:
 1822              		.text
 1823              	.Letext0:
 1824              		.file 2 "c:\\program files (x86)\\codesourcery\\sourcery_codebench_lite_for_arm_eabi\\bin\\../lib/
 1825              		.file 3 "D:\\EclipseIndigo\\workspace\\cam_hub\\scr/stm32f0xx.h"
 1826              		.file 4 "D:\\EclipseIndigo\\workspace\\cam_hub\\Libraries\\STM32F0xx_StdPeriph_Driver\\inc/stm32f0