   1              		.cpu cortex-m0
   2              		.fpu softvfp
   3              		.eabi_attribute 20, 1
   4              		.eabi_attribute 21, 1
   5              		.eabi_attribute 23, 3
   6              		.eabi_attribute 24, 1
   7              		.eabi_attribute 25, 1
   8              		.eabi_attribute 26, 1
   9              		.eabi_attribute 30, 4
  10              		.eabi_attribute 34, 0
  11              		.eabi_attribute 18, 4
  12              		.code	16
  13              		.file	"stm32f0xx_dbgmcu.c"
  14              		.text
  15              	.Ltext0:
  16              		.cfi_sections	.debug_frame
  17              		.section	.text.DBGMCU_GetREVID,"ax",%progbits
  18              		.align	1
  19              		.global	DBGMCU_GetREVID
  20              		.code	16
  21              		.thumb_func
  23              	DBGMCU_GetREVID:
  24              	.LFB33:
  25              		.file 1 "../Libraries/STM32F0xx_StdPeriph_Driver/src/stm32f0xx_dbgmcu.c"
   1:../Libraries/STM32F0xx_StdPeriph_Driver/src/stm32f0xx_dbgmcu.c **** /**
   2:../Libraries/STM32F0xx_StdPeriph_Driver/src/stm32f0xx_dbgmcu.c ****   ******************************************************************************
   3:../Libraries/STM32F0xx_StdPeriph_Driver/src/stm32f0xx_dbgmcu.c ****   * @file    stm32f0xx_dbgmcu.c
   4:../Libraries/STM32F0xx_StdPeriph_Driver/src/stm32f0xx_dbgmcu.c ****   * @author  MCD Application Team
   5:../Libraries/STM32F0xx_StdPeriph_Driver/src/stm32f0xx_dbgmcu.c ****   * @version V1.5.0
   6:../Libraries/STM32F0xx_StdPeriph_Driver/src/stm32f0xx_dbgmcu.c ****   * @date    05-December-2014
   7:../Libraries/STM32F0xx_StdPeriph_Driver/src/stm32f0xx_dbgmcu.c ****   * @brief   This file provides firmware functions to manage the following 
   8:../Libraries/STM32F0xx_StdPeriph_Driver/src/stm32f0xx_dbgmcu.c ****   *          functionalities of the Debug MCU (DBGMCU) peripheral:
   9:../Libraries/STM32F0xx_StdPeriph_Driver/src/stm32f0xx_dbgmcu.c ****   *           + Device and Revision ID management
  10:../Libraries/STM32F0xx_StdPeriph_Driver/src/stm32f0xx_dbgmcu.c ****   *           + Peripherals Configuration
  11:../Libraries/STM32F0xx_StdPeriph_Driver/src/stm32f0xx_dbgmcu.c ****   *  @verbatim
  12:../Libraries/STM32F0xx_StdPeriph_Driver/src/stm32f0xx_dbgmcu.c ****   *  @endverbatim
  13:../Libraries/STM32F0xx_StdPeriph_Driver/src/stm32f0xx_dbgmcu.c ****   *
  14:../Libraries/STM32F0xx_StdPeriph_Driver/src/stm32f0xx_dbgmcu.c ****   ******************************************************************************
  15:../Libraries/STM32F0xx_StdPeriph_Driver/src/stm32f0xx_dbgmcu.c ****   * @attention
  16:../Libraries/STM32F0xx_StdPeriph_Driver/src/stm32f0xx_dbgmcu.c ****   *
  17:../Libraries/STM32F0xx_StdPeriph_Driver/src/stm32f0xx_dbgmcu.c ****   * <h2><center>&copy; COPYRIGHT 2014 STMicroelectronics</center></h2>
  18:../Libraries/STM32F0xx_StdPeriph_Driver/src/stm32f0xx_dbgmcu.c ****   *
  19:../Libraries/STM32F0xx_StdPeriph_Driver/src/stm32f0xx_dbgmcu.c ****   * Licensed under MCD-ST Liberty SW License Agreement V2, (the "License");
  20:../Libraries/STM32F0xx_StdPeriph_Driver/src/stm32f0xx_dbgmcu.c ****   * You may not use this file except in compliance with the License.
  21:../Libraries/STM32F0xx_StdPeriph_Driver/src/stm32f0xx_dbgmcu.c ****   * You may obtain a copy of the License at:
  22:../Libraries/STM32F0xx_StdPeriph_Driver/src/stm32f0xx_dbgmcu.c ****   *
  23:../Libraries/STM32F0xx_StdPeriph_Driver/src/stm32f0xx_dbgmcu.c ****   *        http://www.st.com/software_license_agreement_liberty_v2
  24:../Libraries/STM32F0xx_StdPeriph_Driver/src/stm32f0xx_dbgmcu.c ****   *
  25:../Libraries/STM32F0xx_StdPeriph_Driver/src/stm32f0xx_dbgmcu.c ****   * Unless required by applicable law or agreed to in writing, software 
  26:../Libraries/STM32F0xx_StdPeriph_Driver/src/stm32f0xx_dbgmcu.c ****   * distributed under the License is distributed on an "AS IS" BASIS, 
  27:../Libraries/STM32F0xx_StdPeriph_Driver/src/stm32f0xx_dbgmcu.c ****   * WITHOUT WARRANTIES OR CONDITIONS OF ANY KIND, either express or implied.
  28:../Libraries/STM32F0xx_StdPeriph_Driver/src/stm32f0xx_dbgmcu.c ****   * See the License for the specific language governing permissions and
  29:../Libraries/STM32F0xx_StdPeriph_Driver/src/stm32f0xx_dbgmcu.c ****   * limitations under the License.
  30:../Libraries/STM32F0xx_StdPeriph_Driver/src/stm32f0xx_dbgmcu.c ****   *
  31:../Libraries/STM32F0xx_StdPeriph_Driver/src/stm32f0xx_dbgmcu.c ****   ******************************************************************************
  32:../Libraries/STM32F0xx_StdPeriph_Driver/src/stm32f0xx_dbgmcu.c ****   */
  33:../Libraries/STM32F0xx_StdPeriph_Driver/src/stm32f0xx_dbgmcu.c **** 
  34:../Libraries/STM32F0xx_StdPeriph_Driver/src/stm32f0xx_dbgmcu.c **** /* Includes ------------------------------------------------------------------*/
  35:../Libraries/STM32F0xx_StdPeriph_Driver/src/stm32f0xx_dbgmcu.c **** #include "stm32f0xx_dbgmcu.h"
  36:../Libraries/STM32F0xx_StdPeriph_Driver/src/stm32f0xx_dbgmcu.c **** 
  37:../Libraries/STM32F0xx_StdPeriph_Driver/src/stm32f0xx_dbgmcu.c **** /** @addtogroup STM32F0xx_StdPeriph_Driver
  38:../Libraries/STM32F0xx_StdPeriph_Driver/src/stm32f0xx_dbgmcu.c ****   * @{
  39:../Libraries/STM32F0xx_StdPeriph_Driver/src/stm32f0xx_dbgmcu.c ****   */
  40:../Libraries/STM32F0xx_StdPeriph_Driver/src/stm32f0xx_dbgmcu.c **** 
  41:../Libraries/STM32F0xx_StdPeriph_Driver/src/stm32f0xx_dbgmcu.c **** /** @defgroup DBGMCU 
  42:../Libraries/STM32F0xx_StdPeriph_Driver/src/stm32f0xx_dbgmcu.c ****   * @brief DBGMCU driver modules
  43:../Libraries/STM32F0xx_StdPeriph_Driver/src/stm32f0xx_dbgmcu.c ****   * @{
  44:../Libraries/STM32F0xx_StdPeriph_Driver/src/stm32f0xx_dbgmcu.c ****   */
  45:../Libraries/STM32F0xx_StdPeriph_Driver/src/stm32f0xx_dbgmcu.c **** 
  46:../Libraries/STM32F0xx_StdPeriph_Driver/src/stm32f0xx_dbgmcu.c **** /* Private typedef -----------------------------------------------------------*/
  47:../Libraries/STM32F0xx_StdPeriph_Driver/src/stm32f0xx_dbgmcu.c **** /* Private define ------------------------------------------------------------*/
  48:../Libraries/STM32F0xx_StdPeriph_Driver/src/stm32f0xx_dbgmcu.c **** #define IDCODE_DEVID_MASK    ((uint32_t)0x00000FFF)
  49:../Libraries/STM32F0xx_StdPeriph_Driver/src/stm32f0xx_dbgmcu.c **** 
  50:../Libraries/STM32F0xx_StdPeriph_Driver/src/stm32f0xx_dbgmcu.c **** /* Private macro -------------------------------------------------------------*/
  51:../Libraries/STM32F0xx_StdPeriph_Driver/src/stm32f0xx_dbgmcu.c **** /* Private variables ---------------------------------------------------------*/
  52:../Libraries/STM32F0xx_StdPeriph_Driver/src/stm32f0xx_dbgmcu.c **** /* Private function prototypes -----------------------------------------------*/
  53:../Libraries/STM32F0xx_StdPeriph_Driver/src/stm32f0xx_dbgmcu.c **** /* Private functions ---------------------------------------------------------*/
  54:../Libraries/STM32F0xx_StdPeriph_Driver/src/stm32f0xx_dbgmcu.c **** 
  55:../Libraries/STM32F0xx_StdPeriph_Driver/src/stm32f0xx_dbgmcu.c **** /** @defgroup DBGMCU_Private_Functions 
  56:../Libraries/STM32F0xx_StdPeriph_Driver/src/stm32f0xx_dbgmcu.c ****   * @{
  57:../Libraries/STM32F0xx_StdPeriph_Driver/src/stm32f0xx_dbgmcu.c ****   */
  58:../Libraries/STM32F0xx_StdPeriph_Driver/src/stm32f0xx_dbgmcu.c ****   
  59:../Libraries/STM32F0xx_StdPeriph_Driver/src/stm32f0xx_dbgmcu.c **** 
  60:../Libraries/STM32F0xx_StdPeriph_Driver/src/stm32f0xx_dbgmcu.c **** /** @defgroup DBGMCU_Group1 Device and Revision ID management functions
  61:../Libraries/STM32F0xx_StdPeriph_Driver/src/stm32f0xx_dbgmcu.c ****  *  @brief   Device and Revision ID management functions
  62:../Libraries/STM32F0xx_StdPeriph_Driver/src/stm32f0xx_dbgmcu.c ****  *
  63:../Libraries/STM32F0xx_StdPeriph_Driver/src/stm32f0xx_dbgmcu.c **** @verbatim
  64:../Libraries/STM32F0xx_StdPeriph_Driver/src/stm32f0xx_dbgmcu.c ****   ==============================================================================
  65:../Libraries/STM32F0xx_StdPeriph_Driver/src/stm32f0xx_dbgmcu.c ****             ##### Device and Revision ID management functions #####
  66:../Libraries/STM32F0xx_StdPeriph_Driver/src/stm32f0xx_dbgmcu.c ****   ==============================================================================
  67:../Libraries/STM32F0xx_StdPeriph_Driver/src/stm32f0xx_dbgmcu.c **** 
  68:../Libraries/STM32F0xx_StdPeriph_Driver/src/stm32f0xx_dbgmcu.c **** @endverbatim
  69:../Libraries/STM32F0xx_StdPeriph_Driver/src/stm32f0xx_dbgmcu.c ****   * @{
  70:../Libraries/STM32F0xx_StdPeriph_Driver/src/stm32f0xx_dbgmcu.c ****   */
  71:../Libraries/STM32F0xx_StdPeriph_Driver/src/stm32f0xx_dbgmcu.c **** 
  72:../Libraries/STM32F0xx_StdPeriph_Driver/src/stm32f0xx_dbgmcu.c **** /**
  73:../Libraries/STM32F0xx_StdPeriph_Driver/src/stm32f0xx_dbgmcu.c ****   * @brief  Returns the device revision identifier.
  74:../Libraries/STM32F0xx_StdPeriph_Driver/src/stm32f0xx_dbgmcu.c ****   * @param  None
  75:../Libraries/STM32F0xx_StdPeriph_Driver/src/stm32f0xx_dbgmcu.c ****   * @retval Device revision identifier
  76:../Libraries/STM32F0xx_StdPeriph_Driver/src/stm32f0xx_dbgmcu.c ****   */
  77:../Libraries/STM32F0xx_StdPeriph_Driver/src/stm32f0xx_dbgmcu.c **** uint32_t DBGMCU_GetREVID(void)
  78:../Libraries/STM32F0xx_StdPeriph_Driver/src/stm32f0xx_dbgmcu.c **** {
  26              		.loc 1 78 0
  27              		.cfi_startproc
  79:../Libraries/STM32F0xx_StdPeriph_Driver/src/stm32f0xx_dbgmcu.c ****    return(DBGMCU->IDCODE >> 16);
  28              		.loc 1 79 0
  29 0000 014B     		ldr	r3, .L2
  80:../Libraries/STM32F0xx_StdPeriph_Driver/src/stm32f0xx_dbgmcu.c **** }
  30              		.loc 1 80 0
  31              		@ sp needed for prologue
  79:../Libraries/STM32F0xx_StdPeriph_Driver/src/stm32f0xx_dbgmcu.c ****    return(DBGMCU->IDCODE >> 16);
  32              		.loc 1 79 0
  33 0002 1868     		ldr	r0, [r3]
  34 0004 000C     		lsr	r0, r0, #16
  35              		.loc 1 80 0
  36 0006 7047     		bx	lr
  37              	.L3:
  38              		.align	2
  39              	.L2:
  40 0008 00580140 		.word	1073829888
  41              		.cfi_endproc
  42              	.LFE33:
  44              		.section	.text.DBGMCU_GetDEVID,"ax",%progbits
  45              		.align	1
  46              		.global	DBGMCU_GetDEVID
  47              		.code	16
  48              		.thumb_func
  50              	DBGMCU_GetDEVID:
  51              	.LFB34:
  81:../Libraries/STM32F0xx_StdPeriph_Driver/src/stm32f0xx_dbgmcu.c **** 
  82:../Libraries/STM32F0xx_StdPeriph_Driver/src/stm32f0xx_dbgmcu.c **** /**
  83:../Libraries/STM32F0xx_StdPeriph_Driver/src/stm32f0xx_dbgmcu.c ****   * @brief  Returns the device identifier.
  84:../Libraries/STM32F0xx_StdPeriph_Driver/src/stm32f0xx_dbgmcu.c ****   * @param  None
  85:../Libraries/STM32F0xx_StdPeriph_Driver/src/stm32f0xx_dbgmcu.c ****   * @retval Device identifier
  86:../Libraries/STM32F0xx_StdPeriph_Driver/src/stm32f0xx_dbgmcu.c ****   */
  87:../Libraries/STM32F0xx_StdPeriph_Driver/src/stm32f0xx_dbgmcu.c **** uint32_t DBGMCU_GetDEVID(void)
  88:../Libraries/STM32F0xx_StdPeriph_Driver/src/stm32f0xx_dbgmcu.c **** {
  52              		.loc 1 88 0
  53              		.cfi_startproc
  89:../Libraries/STM32F0xx_StdPeriph_Driver/src/stm32f0xx_dbgmcu.c ****    return(DBGMCU->IDCODE & IDCODE_DEVID_MASK);
  54              		.loc 1 89 0
  55 0000 024B     		ldr	r3, .L5
  90:../Libraries/STM32F0xx_StdPeriph_Driver/src/stm32f0xx_dbgmcu.c **** }
  56              		.loc 1 90 0
  57              		@ sp needed for prologue
  89:../Libraries/STM32F0xx_StdPeriph_Driver/src/stm32f0xx_dbgmcu.c ****    return(DBGMCU->IDCODE & IDCODE_DEVID_MASK);
  58              		.loc 1 89 0
  59 0002 1868     		ldr	r0, [r3]
  60 0004 0005     		lsl	r0, r0, #20
  61 0006 000D     		lsr	r0, r0, #20
  62              		.loc 1 90 0
  63 0008 7047     		bx	lr
  64              	.L6:
  65 000a C046     		.align	2
  66              	.L5:
  67 000c 00580140 		.word	1073829888
  68              		.cfi_endproc
  69              	.LFE34:
  71              		.section	.text.DBGMCU_Config,"ax",%progbits
  72              		.align	1
  73              		.global	DBGMCU_Config
  74              		.code	16
  75              		.thumb_func
  77              	DBGMCU_Config:
  78              	.LFB35:
  91:../Libraries/STM32F0xx_StdPeriph_Driver/src/stm32f0xx_dbgmcu.c **** 
  92:../Libraries/STM32F0xx_StdPeriph_Driver/src/stm32f0xx_dbgmcu.c **** /**
  93:../Libraries/STM32F0xx_StdPeriph_Driver/src/stm32f0xx_dbgmcu.c ****   * @}
  94:../Libraries/STM32F0xx_StdPeriph_Driver/src/stm32f0xx_dbgmcu.c ****   */
  95:../Libraries/STM32F0xx_StdPeriph_Driver/src/stm32f0xx_dbgmcu.c ****   
  96:../Libraries/STM32F0xx_StdPeriph_Driver/src/stm32f0xx_dbgmcu.c **** /** @defgroup DBGMCU_Group2 Peripherals Configuration functions
  97:../Libraries/STM32F0xx_StdPeriph_Driver/src/stm32f0xx_dbgmcu.c ****  *  @brief   Peripherals Configuration
  98:../Libraries/STM32F0xx_StdPeriph_Driver/src/stm32f0xx_dbgmcu.c ****  *
  99:../Libraries/STM32F0xx_StdPeriph_Driver/src/stm32f0xx_dbgmcu.c **** @verbatim
 100:../Libraries/STM32F0xx_StdPeriph_Driver/src/stm32f0xx_dbgmcu.c ****   ==============================================================================
 101:../Libraries/STM32F0xx_StdPeriph_Driver/src/stm32f0xx_dbgmcu.c ****                ##### Peripherals Configuration functions #####
 102:../Libraries/STM32F0xx_StdPeriph_Driver/src/stm32f0xx_dbgmcu.c ****   ==============================================================================
 103:../Libraries/STM32F0xx_StdPeriph_Driver/src/stm32f0xx_dbgmcu.c **** 
 104:../Libraries/STM32F0xx_StdPeriph_Driver/src/stm32f0xx_dbgmcu.c **** @endverbatim
 105:../Libraries/STM32F0xx_StdPeriph_Driver/src/stm32f0xx_dbgmcu.c ****   * @{
 106:../Libraries/STM32F0xx_StdPeriph_Driver/src/stm32f0xx_dbgmcu.c ****   */
 107:../Libraries/STM32F0xx_StdPeriph_Driver/src/stm32f0xx_dbgmcu.c **** 
 108:../Libraries/STM32F0xx_StdPeriph_Driver/src/stm32f0xx_dbgmcu.c **** /**
 109:../Libraries/STM32F0xx_StdPeriph_Driver/src/stm32f0xx_dbgmcu.c ****   * @brief  Configures low power mode behavior when the MCU is in Debug mode.
 110:../Libraries/STM32F0xx_StdPeriph_Driver/src/stm32f0xx_dbgmcu.c ****   * @param  DBGMCU_Periph: specifies the low power mode.
 111:../Libraries/STM32F0xx_StdPeriph_Driver/src/stm32f0xx_dbgmcu.c ****   *          This parameter can be any combination of the following values:
 112:../Libraries/STM32F0xx_StdPeriph_Driver/src/stm32f0xx_dbgmcu.c ****   *             @arg DBGMCU_STOP: Keep debugger connection during STOP mode
 113:../Libraries/STM32F0xx_StdPeriph_Driver/src/stm32f0xx_dbgmcu.c ****   *             @arg DBGMCU_STANDBY: Keep debugger connection during STANDBY mode
 114:../Libraries/STM32F0xx_StdPeriph_Driver/src/stm32f0xx_dbgmcu.c ****   * @param  NewState: new state of the specified low power mode in Debug mode.
 115:../Libraries/STM32F0xx_StdPeriph_Driver/src/stm32f0xx_dbgmcu.c ****   *          This parameter can be: ENABLE or DISABLE.
 116:../Libraries/STM32F0xx_StdPeriph_Driver/src/stm32f0xx_dbgmcu.c ****   * @retval None
 117:../Libraries/STM32F0xx_StdPeriph_Driver/src/stm32f0xx_dbgmcu.c ****   */
 118:../Libraries/STM32F0xx_StdPeriph_Driver/src/stm32f0xx_dbgmcu.c **** void DBGMCU_Config(uint32_t DBGMCU_Periph, FunctionalState NewState)
 119:../Libraries/STM32F0xx_StdPeriph_Driver/src/stm32f0xx_dbgmcu.c **** {
  79              		.loc 1 119 0
  80              		.cfi_startproc
  81              	.LVL0:
  82 0000 054B     		ldr	r3, .L10
  83 0002 00B5     		push	{lr}
  84              	.LCFI0:
  85              		.cfi_def_cfa_offset 4
  86              		.cfi_offset 14, -4
 120:../Libraries/STM32F0xx_StdPeriph_Driver/src/stm32f0xx_dbgmcu.c ****   /* Check the parameters */
 121:../Libraries/STM32F0xx_StdPeriph_Driver/src/stm32f0xx_dbgmcu.c ****   assert_param(IS_DBGMCU_PERIPH(DBGMCU_Periph));
 122:../Libraries/STM32F0xx_StdPeriph_Driver/src/stm32f0xx_dbgmcu.c ****   assert_param(IS_FUNCTIONAL_STATE(NewState));
 123:../Libraries/STM32F0xx_StdPeriph_Driver/src/stm32f0xx_dbgmcu.c **** 
 124:../Libraries/STM32F0xx_StdPeriph_Driver/src/stm32f0xx_dbgmcu.c ****   if (NewState != DISABLE)
 125:../Libraries/STM32F0xx_StdPeriph_Driver/src/stm32f0xx_dbgmcu.c ****   {
 126:../Libraries/STM32F0xx_StdPeriph_Driver/src/stm32f0xx_dbgmcu.c ****     DBGMCU->CR |= DBGMCU_Periph;
  87              		.loc 1 126 0
  88 0004 5A68     		ldr	r2, [r3, #4]
 124:../Libraries/STM32F0xx_StdPeriph_Driver/src/stm32f0xx_dbgmcu.c ****   if (NewState != DISABLE)
  89              		.loc 1 124 0
  90 0006 0029     		cmp	r1, #0
  91 0008 02D0     		beq	.L8
  92              		.loc 1 126 0
  93 000a 1043     		orr	r0, r2
  94              	.LVL1:
  95 000c 5860     		str	r0, [r3, #4]
  96 000e 01E0     		b	.L7
  97              	.LVL2:
  98              	.L8:
 127:../Libraries/STM32F0xx_StdPeriph_Driver/src/stm32f0xx_dbgmcu.c ****   }
 128:../Libraries/STM32F0xx_StdPeriph_Driver/src/stm32f0xx_dbgmcu.c ****   else
 129:../Libraries/STM32F0xx_StdPeriph_Driver/src/stm32f0xx_dbgmcu.c ****   {
 130:../Libraries/STM32F0xx_StdPeriph_Driver/src/stm32f0xx_dbgmcu.c ****     DBGMCU->CR &= ~DBGMCU_Periph;
  99              		.loc 1 130 0
 100 0010 8243     		bic	r2, r0
 101 0012 5A60     		str	r2, [r3, #4]
 102              	.LVL3:
 103              	.L7:
 131:../Libraries/STM32F0xx_StdPeriph_Driver/src/stm32f0xx_dbgmcu.c ****   }
 132:../Libraries/STM32F0xx_StdPeriph_Driver/src/stm32f0xx_dbgmcu.c **** }
 104              		.loc 1 132 0
 105              		@ sp needed for prologue
 106 0014 00BD     		pop	{pc}
 107              	.L11:
 108 0016 C046     		.align	2
 109              	.L10:
 110 0018 00580140 		.word	1073829888
 111              		.cfi_endproc
 112              	.LFE35:
 114              		.section	.text.DBGMCU_APB1PeriphConfig,"ax",%progbits
 115              		.align	1
 116              		.global	DBGMCU_APB1PeriphConfig
 117              		.code	16
 118              		.thumb_func
 120              	DBGMCU_APB1PeriphConfig:
 121              	.LFB36:
 133:../Libraries/STM32F0xx_StdPeriph_Driver/src/stm32f0xx_dbgmcu.c **** 
 134:../Libraries/STM32F0xx_StdPeriph_Driver/src/stm32f0xx_dbgmcu.c **** 
 135:../Libraries/STM32F0xx_StdPeriph_Driver/src/stm32f0xx_dbgmcu.c **** /**
 136:../Libraries/STM32F0xx_StdPeriph_Driver/src/stm32f0xx_dbgmcu.c ****   * @brief  Configures APB1 peripheral behavior when the MCU is in Debug mode.
 137:../Libraries/STM32F0xx_StdPeriph_Driver/src/stm32f0xx_dbgmcu.c ****   * @param  DBGMCU_Periph: specifies the APB1 peripheral.
 138:../Libraries/STM32F0xx_StdPeriph_Driver/src/stm32f0xx_dbgmcu.c ****   *          This parameter can be any combination of the following values:
 139:../Libraries/STM32F0xx_StdPeriph_Driver/src/stm32f0xx_dbgmcu.c ****   *             @arg DBGMCU_TIM2_STOP: TIM2 counter stopped when Core is halted, 
 140:../Libraries/STM32F0xx_StdPeriph_Driver/src/stm32f0xx_dbgmcu.c ****   *                  not applicable for STM32F030 devices   
 141:../Libraries/STM32F0xx_StdPeriph_Driver/src/stm32f0xx_dbgmcu.c ****   *             @arg DBGMCU_TIM3_STOP: TIM3 counter stopped when Core is halted
 142:../Libraries/STM32F0xx_StdPeriph_Driver/src/stm32f0xx_dbgmcu.c ****   *             @arg DBGMCU_TIM6_STOP: TIM6 counter stopped when Core is halted
 143:../Libraries/STM32F0xx_StdPeriph_Driver/src/stm32f0xx_dbgmcu.c ****   *             @arg DBGMCU_TIM7_STOP: TIM7 counter stopped when Core is halted, 
 144:../Libraries/STM32F0xx_StdPeriph_Driver/src/stm32f0xx_dbgmcu.c ****   *                  applicable only for STM32F072 devices               
 145:../Libraries/STM32F0xx_StdPeriph_Driver/src/stm32f0xx_dbgmcu.c ****   *             @arg DBGMCU_TIM14_STOP: TIM14 counter stopped when Core is halted
 146:../Libraries/STM32F0xx_StdPeriph_Driver/src/stm32f0xx_dbgmcu.c ****   *             @arg DBGMCU_RTC_STOP: RTC Calendar and Wakeup counter stopped 
 147:../Libraries/STM32F0xx_StdPeriph_Driver/src/stm32f0xx_dbgmcu.c ****   *                                   when Core is halted.
 148:../Libraries/STM32F0xx_StdPeriph_Driver/src/stm32f0xx_dbgmcu.c ****   *             @arg DBGMCU_WWDG_STOP: Debug WWDG stopped when Core is halted
 149:../Libraries/STM32F0xx_StdPeriph_Driver/src/stm32f0xx_dbgmcu.c ****   *             @arg DBGMCU_IWDG_STOP: Debug IWDG stopped when Core is halted
 150:../Libraries/STM32F0xx_StdPeriph_Driver/src/stm32f0xx_dbgmcu.c ****   *             @arg DBGMCU_I2C1_SMBUS_TIMEOUT: I2C1 SMBUS timeout mode stopped 
 151:../Libraries/STM32F0xx_StdPeriph_Driver/src/stm32f0xx_dbgmcu.c ****   *                                             when Core is halted
 152:../Libraries/STM32F0xx_StdPeriph_Driver/src/stm32f0xx_dbgmcu.c ****   *             @arg DBGMCU_CAN1_STOP: Debug CAN1 stopped when Core is halted, 
 153:../Libraries/STM32F0xx_StdPeriph_Driver/src/stm32f0xx_dbgmcu.c ****   *                  applicable only for STM32F042 and STM32F072 devices               
 154:../Libraries/STM32F0xx_StdPeriph_Driver/src/stm32f0xx_dbgmcu.c ****   * @param  NewState: new state of the specified APB1 peripheral in Debug mode.
 155:../Libraries/STM32F0xx_StdPeriph_Driver/src/stm32f0xx_dbgmcu.c ****   *          This parameter can be: ENABLE or DISABLE.
 156:../Libraries/STM32F0xx_StdPeriph_Driver/src/stm32f0xx_dbgmcu.c ****   * @retval None
 157:../Libraries/STM32F0xx_StdPeriph_Driver/src/stm32f0xx_dbgmcu.c ****   */
 158:../Libraries/STM32F0xx_StdPeriph_Driver/src/stm32f0xx_dbgmcu.c **** void DBGMCU_APB1PeriphConfig(uint32_t DBGMCU_Periph, FunctionalState NewState)
 159:../Libraries/STM32F0xx_StdPeriph_Driver/src/stm32f0xx_dbgmcu.c **** {
 122              		.loc 1 159 0
 123              		.cfi_startproc
 124              	.LVL4:
 125 0000 054B     		ldr	r3, .L15
 126 0002 00B5     		push	{lr}
 127              	.LCFI1:
 128              		.cfi_def_cfa_offset 4
 129              		.cfi_offset 14, -4
 160:../Libraries/STM32F0xx_StdPeriph_Driver/src/stm32f0xx_dbgmcu.c ****   /* Check the parameters */
 161:../Libraries/STM32F0xx_StdPeriph_Driver/src/stm32f0xx_dbgmcu.c ****   assert_param(IS_DBGMCU_APB1PERIPH(DBGMCU_Periph));
 162:../Libraries/STM32F0xx_StdPeriph_Driver/src/stm32f0xx_dbgmcu.c ****   assert_param(IS_FUNCTIONAL_STATE(NewState));
 163:../Libraries/STM32F0xx_StdPeriph_Driver/src/stm32f0xx_dbgmcu.c **** 
 164:../Libraries/STM32F0xx_StdPeriph_Driver/src/stm32f0xx_dbgmcu.c ****   if (NewState != DISABLE)
 165:../Libraries/STM32F0xx_StdPeriph_Driver/src/stm32f0xx_dbgmcu.c ****   {
 166:../Libraries/STM32F0xx_StdPeriph_Driver/src/stm32f0xx_dbgmcu.c ****     DBGMCU->APB1FZ |= DBGMCU_Periph;
 130              		.loc 1 166 0
 131 0004 9A68     		ldr	r2, [r3, #8]
 164:../Libraries/STM32F0xx_StdPeriph_Driver/src/stm32f0xx_dbgmcu.c ****   if (NewState != DISABLE)
 132              		.loc 1 164 0
 133 0006 0029     		cmp	r1, #0
 134 0008 02D0     		beq	.L13
 135              		.loc 1 166 0
 136 000a 1043     		orr	r0, r2
 137              	.LVL5:
 138 000c 9860     		str	r0, [r3, #8]
 139 000e 01E0     		b	.L12
 140              	.LVL6:
 141              	.L13:
 167:../Libraries/STM32F0xx_StdPeriph_Driver/src/stm32f0xx_dbgmcu.c ****   }
 168:../Libraries/STM32F0xx_StdPeriph_Driver/src/stm32f0xx_dbgmcu.c ****   else
 169:../Libraries/STM32F0xx_StdPeriph_Driver/src/stm32f0xx_dbgmcu.c ****   {
 170:../Libraries/STM32F0xx_StdPeriph_Driver/src/stm32f0xx_dbgmcu.c ****     DBGMCU->APB1FZ &= ~DBGMCU_Periph;
 142              		.loc 1 170 0
 143 0010 8243     		bic	r2, r0
 144 0012 9A60     		str	r2, [r3, #8]
 145              	.LVL7:
 146              	.L12:
 171:../Libraries/STM32F0xx_StdPeriph_Driver/src/stm32f0xx_dbgmcu.c ****   }
 172:../Libraries/STM32F0xx_StdPeriph_Driver/src/stm32f0xx_dbgmcu.c **** }
 147              		.loc 1 172 0
 148              		@ sp needed for prologue
 149 0014 00BD     		pop	{pc}
 150              	.L16:
 151 0016 C046     		.align	2
 152              	.L15:
 153 0018 00580140 		.word	1073829888
 154              		.cfi_endproc
 155              	.LFE36:
 157              		.section	.text.DBGMCU_APB2PeriphConfig,"ax",%progbits
 158              		.align	1
 159              		.global	DBGMCU_APB2PeriphConfig
 160              		.code	16
 161              		.thumb_func
 163              	DBGMCU_APB2PeriphConfig:
 164              	.LFB37:
 173:../Libraries/STM32F0xx_StdPeriph_Driver/src/stm32f0xx_dbgmcu.c **** 
 174:../Libraries/STM32F0xx_StdPeriph_Driver/src/stm32f0xx_dbgmcu.c **** /**
 175:../Libraries/STM32F0xx_StdPeriph_Driver/src/stm32f0xx_dbgmcu.c ****   * @brief  Configures APB2 peripheral behavior when the MCU is in Debug mode.
 176:../Libraries/STM32F0xx_StdPeriph_Driver/src/stm32f0xx_dbgmcu.c ****   * @param  DBGMCU_Periph: specifies the APB2 peripheral.
 177:../Libraries/STM32F0xx_StdPeriph_Driver/src/stm32f0xx_dbgmcu.c ****   *          This parameter can be any combination of the following values:
 178:../Libraries/STM32F0xx_StdPeriph_Driver/src/stm32f0xx_dbgmcu.c ****   *             @arg DBGMCU_TIM1_STOP: TIM1 counter stopped when Core is halted
 179:../Libraries/STM32F0xx_StdPeriph_Driver/src/stm32f0xx_dbgmcu.c ****   *             @arg DBGMCU_TIM15_STOP: TIM15 counter stopped when Core is halted
 180:../Libraries/STM32F0xx_StdPeriph_Driver/src/stm32f0xx_dbgmcu.c ****   *             @arg DBGMCU_TIM16_STOP: TIM16 counter stopped when Core is halted
 181:../Libraries/STM32F0xx_StdPeriph_Driver/src/stm32f0xx_dbgmcu.c ****   *             @arg DBGMCU_TIM17_STOP: TIM17 counter stopped when Core is halted
 182:../Libraries/STM32F0xx_StdPeriph_Driver/src/stm32f0xx_dbgmcu.c ****   * @param  NewState: new state of the specified APB2 peripheral in Debug mode.
 183:../Libraries/STM32F0xx_StdPeriph_Driver/src/stm32f0xx_dbgmcu.c ****   *          This parameter can be: ENABLE or DISABLE.
 184:../Libraries/STM32F0xx_StdPeriph_Driver/src/stm32f0xx_dbgmcu.c ****   * @retval None
 185:../Libraries/STM32F0xx_StdPeriph_Driver/src/stm32f0xx_dbgmcu.c ****   */
 186:../Libraries/STM32F0xx_StdPeriph_Driver/src/stm32f0xx_dbgmcu.c **** void DBGMCU_APB2PeriphConfig(uint32_t DBGMCU_Periph, FunctionalState NewState)
 187:../Libraries/STM32F0xx_StdPeriph_Driver/src/stm32f0xx_dbgmcu.c **** {
 165              		.loc 1 187 0
 166              		.cfi_startproc
 167              	.LVL8:
 168 0000 054B     		ldr	r3, .L20
 169 0002 00B5     		push	{lr}
 170              	.LCFI2:
 171              		.cfi_def_cfa_offset 4
 172              		.cfi_offset 14, -4
 188:../Libraries/STM32F0xx_StdPeriph_Driver/src/stm32f0xx_dbgmcu.c ****   /* Check the parameters */
 189:../Libraries/STM32F0xx_StdPeriph_Driver/src/stm32f0xx_dbgmcu.c ****   assert_param(IS_DBGMCU_APB2PERIPH(DBGMCU_Periph));
 190:../Libraries/STM32F0xx_StdPeriph_Driver/src/stm32f0xx_dbgmcu.c ****   assert_param(IS_FUNCTIONAL_STATE(NewState));
 191:../Libraries/STM32F0xx_StdPeriph_Driver/src/stm32f0xx_dbgmcu.c **** 
 192:../Libraries/STM32F0xx_StdPeriph_Driver/src/stm32f0xx_dbgmcu.c ****   if (NewState != DISABLE)
 193:../Libraries/STM32F0xx_StdPeriph_Driver/src/stm32f0xx_dbgmcu.c ****   {
 194:../Libraries/STM32F0xx_StdPeriph_Driver/src/stm32f0xx_dbgmcu.c ****     DBGMCU->APB2FZ |= DBGMCU_Periph;
 173              		.loc 1 194 0
 174 0004 DA68     		ldr	r2, [r3, #12]
 192:../Libraries/STM32F0xx_StdPeriph_Driver/src/stm32f0xx_dbgmcu.c ****   if (NewState != DISABLE)
 175              		.loc 1 192 0
 176 0006 0029     		cmp	r1, #0
 177 0008 02D0     		beq	.L18
 178              		.loc 1 194 0
 179 000a 1043     		orr	r0, r2
 180              	.LVL9:
 181 000c D860     		str	r0, [r3, #12]
 182 000e 01E0     		b	.L17
 183              	.LVL10:
 184              	.L18:
 195:../Libraries/STM32F0xx_StdPeriph_Driver/src/stm32f0xx_dbgmcu.c ****   }
 196:../Libraries/STM32F0xx_StdPeriph_Driver/src/stm32f0xx_dbgmcu.c ****   else
 197:../Libraries/STM32F0xx_StdPeriph_Driver/src/stm32f0xx_dbgmcu.c ****   {
 198:../Libraries/STM32F0xx_StdPeriph_Driver/src/stm32f0xx_dbgmcu.c ****     DBGMCU->APB2FZ &= ~DBGMCU_Periph;
 185              		.loc 1 198 0
 186 0010 8243     		bic	r2, r0
 187 0012 DA60     		str	r2, [r3, #12]
 188              	.LVL11:
 189              	.L17:
 199:../Libraries/STM32F0xx_StdPeriph_Driver/src/stm32f0xx_dbgmcu.c ****   }
 200:../Libraries/STM32F0xx_StdPeriph_Driver/src/stm32f0xx_dbgmcu.c **** }
 190              		.loc 1 200 0
 191              		@ sp needed for prologue
 192 0014 00BD     		pop	{pc}
 193              	.L21:
 194 0016 C046     		.align	2
 195              	.L20:
 196 0018 00580140 		.word	1073829888
 197              		.cfi_endproc
 198              	.LFE37:
 200              		.text
 201              	.Letext0:
 202              		.file 2 "c:\\program files (x86)\\codesourcery\\sourcery_codebench_lite_for_arm_eabi\\bin\\../lib/
 203              		.file 3 "D:\\EclipseIndigo\\workspace\\cam_hub\\scr/stm32f0xx.h"