   1              		.cpu cortex-m0
   2              		.fpu softvfp
   3              		.eabi_attribute 20, 1
   4              		.eabi_attribute 21, 1
   5              		.eabi_attribute 23, 3
   6              		.eabi_attribute 24, 1
   7              		.eabi_attribute 25, 1
   8              		.eabi_attribute 26, 1
   9              		.eabi_attribute 30, 4
  10              		.eabi_attribute 34, 0
  11              		.eabi_attribute 18, 4
  12              		.code	16
  13              		.file	"stm32f0xx_dac.c"
  14              		.text
  15              	.Ltext0:
  16              		.cfi_sections	.debug_frame
  17              		.section	.text.DAC_DeInit,"ax",%progbits
  18              		.align	1
  19              		.global	DAC_DeInit
  20              		.code	16
  21              		.thumb_func
  23              	DAC_DeInit:
  24              	.LFB33:
  25              		.file 1 "../Libraries/STM32F0xx_StdPeriph_Driver/src/stm32f0xx_dac.c"
   1:../Libraries/STM32F0xx_StdPeriph_Driver/src/stm32f0xx_dac.c **** /**
   2:../Libraries/STM32F0xx_StdPeriph_Driver/src/stm32f0xx_dac.c ****   ******************************************************************************
   3:../Libraries/STM32F0xx_StdPeriph_Driver/src/stm32f0xx_dac.c ****   * @file    stm32f0xx_dac.c
   4:../Libraries/STM32F0xx_StdPeriph_Driver/src/stm32f0xx_dac.c ****   * @author  MCD Application Team
   5:../Libraries/STM32F0xx_StdPeriph_Driver/src/stm32f0xx_dac.c ****   * @version V1.5.0
   6:../Libraries/STM32F0xx_StdPeriph_Driver/src/stm32f0xx_dac.c ****   * @date    05-December-2014
   7:../Libraries/STM32F0xx_StdPeriph_Driver/src/stm32f0xx_dac.c ****   * @brief   This file provides firmware functions to manage the following 
   8:../Libraries/STM32F0xx_StdPeriph_Driver/src/stm32f0xx_dac.c ****   *          functionalities of the Digital-to-Analog Converter (DAC) peripheral
   9:../Libraries/STM32F0xx_StdPeriph_Driver/src/stm32f0xx_dac.c ****   *          applicable only on STM32F051 and STM32F072 devices:
  10:../Libraries/STM32F0xx_StdPeriph_Driver/src/stm32f0xx_dac.c ****   *           + DAC channel configuration: trigger, output buffer, data format
  11:../Libraries/STM32F0xx_StdPeriph_Driver/src/stm32f0xx_dac.c ****   *           + DMA management
  12:../Libraries/STM32F0xx_StdPeriph_Driver/src/stm32f0xx_dac.c ****   *           + Interrupts and flags management
  13:../Libraries/STM32F0xx_StdPeriph_Driver/src/stm32f0xx_dac.c ****   *
  14:../Libraries/STM32F0xx_StdPeriph_Driver/src/stm32f0xx_dac.c ****   *  @verbatim
  15:../Libraries/STM32F0xx_StdPeriph_Driver/src/stm32f0xx_dac.c ****   *
  16:../Libraries/STM32F0xx_StdPeriph_Driver/src/stm32f0xx_dac.c ****  ===============================================================================
  17:../Libraries/STM32F0xx_StdPeriph_Driver/src/stm32f0xx_dac.c ****                         ##### DAC Peripheral features #####
  18:../Libraries/STM32F0xx_StdPeriph_Driver/src/stm32f0xx_dac.c ****  ===============================================================================
  19:../Libraries/STM32F0xx_StdPeriph_Driver/src/stm32f0xx_dac.c ****     [..] The device integrates two 12-bit Digital Analog Converters refered as
  20:../Libraries/STM32F0xx_StdPeriph_Driver/src/stm32f0xx_dac.c ****          DAC channel1 with DAC_OUT1 (PA4) and DAC_OUT2 (PA5) as outputs.
  21:../Libraries/STM32F0xx_StdPeriph_Driver/src/stm32f0xx_dac.c ****   
  22:../Libraries/STM32F0xx_StdPeriph_Driver/src/stm32f0xx_dac.c ****     [..] Digital to Analog conversion can be non-triggered using DAC_Trigger_None
  23:../Libraries/STM32F0xx_StdPeriph_Driver/src/stm32f0xx_dac.c ****          and DAC_OUTx is available once writing to DHRx register using 
  24:../Libraries/STM32F0xx_StdPeriph_Driver/src/stm32f0xx_dac.c ****          DAC_SetChannel1Data() or DAC_SetChannel2Data() 
  25:../Libraries/STM32F0xx_StdPeriph_Driver/src/stm32f0xx_dac.c ****   
  26:../Libraries/STM32F0xx_StdPeriph_Driver/src/stm32f0xx_dac.c ****     [..] Digital to Analog conversion can be triggered by:
  27:../Libraries/STM32F0xx_StdPeriph_Driver/src/stm32f0xx_dac.c ****          (#) External event: EXTI Line 9 (any GPIOx_Pin9) using DAC_Trigger_Ext_IT9.
  28:../Libraries/STM32F0xx_StdPeriph_Driver/src/stm32f0xx_dac.c ****              The used pin (GPIOx_Pin9) must be configured in input mode.
  29:../Libraries/STM32F0xx_StdPeriph_Driver/src/stm32f0xx_dac.c ****   
  30:../Libraries/STM32F0xx_StdPeriph_Driver/src/stm32f0xx_dac.c ****          (#) Timers TRGO: TIM2, TIM3,TIM7, TIM6 and TIM15 
  31:../Libraries/STM32F0xx_StdPeriph_Driver/src/stm32f0xx_dac.c ****              (DAC_Trigger_T2_TRGO, DAC_Trigger_T3_TRGO...)
  32:../Libraries/STM32F0xx_StdPeriph_Driver/src/stm32f0xx_dac.c ****              The timer TRGO event should be selected using TIM_SelectOutputTrigger()
  33:../Libraries/STM32F0xx_StdPeriph_Driver/src/stm32f0xx_dac.c ****   
  34:../Libraries/STM32F0xx_StdPeriph_Driver/src/stm32f0xx_dac.c ****          (#) Software using DAC_Trigger_Software
  35:../Libraries/STM32F0xx_StdPeriph_Driver/src/stm32f0xx_dac.c ****   
  36:../Libraries/STM32F0xx_StdPeriph_Driver/src/stm32f0xx_dac.c ****     [..] Each DAC integrates an output buffer that can be used to 
  37:../Libraries/STM32F0xx_StdPeriph_Driver/src/stm32f0xx_dac.c ****          reduce the output impedance, and to drive external loads directly
  38:../Libraries/STM32F0xx_StdPeriph_Driver/src/stm32f0xx_dac.c ****          without having to add an external operational amplifier.
  39:../Libraries/STM32F0xx_StdPeriph_Driver/src/stm32f0xx_dac.c ****          To enable the output buffer use  
  40:../Libraries/STM32F0xx_StdPeriph_Driver/src/stm32f0xx_dac.c ****          DAC_InitStructure.DAC_OutputBuffer = DAC_OutputBuffer_Enable;
  41:../Libraries/STM32F0xx_StdPeriph_Driver/src/stm32f0xx_dac.c ****   
  42:../Libraries/STM32F0xx_StdPeriph_Driver/src/stm32f0xx_dac.c ****     [..] Refer to the device datasheet for more details about output impedance
  43:../Libraries/STM32F0xx_StdPeriph_Driver/src/stm32f0xx_dac.c ****          value with and without output buffer.
  44:../Libraries/STM32F0xx_StdPeriph_Driver/src/stm32f0xx_dac.c ****          
  45:../Libraries/STM32F0xx_StdPeriph_Driver/src/stm32f0xx_dac.c ****     [..] DAC wave generation feature
  46:../Libraries/STM32F0xx_StdPeriph_Driver/src/stm32f0xx_dac.c ****          Both DAC channels can be used to generate
  47:../Libraries/STM32F0xx_StdPeriph_Driver/src/stm32f0xx_dac.c ****              1- Noise wave using DAC_WaveGeneration_Noise
  48:../Libraries/STM32F0xx_StdPeriph_Driver/src/stm32f0xx_dac.c ****              2- Triangle wave using DAC_WaveGeneration_Triangle
  49:../Libraries/STM32F0xx_StdPeriph_Driver/src/stm32f0xx_dac.c ****   
  50:../Libraries/STM32F0xx_StdPeriph_Driver/src/stm32f0xx_dac.c ****     [..] The DAC data format can be:
  51:../Libraries/STM32F0xx_StdPeriph_Driver/src/stm32f0xx_dac.c ****          (#) 8-bit right alignment using DAC_Align_8b_R
  52:../Libraries/STM32F0xx_StdPeriph_Driver/src/stm32f0xx_dac.c ****          (#) 12-bit left alignment using DAC_Align_12b_L
  53:../Libraries/STM32F0xx_StdPeriph_Driver/src/stm32f0xx_dac.c ****          (#) 12-bit right alignment using DAC_Align_12b_R
  54:../Libraries/STM32F0xx_StdPeriph_Driver/src/stm32f0xx_dac.c ****   
  55:../Libraries/STM32F0xx_StdPeriph_Driver/src/stm32f0xx_dac.c ****     [..] The analog output voltage on each DAC channel pin is determined
  56:../Libraries/STM32F0xx_StdPeriph_Driver/src/stm32f0xx_dac.c ****          by the following equation: DAC_OUTx = VREF+ * DOR / 4095
  57:../Libraries/STM32F0xx_StdPeriph_Driver/src/stm32f0xx_dac.c ****          with  DOR is the Data Output Register
  58:../Libraries/STM32F0xx_StdPeriph_Driver/src/stm32f0xx_dac.c ****          VEF+ is the input voltage reference (refer to the device datasheet)
  59:../Libraries/STM32F0xx_StdPeriph_Driver/src/stm32f0xx_dac.c ****          e.g. To set DAC_OUT1 to 0.7V, use
  60:../Libraries/STM32F0xx_StdPeriph_Driver/src/stm32f0xx_dac.c ****          DAC_SetChannel1Data(DAC_Align_12b_R, 868);
  61:../Libraries/STM32F0xx_StdPeriph_Driver/src/stm32f0xx_dac.c ****          Assuming that VREF+ = 3.3, DAC_OUT1 = (3.3 * 868) / 4095 = 0.7V
  62:../Libraries/STM32F0xx_StdPeriph_Driver/src/stm32f0xx_dac.c ****   
  63:../Libraries/STM32F0xx_StdPeriph_Driver/src/stm32f0xx_dac.c ****     [..] A DMA1 request can be generated when an external trigger (but not
  64:../Libraries/STM32F0xx_StdPeriph_Driver/src/stm32f0xx_dac.c ****          a software trigger) occurs if DMA1 requests are enabled using
  65:../Libraries/STM32F0xx_StdPeriph_Driver/src/stm32f0xx_dac.c ****          DAC_DMACmd()
  66:../Libraries/STM32F0xx_StdPeriph_Driver/src/stm32f0xx_dac.c ****          DMA1 requests are mapped as following:
  67:../Libraries/STM32F0xx_StdPeriph_Driver/src/stm32f0xx_dac.c ****          (+) DAC channel1 is mapped on DMA1 channel3 which must be already 
  68:../Libraries/STM32F0xx_StdPeriph_Driver/src/stm32f0xx_dac.c ****              configured
  69:../Libraries/STM32F0xx_StdPeriph_Driver/src/stm32f0xx_dac.c ****          (+) DAC channel2 is mapped on DMA1 channel4 which must be already 
  70:../Libraries/STM32F0xx_StdPeriph_Driver/src/stm32f0xx_dac.c ****              configured
  71:../Libraries/STM32F0xx_StdPeriph_Driver/src/stm32f0xx_dac.c ****     
  72:../Libraries/STM32F0xx_StdPeriph_Driver/src/stm32f0xx_dac.c ****                       ##### How to use this driver #####
  73:../Libraries/STM32F0xx_StdPeriph_Driver/src/stm32f0xx_dac.c ****  ===============================================================================
  74:../Libraries/STM32F0xx_StdPeriph_Driver/src/stm32f0xx_dac.c ****     [..]
  75:../Libraries/STM32F0xx_StdPeriph_Driver/src/stm32f0xx_dac.c ****          (+) Enable DAC APB1 clock to get write access to DAC registers
  76:../Libraries/STM32F0xx_StdPeriph_Driver/src/stm32f0xx_dac.c ****              using RCC_APB1PeriphClockCmd(RCC_APB1Periph_DAC, ENABLE)
  77:../Libraries/STM32F0xx_StdPeriph_Driver/src/stm32f0xx_dac.c ****               
  78:../Libraries/STM32F0xx_StdPeriph_Driver/src/stm32f0xx_dac.c ****          (+) Configure DAC_OUTx (DAC_OUT1: PA4, DAC_OUT2: PA5) in analog mode
  79:../Libraries/STM32F0xx_StdPeriph_Driver/src/stm32f0xx_dac.c ****              using GPIO_Init() function  
  80:../Libraries/STM32F0xx_StdPeriph_Driver/src/stm32f0xx_dac.c ****               
  81:../Libraries/STM32F0xx_StdPeriph_Driver/src/stm32f0xx_dac.c ****          (+) Configure the DAC channel using DAC_Init()
  82:../Libraries/STM32F0xx_StdPeriph_Driver/src/stm32f0xx_dac.c ****               
  83:../Libraries/STM32F0xx_StdPeriph_Driver/src/stm32f0xx_dac.c ****          (+) Enable the DAC channel using DAC_Cmd()
  84:../Libraries/STM32F0xx_StdPeriph_Driver/src/stm32f0xx_dac.c ****   
  85:../Libraries/STM32F0xx_StdPeriph_Driver/src/stm32f0xx_dac.c ****     @endverbatim
  86:../Libraries/STM32F0xx_StdPeriph_Driver/src/stm32f0xx_dac.c ****   *
  87:../Libraries/STM32F0xx_StdPeriph_Driver/src/stm32f0xx_dac.c ****   ******************************************************************************
  88:../Libraries/STM32F0xx_StdPeriph_Driver/src/stm32f0xx_dac.c ****   * @attention
  89:../Libraries/STM32F0xx_StdPeriph_Driver/src/stm32f0xx_dac.c ****   *
  90:../Libraries/STM32F0xx_StdPeriph_Driver/src/stm32f0xx_dac.c ****   * <h2><center>&copy; COPYRIGHT 2014 STMicroelectronics</center></h2>
  91:../Libraries/STM32F0xx_StdPeriph_Driver/src/stm32f0xx_dac.c ****   *
  92:../Libraries/STM32F0xx_StdPeriph_Driver/src/stm32f0xx_dac.c ****   * Licensed under MCD-ST Liberty SW License Agreement V2, (the "License");
  93:../Libraries/STM32F0xx_StdPeriph_Driver/src/stm32f0xx_dac.c ****   * You may not use this file except in compliance with the License.
  94:../Libraries/STM32F0xx_StdPeriph_Driver/src/stm32f0xx_dac.c ****   * You may obtain a copy of the License at:
  95:../Libraries/STM32F0xx_StdPeriph_Driver/src/stm32f0xx_dac.c ****   *
  96:../Libraries/STM32F0xx_StdPeriph_Driver/src/stm32f0xx_dac.c ****   *        http://www.st.com/software_license_agreement_liberty_v2
  97:../Libraries/STM32F0xx_StdPeriph_Driver/src/stm32f0xx_dac.c ****   *
  98:../Libraries/STM32F0xx_StdPeriph_Driver/src/stm32f0xx_dac.c ****   * Unless required by applicable law or agreed to in writing, software 
  99:../Libraries/STM32F0xx_StdPeriph_Driver/src/stm32f0xx_dac.c ****   * distributed under the License is distributed on an "AS IS" BASIS, 
 100:../Libraries/STM32F0xx_StdPeriph_Driver/src/stm32f0xx_dac.c ****   * WITHOUT WARRANTIES OR CONDITIONS OF ANY KIND, either express or implied.
 101:../Libraries/STM32F0xx_StdPeriph_Driver/src/stm32f0xx_dac.c ****   * See the License for the specific language governing permissions and
 102:../Libraries/STM32F0xx_StdPeriph_Driver/src/stm32f0xx_dac.c ****   * limitations under the License.
 103:../Libraries/STM32F0xx_StdPeriph_Driver/src/stm32f0xx_dac.c ****   *
 104:../Libraries/STM32F0xx_StdPeriph_Driver/src/stm32f0xx_dac.c ****   ******************************************************************************
 105:../Libraries/STM32F0xx_StdPeriph_Driver/src/stm32f0xx_dac.c ****   */
 106:../Libraries/STM32F0xx_StdPeriph_Driver/src/stm32f0xx_dac.c **** 
 107:../Libraries/STM32F0xx_StdPeriph_Driver/src/stm32f0xx_dac.c **** /* Includes ------------------------------------------------------------------*/
 108:../Libraries/STM32F0xx_StdPeriph_Driver/src/stm32f0xx_dac.c **** #include "stm32f0xx_dac.h"
 109:../Libraries/STM32F0xx_StdPeriph_Driver/src/stm32f0xx_dac.c **** 
 110:../Libraries/STM32F0xx_StdPeriph_Driver/src/stm32f0xx_dac.c **** /** @addtogroup STM32F0xx_StdPeriph_Driver
 111:../Libraries/STM32F0xx_StdPeriph_Driver/src/stm32f0xx_dac.c ****   * @{
 112:../Libraries/STM32F0xx_StdPeriph_Driver/src/stm32f0xx_dac.c ****   */
 113:../Libraries/STM32F0xx_StdPeriph_Driver/src/stm32f0xx_dac.c **** 
 114:../Libraries/STM32F0xx_StdPeriph_Driver/src/stm32f0xx_dac.c **** /** @defgroup DAC 
 115:../Libraries/STM32F0xx_StdPeriph_Driver/src/stm32f0xx_dac.c ****   * @brief DAC driver modules
 116:../Libraries/STM32F0xx_StdPeriph_Driver/src/stm32f0xx_dac.c ****   * @{
 117:../Libraries/STM32F0xx_StdPeriph_Driver/src/stm32f0xx_dac.c ****   */ 
 118:../Libraries/STM32F0xx_StdPeriph_Driver/src/stm32f0xx_dac.c **** 
 119:../Libraries/STM32F0xx_StdPeriph_Driver/src/stm32f0xx_dac.c **** /* Private typedef -----------------------------------------------------------*/
 120:../Libraries/STM32F0xx_StdPeriph_Driver/src/stm32f0xx_dac.c **** /* Private define ------------------------------------------------------------*/
 121:../Libraries/STM32F0xx_StdPeriph_Driver/src/stm32f0xx_dac.c **** /* CR register Mask */
 122:../Libraries/STM32F0xx_StdPeriph_Driver/src/stm32f0xx_dac.c **** #define CR_CLEAR_MASK              ((uint32_t)0x00000FFE) /* check the value of the mask */
 123:../Libraries/STM32F0xx_StdPeriph_Driver/src/stm32f0xx_dac.c **** 
 124:../Libraries/STM32F0xx_StdPeriph_Driver/src/stm32f0xx_dac.c **** /* DAC Dual Channels SWTRIG masks */
 125:../Libraries/STM32F0xx_StdPeriph_Driver/src/stm32f0xx_dac.c **** #define DUAL_SWTRIG_SET            ((uint32_t)0x00000003) /*!< Only applicable for STM32F072 device
 126:../Libraries/STM32F0xx_StdPeriph_Driver/src/stm32f0xx_dac.c **** #define DUAL_SWTRIG_RESET          ((uint32_t)0xFFFFFFFC) /*!< Only applicable for STM32F072 device
 127:../Libraries/STM32F0xx_StdPeriph_Driver/src/stm32f0xx_dac.c **** 
 128:../Libraries/STM32F0xx_StdPeriph_Driver/src/stm32f0xx_dac.c **** /* DHR registers offsets */
 129:../Libraries/STM32F0xx_StdPeriph_Driver/src/stm32f0xx_dac.c **** #define DHR12R1_OFFSET             ((uint32_t)0x00000008)
 130:../Libraries/STM32F0xx_StdPeriph_Driver/src/stm32f0xx_dac.c **** #define DHR12R2_OFFSET             ((uint32_t)0x00000014) /*!< Only applicable for STM32F072 device
 131:../Libraries/STM32F0xx_StdPeriph_Driver/src/stm32f0xx_dac.c **** #define DHR12RD_OFFSET             ((uint32_t)0x00000020) /*!< Only applicable for STM32F072 device
 132:../Libraries/STM32F0xx_StdPeriph_Driver/src/stm32f0xx_dac.c **** 
 133:../Libraries/STM32F0xx_StdPeriph_Driver/src/stm32f0xx_dac.c **** /* DOR register offset */
 134:../Libraries/STM32F0xx_StdPeriph_Driver/src/stm32f0xx_dac.c **** #define DOR_OFFSET                 ((uint32_t)0x0000002C)
 135:../Libraries/STM32F0xx_StdPeriph_Driver/src/stm32f0xx_dac.c **** 
 136:../Libraries/STM32F0xx_StdPeriph_Driver/src/stm32f0xx_dac.c **** /* Private macro -------------------------------------------------------------*/
 137:../Libraries/STM32F0xx_StdPeriph_Driver/src/stm32f0xx_dac.c **** /* Private variables ---------------------------------------------------------*/
 138:../Libraries/STM32F0xx_StdPeriph_Driver/src/stm32f0xx_dac.c **** /* Private function prototypes -----------------------------------------------*/
 139:../Libraries/STM32F0xx_StdPeriph_Driver/src/stm32f0xx_dac.c **** /* Private functions ---------------------------------------------------------*/
 140:../Libraries/STM32F0xx_StdPeriph_Driver/src/stm32f0xx_dac.c **** 
 141:../Libraries/STM32F0xx_StdPeriph_Driver/src/stm32f0xx_dac.c **** /** @defgroup DAC_Private_Functions
 142:../Libraries/STM32F0xx_StdPeriph_Driver/src/stm32f0xx_dac.c ****   * @{
 143:../Libraries/STM32F0xx_StdPeriph_Driver/src/stm32f0xx_dac.c ****   */ 
 144:../Libraries/STM32F0xx_StdPeriph_Driver/src/stm32f0xx_dac.c **** 
 145:../Libraries/STM32F0xx_StdPeriph_Driver/src/stm32f0xx_dac.c **** /** @defgroup DAC_Group1 DAC channels configuration
 146:../Libraries/STM32F0xx_StdPeriph_Driver/src/stm32f0xx_dac.c ****  *  @brief   DAC channels configuration: trigger, output buffer, data format 
 147:../Libraries/STM32F0xx_StdPeriph_Driver/src/stm32f0xx_dac.c ****  *
 148:../Libraries/STM32F0xx_StdPeriph_Driver/src/stm32f0xx_dac.c **** @verbatim
 149:../Libraries/STM32F0xx_StdPeriph_Driver/src/stm32f0xx_dac.c ****  ===============================================================================
 150:../Libraries/STM32F0xx_StdPeriph_Driver/src/stm32f0xx_dac.c ****   ##### DAC channels configuration: trigger, output buffer, data format #####
 151:../Libraries/STM32F0xx_StdPeriph_Driver/src/stm32f0xx_dac.c ****  ===============================================================================  
 152:../Libraries/STM32F0xx_StdPeriph_Driver/src/stm32f0xx_dac.c **** 
 153:../Libraries/STM32F0xx_StdPeriph_Driver/src/stm32f0xx_dac.c **** @endverbatim
 154:../Libraries/STM32F0xx_StdPeriph_Driver/src/stm32f0xx_dac.c ****   * @{
 155:../Libraries/STM32F0xx_StdPeriph_Driver/src/stm32f0xx_dac.c ****   */
 156:../Libraries/STM32F0xx_StdPeriph_Driver/src/stm32f0xx_dac.c **** 
 157:../Libraries/STM32F0xx_StdPeriph_Driver/src/stm32f0xx_dac.c **** /**
 158:../Libraries/STM32F0xx_StdPeriph_Driver/src/stm32f0xx_dac.c ****   * @brief  Deinitializes the DAC peripheral registers to their default reset values.
 159:../Libraries/STM32F0xx_StdPeriph_Driver/src/stm32f0xx_dac.c ****   * @param  None
 160:../Libraries/STM32F0xx_StdPeriph_Driver/src/stm32f0xx_dac.c ****   * @retval None
 161:../Libraries/STM32F0xx_StdPeriph_Driver/src/stm32f0xx_dac.c ****   */
 162:../Libraries/STM32F0xx_StdPeriph_Driver/src/stm32f0xx_dac.c **** void DAC_DeInit(void)
 163:../Libraries/STM32F0xx_StdPeriph_Driver/src/stm32f0xx_dac.c **** {
  26              		.loc 1 163 0
  27              		.cfi_startproc
  28 0000 10B5     		push	{r4, lr}
  29              	.LCFI0:
  30              		.cfi_def_cfa_offset 8
  31              		.cfi_offset 4, -8
  32              		.cfi_offset 14, -4
 164:../Libraries/STM32F0xx_StdPeriph_Driver/src/stm32f0xx_dac.c ****   /* Enable DAC reset state */
 165:../Libraries/STM32F0xx_StdPeriph_Driver/src/stm32f0xx_dac.c ****   RCC_APB1PeriphResetCmd(RCC_APB1Periph_DAC, ENABLE);
  33              		.loc 1 165 0
  34 0002 8024     		mov	r4, #128
  35 0004 A405     		lsl	r4, r4, #22
  36 0006 201C     		mov	r0, r4
  37 0008 0121     		mov	r1, #1
  38 000a FFF7FEFF 		bl	RCC_APB1PeriphResetCmd
  39              	.LVL0:
 166:../Libraries/STM32F0xx_StdPeriph_Driver/src/stm32f0xx_dac.c ****   /* Release DAC from reset state */
 167:../Libraries/STM32F0xx_StdPeriph_Driver/src/stm32f0xx_dac.c ****   RCC_APB1PeriphResetCmd(RCC_APB1Periph_DAC, DISABLE);
  40              		.loc 1 167 0
  41 000e 201C     		mov	r0, r4
  42 0010 0021     		mov	r1, #0
  43 0012 FFF7FEFF 		bl	RCC_APB1PeriphResetCmd
  44              	.LVL1:
 168:../Libraries/STM32F0xx_StdPeriph_Driver/src/stm32f0xx_dac.c **** }
  45              		.loc 1 168 0
  46              		@ sp needed for prologue
  47 0016 10BD     		pop	{r4, pc}
  48              		.cfi_endproc
  49              	.LFE33:
  51              		.section	.text.DAC_Init,"ax",%progbits
  52              		.align	1
  53              		.global	DAC_Init
  54              		.code	16
  55              		.thumb_func
  57              	DAC_Init:
  58              	.LFB34:
 169:../Libraries/STM32F0xx_StdPeriph_Driver/src/stm32f0xx_dac.c **** 
 170:../Libraries/STM32F0xx_StdPeriph_Driver/src/stm32f0xx_dac.c **** /**
 171:../Libraries/STM32F0xx_StdPeriph_Driver/src/stm32f0xx_dac.c ****   * @brief  Initializes the DAC peripheral according to the specified parameters
 172:../Libraries/STM32F0xx_StdPeriph_Driver/src/stm32f0xx_dac.c ****   *         in the DAC_InitStruct.
 173:../Libraries/STM32F0xx_StdPeriph_Driver/src/stm32f0xx_dac.c ****   * @param  DAC_Channel: the selected DAC channel. 
 174:../Libraries/STM32F0xx_StdPeriph_Driver/src/stm32f0xx_dac.c ****   *          This parameter can be:
 175:../Libraries/STM32F0xx_StdPeriph_Driver/src/stm32f0xx_dac.c ****   *            @arg DAC_Channel_1: DAC Channel1 selected
 176:../Libraries/STM32F0xx_StdPeriph_Driver/src/stm32f0xx_dac.c ****   *            @arg DAC_Channel_2: DAC Channel2 selected, applicable only for STM32F072 devices
 177:../Libraries/STM32F0xx_StdPeriph_Driver/src/stm32f0xx_dac.c ****   * @param  DAC_InitStruct: pointer to a DAC_InitTypeDef structure that contains
 178:../Libraries/STM32F0xx_StdPeriph_Driver/src/stm32f0xx_dac.c ****   *         the configuration information for the  specified DAC channel.
 179:../Libraries/STM32F0xx_StdPeriph_Driver/src/stm32f0xx_dac.c ****   * @retval None
 180:../Libraries/STM32F0xx_StdPeriph_Driver/src/stm32f0xx_dac.c ****   */
 181:../Libraries/STM32F0xx_StdPeriph_Driver/src/stm32f0xx_dac.c **** void DAC_Init(uint32_t DAC_Channel, DAC_InitTypeDef* DAC_InitStruct)
 182:../Libraries/STM32F0xx_StdPeriph_Driver/src/stm32f0xx_dac.c **** {
  59              		.loc 1 182 0
  60              		.cfi_startproc
  61              	.LVL2:
 183:../Libraries/STM32F0xx_StdPeriph_Driver/src/stm32f0xx_dac.c ****   uint32_t tmpreg1 = 0, tmpreg2 = 0;
 184:../Libraries/STM32F0xx_StdPeriph_Driver/src/stm32f0xx_dac.c **** 
 185:../Libraries/STM32F0xx_StdPeriph_Driver/src/stm32f0xx_dac.c ****   /* Check the DAC parameters */
 186:../Libraries/STM32F0xx_StdPeriph_Driver/src/stm32f0xx_dac.c ****   assert_param(IS_DAC_TRIGGER(DAC_InitStruct->DAC_Trigger));
 187:../Libraries/STM32F0xx_StdPeriph_Driver/src/stm32f0xx_dac.c ****   assert_param(IS_DAC_GENERATE_WAVE(DAC_InitStruct->DAC_WaveGeneration));
 188:../Libraries/STM32F0xx_StdPeriph_Driver/src/stm32f0xx_dac.c ****   assert_param(IS_DAC_LFSR_UNMASK_TRIANGLE_AMPLITUDE(DAC_InitStruct->DAC_LFSRUnmask_TriangleAmplitu
 189:../Libraries/STM32F0xx_StdPeriph_Driver/src/stm32f0xx_dac.c ****   assert_param(IS_DAC_OUTPUT_BUFFER_STATE(DAC_InitStruct->DAC_OutputBuffer));
 190:../Libraries/STM32F0xx_StdPeriph_Driver/src/stm32f0xx_dac.c **** 
 191:../Libraries/STM32F0xx_StdPeriph_Driver/src/stm32f0xx_dac.c **** /*---------------------------- DAC CR Configuration --------------------------*/
 192:../Libraries/STM32F0xx_StdPeriph_Driver/src/stm32f0xx_dac.c ****   /* Get the DAC CR value */
 193:../Libraries/STM32F0xx_StdPeriph_Driver/src/stm32f0xx_dac.c ****   tmpreg1 = DAC->CR;
  62              		.loc 1 193 0
  63 0000 094B     		ldr	r3, .L3
 182:../Libraries/STM32F0xx_StdPeriph_Driver/src/stm32f0xx_dac.c **** {
  64              		.loc 1 182 0
  65 0002 30B5     		push	{r4, r5, lr}
  66              	.LCFI1:
  67              		.cfi_def_cfa_offset 12
  68              		.cfi_offset 4, -12
  69              		.cfi_offset 5, -8
  70              		.cfi_offset 14, -4
 194:../Libraries/STM32F0xx_StdPeriph_Driver/src/stm32f0xx_dac.c ****   /* Clear BOFFx, TENx, TSELx, WAVEx and MAMPx bits */
 195:../Libraries/STM32F0xx_StdPeriph_Driver/src/stm32f0xx_dac.c ****   tmpreg1 &= ~(CR_CLEAR_MASK << DAC_Channel);
  71              		.loc 1 195 0
  72 0004 094C     		ldr	r4, .L3+4
 193:../Libraries/STM32F0xx_StdPeriph_Driver/src/stm32f0xx_dac.c ****   tmpreg1 = DAC->CR;
  73              		.loc 1 193 0
  74 0006 1A68     		ldr	r2, [r3]
  75              	.LVL3:
  76              		.loc 1 195 0
  77 0008 8440     		lsl	r4, r4, r0
 196:../Libraries/STM32F0xx_StdPeriph_Driver/src/stm32f0xx_dac.c ****   /* Configure for the selected DAC channel: buffer output, trigger, 
 197:../Libraries/STM32F0xx_StdPeriph_Driver/src/stm32f0xx_dac.c ****      wave generation, mask/amplitude for wave generation */
 198:../Libraries/STM32F0xx_StdPeriph_Driver/src/stm32f0xx_dac.c ****   /* Set TSELx and TENx bits according to DAC_Trigger value */
 199:../Libraries/STM32F0xx_StdPeriph_Driver/src/stm32f0xx_dac.c ****   /* Set WAVEx bits according to DAC_WaveGeneration value */
 200:../Libraries/STM32F0xx_StdPeriph_Driver/src/stm32f0xx_dac.c ****   /* Set MAMPx bits according to DAC_LFSRUnmask_TriangleAmplitude value */ 
 201:../Libraries/STM32F0xx_StdPeriph_Driver/src/stm32f0xx_dac.c ****   /* Set BOFFx bit according to DAC_OutputBuffer value */   
 202:../Libraries/STM32F0xx_StdPeriph_Driver/src/stm32f0xx_dac.c ****   tmpreg2 = (DAC_InitStruct->DAC_Trigger | DAC_InitStruct->DAC_WaveGeneration |
  78              		.loc 1 202 0
  79 000a 4D68     		ldr	r5, [r1, #4]
 195:../Libraries/STM32F0xx_StdPeriph_Driver/src/stm32f0xx_dac.c ****   tmpreg1 &= ~(CR_CLEAR_MASK << DAC_Channel);
  80              		.loc 1 195 0
  81 000c A243     		bic	r2, r4
  82              	.LVL4:
  83              		.loc 1 202 0
  84 000e 0C68     		ldr	r4, [r1]
 203:../Libraries/STM32F0xx_StdPeriph_Driver/src/stm32f0xx_dac.c ****              DAC_InitStruct->DAC_LFSRUnmask_TriangleAmplitude | \
 204:../Libraries/STM32F0xx_StdPeriph_Driver/src/stm32f0xx_dac.c ****              DAC_InitStruct->DAC_OutputBuffer);
 205:../Libraries/STM32F0xx_StdPeriph_Driver/src/stm32f0xx_dac.c ****   /* Calculate CR register value depending on DAC_Channel */
 206:../Libraries/STM32F0xx_StdPeriph_Driver/src/stm32f0xx_dac.c ****   tmpreg1 |= tmpreg2 << DAC_Channel;
 207:../Libraries/STM32F0xx_StdPeriph_Driver/src/stm32f0xx_dac.c ****   /* Write to DAC CR */
 208:../Libraries/STM32F0xx_StdPeriph_Driver/src/stm32f0xx_dac.c ****   DAC->CR = tmpreg1;
 209:../Libraries/STM32F0xx_StdPeriph_Driver/src/stm32f0xx_dac.c **** }
  85              		.loc 1 209 0
  86              		@ sp needed for prologue
 202:../Libraries/STM32F0xx_StdPeriph_Driver/src/stm32f0xx_dac.c ****   tmpreg2 = (DAC_InitStruct->DAC_Trigger | DAC_InitStruct->DAC_WaveGeneration |
  87              		.loc 1 202 0
  88 0010 2543     		orr	r5, r4
  89              	.LVL5:
  90 0012 8C68     		ldr	r4, [r1, #8]
  91 0014 2543     		orr	r5, r4
  92 0016 CC68     		ldr	r4, [r1, #12]
  93 0018 291C     		mov	r1, r5
  94              	.LVL6:
  95 001a 2143     		orr	r1, r4
  96              	.LVL7:
 206:../Libraries/STM32F0xx_StdPeriph_Driver/src/stm32f0xx_dac.c ****   tmpreg1 |= tmpreg2 << DAC_Channel;
  97              		.loc 1 206 0
  98 001c 8140     		lsl	r1, r1, r0
  99              	.LVL8:
 100 001e 081C     		mov	r0, r1
 101              	.LVL9:
 102 0020 1043     		orr	r0, r2
 103              	.LVL10:
 208:../Libraries/STM32F0xx_StdPeriph_Driver/src/stm32f0xx_dac.c ****   DAC->CR = tmpreg1;
 104              		.loc 1 208 0
 105 0022 1860     		str	r0, [r3]
 106              	.LVL11:
 107              		.loc 1 209 0
 108 0024 30BD     		pop	{r4, r5, pc}
 109              	.L4:
 110 0026 C046     		.align	2
 111              	.L3:
 112 0028 00740040 		.word	1073771520
 113 002c FE0F0000 		.word	4094
 114              		.cfi_endproc
 115              	.LFE34:
 117              		.section	.text.DAC_StructInit,"ax",%progbits
 118              		.align	1
 119              		.global	DAC_StructInit
 120              		.code	16
 121              		.thumb_func
 123              	DAC_StructInit:
 124              	.LFB35:
 210:../Libraries/STM32F0xx_StdPeriph_Driver/src/stm32f0xx_dac.c **** 
 211:../Libraries/STM32F0xx_StdPeriph_Driver/src/stm32f0xx_dac.c **** /**
 212:../Libraries/STM32F0xx_StdPeriph_Driver/src/stm32f0xx_dac.c ****   * @brief  Fills each DAC_InitStruct member with its default value.
 213:../Libraries/STM32F0xx_StdPeriph_Driver/src/stm32f0xx_dac.c ****   * @param  DAC_InitStruct: pointer to a DAC_InitTypeDef structure which will 
 214:../Libraries/STM32F0xx_StdPeriph_Driver/src/stm32f0xx_dac.c ****   *         be initialized.
 215:../Libraries/STM32F0xx_StdPeriph_Driver/src/stm32f0xx_dac.c ****   * @retval None
 216:../Libraries/STM32F0xx_StdPeriph_Driver/src/stm32f0xx_dac.c ****   */
 217:../Libraries/STM32F0xx_StdPeriph_Driver/src/stm32f0xx_dac.c **** void DAC_StructInit(DAC_InitTypeDef* DAC_InitStruct)
 218:../Libraries/STM32F0xx_StdPeriph_Driver/src/stm32f0xx_dac.c **** {
 125              		.loc 1 218 0
 126              		.cfi_startproc
 127              	.LVL12:
 219:../Libraries/STM32F0xx_StdPeriph_Driver/src/stm32f0xx_dac.c **** /*--------------- Reset DAC init structure parameters values -----------------*/
 220:../Libraries/STM32F0xx_StdPeriph_Driver/src/stm32f0xx_dac.c ****   /* Initialize the DAC_Trigger member */
 221:../Libraries/STM32F0xx_StdPeriph_Driver/src/stm32f0xx_dac.c ****   DAC_InitStruct->DAC_Trigger = DAC_Trigger_None;
 128              		.loc 1 221 0
 129 0000 0023     		mov	r3, #0
 130 0002 0360     		str	r3, [r0]
 222:../Libraries/STM32F0xx_StdPeriph_Driver/src/stm32f0xx_dac.c ****   
 223:../Libraries/STM32F0xx_StdPeriph_Driver/src/stm32f0xx_dac.c ****   /* Initialize the DAC_WaveGeneration member */
 224:../Libraries/STM32F0xx_StdPeriph_Driver/src/stm32f0xx_dac.c ****   DAC_InitStruct->DAC_WaveGeneration = DAC_WaveGeneration_None;
 131              		.loc 1 224 0
 132 0004 4360     		str	r3, [r0, #4]
 225:../Libraries/STM32F0xx_StdPeriph_Driver/src/stm32f0xx_dac.c ****   
 226:../Libraries/STM32F0xx_StdPeriph_Driver/src/stm32f0xx_dac.c ****   /* Initialize the DAC_LFSRUnmask_TriangleAmplitude member */
 227:../Libraries/STM32F0xx_StdPeriph_Driver/src/stm32f0xx_dac.c ****   DAC_InitStruct->DAC_LFSRUnmask_TriangleAmplitude = DAC_LFSRUnmask_Bit0;
 133              		.loc 1 227 0
 134 0006 8360     		str	r3, [r0, #8]
 228:../Libraries/STM32F0xx_StdPeriph_Driver/src/stm32f0xx_dac.c ****   
 229:../Libraries/STM32F0xx_StdPeriph_Driver/src/stm32f0xx_dac.c ****   /* Initialize the DAC_OutputBuffer member */
 230:../Libraries/STM32F0xx_StdPeriph_Driver/src/stm32f0xx_dac.c ****   DAC_InitStruct->DAC_OutputBuffer = DAC_OutputBuffer_Enable;
 135              		.loc 1 230 0
 136 0008 C360     		str	r3, [r0, #12]
 231:../Libraries/STM32F0xx_StdPeriph_Driver/src/stm32f0xx_dac.c **** }
 137              		.loc 1 231 0
 138              		@ sp needed for prologue
 139 000a 7047     		bx	lr
 140              		.cfi_endproc
 141              	.LFE35:
 143              		.section	.text.DAC_Cmd,"ax",%progbits
 144              		.align	1
 145              		.global	DAC_Cmd
 146              		.code	16
 147              		.thumb_func
 149              	DAC_Cmd:
 150              	.LFB36:
 232:../Libraries/STM32F0xx_StdPeriph_Driver/src/stm32f0xx_dac.c **** 
 233:../Libraries/STM32F0xx_StdPeriph_Driver/src/stm32f0xx_dac.c **** /**
 234:../Libraries/STM32F0xx_StdPeriph_Driver/src/stm32f0xx_dac.c ****   * @brief  Enables or disables the specified DAC channel.
 235:../Libraries/STM32F0xx_StdPeriph_Driver/src/stm32f0xx_dac.c ****   * @param  DAC_Channel: The selected DAC channel. 
 236:../Libraries/STM32F0xx_StdPeriph_Driver/src/stm32f0xx_dac.c ****   *          This parameter can be one of the following values:
 237:../Libraries/STM32F0xx_StdPeriph_Driver/src/stm32f0xx_dac.c ****   *            @arg DAC_Channel_1: DAC Channel1 selected
 238:../Libraries/STM32F0xx_StdPeriph_Driver/src/stm32f0xx_dac.c ****   *            @arg DAC_Channel_2: DAC Channel2 selected, applicable only for STM32F072 devices
 239:../Libraries/STM32F0xx_StdPeriph_Driver/src/stm32f0xx_dac.c ****   * @param  NewState: new state of the DAC channel. 
 240:../Libraries/STM32F0xx_StdPeriph_Driver/src/stm32f0xx_dac.c ****   *          This parameter can be: ENABLE or DISABLE.
 241:../Libraries/STM32F0xx_StdPeriph_Driver/src/stm32f0xx_dac.c ****   * @note   When the DAC channel is enabled the trigger source can no more be modified.
 242:../Libraries/STM32F0xx_StdPeriph_Driver/src/stm32f0xx_dac.c ****   * @retval None
 243:../Libraries/STM32F0xx_StdPeriph_Driver/src/stm32f0xx_dac.c ****   */
 244:../Libraries/STM32F0xx_StdPeriph_Driver/src/stm32f0xx_dac.c **** void DAC_Cmd(uint32_t DAC_Channel, FunctionalState NewState)
 245:../Libraries/STM32F0xx_StdPeriph_Driver/src/stm32f0xx_dac.c **** {
 151              		.loc 1 245 0
 152              		.cfi_startproc
 153              	.LVL13:
 154 0000 00B5     		push	{lr}
 155              	.LCFI2:
 156              		.cfi_def_cfa_offset 4
 157              		.cfi_offset 14, -4
 158 0002 084B     		ldr	r3, .L9
 159 0004 0122     		mov	r2, #1
 246:../Libraries/STM32F0xx_StdPeriph_Driver/src/stm32f0xx_dac.c ****   /* Check the parameters */
 247:../Libraries/STM32F0xx_StdPeriph_Driver/src/stm32f0xx_dac.c ****   assert_param(IS_DAC_CHANNEL(DAC_Channel));
 248:../Libraries/STM32F0xx_StdPeriph_Driver/src/stm32f0xx_dac.c ****   assert_param(IS_FUNCTIONAL_STATE(NewState));
 249:../Libraries/STM32F0xx_StdPeriph_Driver/src/stm32f0xx_dac.c **** 
 250:../Libraries/STM32F0xx_StdPeriph_Driver/src/stm32f0xx_dac.c ****   if (NewState != DISABLE)
 160              		.loc 1 250 0
 161 0006 0029     		cmp	r1, #0
 162 0008 05D0     		beq	.L7
 251:../Libraries/STM32F0xx_StdPeriph_Driver/src/stm32f0xx_dac.c ****   {
 252:../Libraries/STM32F0xx_StdPeriph_Driver/src/stm32f0xx_dac.c ****     /* Enable the selected DAC channel */
 253:../Libraries/STM32F0xx_StdPeriph_Driver/src/stm32f0xx_dac.c ****     DAC->CR |= (DAC_CR_EN1 << DAC_Channel);
 163              		.loc 1 253 0
 164 000a 1968     		ldr	r1, [r3]
 165              	.LVL14:
 166 000c 8240     		lsl	r2, r2, r0
 167 000e 101C     		mov	r0, r2
 168              	.LVL15:
 169 0010 0843     		orr	r0, r1
 170 0012 1860     		str	r0, [r3]
 171 0014 05E0     		b	.L6
 172              	.LVL16:
 173              	.L7:
 254:../Libraries/STM32F0xx_StdPeriph_Driver/src/stm32f0xx_dac.c ****   }
 255:../Libraries/STM32F0xx_StdPeriph_Driver/src/stm32f0xx_dac.c ****   else
 256:../Libraries/STM32F0xx_StdPeriph_Driver/src/stm32f0xx_dac.c ****   {
 257:../Libraries/STM32F0xx_StdPeriph_Driver/src/stm32f0xx_dac.c ****     /* Disable the selected DAC channel */
 258:../Libraries/STM32F0xx_StdPeriph_Driver/src/stm32f0xx_dac.c ****     DAC->CR &= (~(DAC_CR_EN1 << DAC_Channel));
 174              		.loc 1 258 0
 175 0016 1968     		ldr	r1, [r3]
 176              	.LVL17:
 177 0018 8240     		lsl	r2, r2, r0
 178 001a 101C     		mov	r0, r2
 179              	.LVL18:
 180 001c 0A1C     		mov	r2, r1
 181 001e 8243     		bic	r2, r0
 182 0020 1A60     		str	r2, [r3]
 183              	.L6:
 259:../Libraries/STM32F0xx_StdPeriph_Driver/src/stm32f0xx_dac.c ****   }
 260:../Libraries/STM32F0xx_StdPeriph_Driver/src/stm32f0xx_dac.c **** }
 184              		.loc 1 260 0
 185              		@ sp needed for prologue
 186 0022 00BD     		pop	{pc}
 187              	.L10:
 188              		.align	2
 189              	.L9:
 190 0024 00740040 		.word	1073771520
 191              		.cfi_endproc
 192              	.LFE36:
 194              		.section	.text.DAC_SoftwareTriggerCmd,"ax",%progbits
 195              		.align	1
 196              		.global	DAC_SoftwareTriggerCmd
 197              		.code	16
 198              		.thumb_func
 200              	DAC_SoftwareTriggerCmd:
 201              	.LFB37:
 261:../Libraries/STM32F0xx_StdPeriph_Driver/src/stm32f0xx_dac.c **** 
 262:../Libraries/STM32F0xx_StdPeriph_Driver/src/stm32f0xx_dac.c **** /**
 263:../Libraries/STM32F0xx_StdPeriph_Driver/src/stm32f0xx_dac.c ****   * @brief  Enables or disables the selected DAC channel software trigger.
 264:../Libraries/STM32F0xx_StdPeriph_Driver/src/stm32f0xx_dac.c ****   * @param  DAC_Channel: The selected DAC channel. 
 265:../Libraries/STM32F0xx_StdPeriph_Driver/src/stm32f0xx_dac.c ****   *          This parameter can be one of the following values:
 266:../Libraries/STM32F0xx_StdPeriph_Driver/src/stm32f0xx_dac.c ****   *            @arg DAC_Channel_1: DAC Channel1 selected
 267:../Libraries/STM32F0xx_StdPeriph_Driver/src/stm32f0xx_dac.c ****   *            @arg DAC_Channel_2: DAC Channel2 selected, applicable only for STM32F072 devices
 268:../Libraries/STM32F0xx_StdPeriph_Driver/src/stm32f0xx_dac.c ****   * @param  NewState: new state of the selected DAC channel software trigger.
 269:../Libraries/STM32F0xx_StdPeriph_Driver/src/stm32f0xx_dac.c ****   *          This parameter can be: ENABLE or DISABLE.
 270:../Libraries/STM32F0xx_StdPeriph_Driver/src/stm32f0xx_dac.c ****   * @retval None
 271:../Libraries/STM32F0xx_StdPeriph_Driver/src/stm32f0xx_dac.c ****   */
 272:../Libraries/STM32F0xx_StdPeriph_Driver/src/stm32f0xx_dac.c **** void DAC_SoftwareTriggerCmd(uint32_t DAC_Channel, FunctionalState NewState)
 273:../Libraries/STM32F0xx_StdPeriph_Driver/src/stm32f0xx_dac.c **** {
 202              		.loc 1 273 0
 203              		.cfi_startproc
 204              	.LVL19:
 205 0000 00B5     		push	{lr}
 206              	.LCFI3:
 207              		.cfi_def_cfa_offset 4
 208              		.cfi_offset 14, -4
 209 0002 094B     		ldr	r3, .L14
 210 0004 0009     		lsr	r0, r0, #4
 211              	.LVL20:
 212 0006 0122     		mov	r2, #1
 274:../Libraries/STM32F0xx_StdPeriph_Driver/src/stm32f0xx_dac.c ****   /* Check the parameters */
 275:../Libraries/STM32F0xx_StdPeriph_Driver/src/stm32f0xx_dac.c ****   assert_param(IS_DAC_CHANNEL(DAC_Channel));
 276:../Libraries/STM32F0xx_StdPeriph_Driver/src/stm32f0xx_dac.c ****   assert_param(IS_FUNCTIONAL_STATE(NewState));
 277:../Libraries/STM32F0xx_StdPeriph_Driver/src/stm32f0xx_dac.c **** 
 278:../Libraries/STM32F0xx_StdPeriph_Driver/src/stm32f0xx_dac.c ****   if (NewState != DISABLE)
 213              		.loc 1 278 0
 214 0008 0029     		cmp	r1, #0
 215 000a 05D0     		beq	.L12
 279:../Libraries/STM32F0xx_StdPeriph_Driver/src/stm32f0xx_dac.c ****   {
 280:../Libraries/STM32F0xx_StdPeriph_Driver/src/stm32f0xx_dac.c ****     /* Enable software trigger for the selected DAC channel */
 281:../Libraries/STM32F0xx_StdPeriph_Driver/src/stm32f0xx_dac.c ****     DAC->SWTRIGR |= (uint32_t)DAC_SWTRIGR_SWTRIG1 << (DAC_Channel >> 4);
 216              		.loc 1 281 0
 217 000c 5968     		ldr	r1, [r3, #4]
 218              	.LVL21:
 219 000e 8240     		lsl	r2, r2, r0
 220 0010 101C     		mov	r0, r2
 221 0012 0843     		orr	r0, r1
 222 0014 5860     		str	r0, [r3, #4]
 223 0016 05E0     		b	.L11
 224              	.LVL22:
 225              	.L12:
 282:../Libraries/STM32F0xx_StdPeriph_Driver/src/stm32f0xx_dac.c ****   }
 283:../Libraries/STM32F0xx_StdPeriph_Driver/src/stm32f0xx_dac.c ****   else
 284:../Libraries/STM32F0xx_StdPeriph_Driver/src/stm32f0xx_dac.c ****   {
 285:../Libraries/STM32F0xx_StdPeriph_Driver/src/stm32f0xx_dac.c ****     /* Disable software trigger for the selected DAC channel */
 286:../Libraries/STM32F0xx_StdPeriph_Driver/src/stm32f0xx_dac.c ****     DAC->SWTRIGR &= ~((uint32_t)DAC_SWTRIGR_SWTRIG1 << (DAC_Channel >> 4));
 226              		.loc 1 286 0
 227 0018 5968     		ldr	r1, [r3, #4]
 228              	.LVL23:
 229 001a 8240     		lsl	r2, r2, r0
 230 001c 101C     		mov	r0, r2
 231 001e 0A1C     		mov	r2, r1
 232 0020 8243     		bic	r2, r0
 233 0022 5A60     		str	r2, [r3, #4]
 234              	.L11:
 287:../Libraries/STM32F0xx_StdPeriph_Driver/src/stm32f0xx_dac.c ****   }
 288:../Libraries/STM32F0xx_StdPeriph_Driver/src/stm32f0xx_dac.c **** }
 235              		.loc 1 288 0
 236              		@ sp needed for prologue
 237 0024 00BD     		pop	{pc}
 238              	.L15:
 239 0026 C046     		.align	2
 240              	.L14:
 241 0028 00740040 		.word	1073771520
 242              		.cfi_endproc
 243              	.LFE37:
 245              		.section	.text.DAC_DualSoftwareTriggerCmd,"ax",%progbits
 246              		.align	1
 247              		.global	DAC_DualSoftwareTriggerCmd
 248              		.code	16
 249              		.thumb_func
 251              	DAC_DualSoftwareTriggerCmd:
 252              	.LFB38:
 289:../Libraries/STM32F0xx_StdPeriph_Driver/src/stm32f0xx_dac.c **** 
 290:../Libraries/STM32F0xx_StdPeriph_Driver/src/stm32f0xx_dac.c **** /**
 291:../Libraries/STM32F0xx_StdPeriph_Driver/src/stm32f0xx_dac.c ****   * @brief  Enables or disables simultaneously the two DAC channels software triggers.
 292:../Libraries/STM32F0xx_StdPeriph_Driver/src/stm32f0xx_dac.c ****   *         This function is applicable only for STM32F072 devices.  
 293:../Libraries/STM32F0xx_StdPeriph_Driver/src/stm32f0xx_dac.c ****   * @param  NewState: new state of the DAC channels software triggers.
 294:../Libraries/STM32F0xx_StdPeriph_Driver/src/stm32f0xx_dac.c ****   *          This parameter can be: ENABLE or DISABLE.
 295:../Libraries/STM32F0xx_StdPeriph_Driver/src/stm32f0xx_dac.c ****   * @retval None
 296:../Libraries/STM32F0xx_StdPeriph_Driver/src/stm32f0xx_dac.c ****   */
 297:../Libraries/STM32F0xx_StdPeriph_Driver/src/stm32f0xx_dac.c **** void DAC_DualSoftwareTriggerCmd(FunctionalState NewState)
 298:../Libraries/STM32F0xx_StdPeriph_Driver/src/stm32f0xx_dac.c **** {
 253              		.loc 1 298 0
 254              		.cfi_startproc
 255              	.LVL24:
 256 0000 054B     		ldr	r3, .L20
 257 0002 00B5     		push	{lr}
 258              	.LCFI4:
 259              		.cfi_def_cfa_offset 4
 260              		.cfi_offset 14, -4
 261 0004 0322     		mov	r2, #3
 299:../Libraries/STM32F0xx_StdPeriph_Driver/src/stm32f0xx_dac.c ****   /* Check the parameters */
 300:../Libraries/STM32F0xx_StdPeriph_Driver/src/stm32f0xx_dac.c ****   assert_param(IS_FUNCTIONAL_STATE(NewState));
 301:../Libraries/STM32F0xx_StdPeriph_Driver/src/stm32f0xx_dac.c **** 
 302:../Libraries/STM32F0xx_StdPeriph_Driver/src/stm32f0xx_dac.c ****   if (NewState != DISABLE)
 303:../Libraries/STM32F0xx_StdPeriph_Driver/src/stm32f0xx_dac.c ****   {
 304:../Libraries/STM32F0xx_StdPeriph_Driver/src/stm32f0xx_dac.c ****     /* Enable software trigger for both DAC channels */
 305:../Libraries/STM32F0xx_StdPeriph_Driver/src/stm32f0xx_dac.c ****     DAC->SWTRIGR |= DUAL_SWTRIG_SET;
 262              		.loc 1 305 0
 263 0006 5968     		ldr	r1, [r3, #4]
 302:../Libraries/STM32F0xx_StdPeriph_Driver/src/stm32f0xx_dac.c ****   if (NewState != DISABLE)
 264              		.loc 1 302 0
 265 0008 0028     		cmp	r0, #0
 266 000a 01D0     		beq	.L17
 267              		.loc 1 305 0
 268 000c 0A43     		orr	r2, r1
 269 000e 01E0     		b	.L19
 270              	.L17:
 306:../Libraries/STM32F0xx_StdPeriph_Driver/src/stm32f0xx_dac.c ****   }
 307:../Libraries/STM32F0xx_StdPeriph_Driver/src/stm32f0xx_dac.c ****   else
 308:../Libraries/STM32F0xx_StdPeriph_Driver/src/stm32f0xx_dac.c ****   {
 309:../Libraries/STM32F0xx_StdPeriph_Driver/src/stm32f0xx_dac.c ****     /* Disable software trigger for both DAC channels */
 310:../Libraries/STM32F0xx_StdPeriph_Driver/src/stm32f0xx_dac.c ****     DAC->SWTRIGR &= DUAL_SWTRIG_RESET;
 271              		.loc 1 310 0
 272 0010 9143     		bic	r1, r2
 273 0012 0A1C     		mov	r2, r1
 274              	.L19:
 275 0014 5A60     		str	r2, [r3, #4]
 311:../Libraries/STM32F0xx_StdPeriph_Driver/src/stm32f0xx_dac.c ****   }
 312:../Libraries/STM32F0xx_StdPeriph_Driver/src/stm32f0xx_dac.c **** }
 276              		.loc 1 312 0
 277              		@ sp needed for prologue
 278 0016 00BD     		pop	{pc}
 279              	.L21:
 280              		.align	2
 281              	.L20:
 282 0018 00740040 		.word	1073771520
 283              		.cfi_endproc
 284              	.LFE38:
 286              		.section	.text.DAC_WaveGenerationCmd,"ax",%progbits
 287              		.align	1
 288              		.global	DAC_WaveGenerationCmd
 289              		.code	16
 290              		.thumb_func
 292              	DAC_WaveGenerationCmd:
 293              	.LFB39:
 313:../Libraries/STM32F0xx_StdPeriph_Driver/src/stm32f0xx_dac.c **** 
 314:../Libraries/STM32F0xx_StdPeriph_Driver/src/stm32f0xx_dac.c **** /**
 315:../Libraries/STM32F0xx_StdPeriph_Driver/src/stm32f0xx_dac.c ****   * @brief  Enables or disables the selected DAC channel wave generation.
 316:../Libraries/STM32F0xx_StdPeriph_Driver/src/stm32f0xx_dac.c ****   *         This function is applicable only for STM32F072 devices.  
 317:../Libraries/STM32F0xx_StdPeriph_Driver/src/stm32f0xx_dac.c ****   * @param  DAC_Channel: The selected DAC channel. 
 318:../Libraries/STM32F0xx_StdPeriph_Driver/src/stm32f0xx_dac.c ****   *          This parameter can be:
 319:../Libraries/STM32F0xx_StdPeriph_Driver/src/stm32f0xx_dac.c ****   *            @arg DAC_Channel_1: DAC Channel1 selected
 320:../Libraries/STM32F0xx_StdPeriph_Driver/src/stm32f0xx_dac.c ****   *            @arg DAC_Channel_2: DAC Channel2 selected
 321:../Libraries/STM32F0xx_StdPeriph_Driver/src/stm32f0xx_dac.c ****   * @param  DAC_Wave: specifies the wave type to enable or disable.
 322:../Libraries/STM32F0xx_StdPeriph_Driver/src/stm32f0xx_dac.c ****   *          This parameter can be:
 323:../Libraries/STM32F0xx_StdPeriph_Driver/src/stm32f0xx_dac.c ****   *            @arg DAC_Wave_Noise: noise wave generation
 324:../Libraries/STM32F0xx_StdPeriph_Driver/src/stm32f0xx_dac.c ****   *            @arg DAC_Wave_Triangle: triangle wave generation
 325:../Libraries/STM32F0xx_StdPeriph_Driver/src/stm32f0xx_dac.c ****   * @param  NewState: new state of the selected DAC channel wave generation.
 326:../Libraries/STM32F0xx_StdPeriph_Driver/src/stm32f0xx_dac.c ****   *          This parameter can be: ENABLE or DISABLE.  
 327:../Libraries/STM32F0xx_StdPeriph_Driver/src/stm32f0xx_dac.c ****   * @retval None
 328:../Libraries/STM32F0xx_StdPeriph_Driver/src/stm32f0xx_dac.c ****   */
 329:../Libraries/STM32F0xx_StdPeriph_Driver/src/stm32f0xx_dac.c **** void DAC_WaveGenerationCmd(uint32_t DAC_Channel, uint32_t DAC_Wave, FunctionalState NewState)
 330:../Libraries/STM32F0xx_StdPeriph_Driver/src/stm32f0xx_dac.c **** {
 294              		.loc 1 330 0
 295              		.cfi_startproc
 296              	.LVL25:
 297 0000 00B5     		push	{lr}
 298              	.LCFI5:
 299              		.cfi_def_cfa_offset 4
 300              		.cfi_offset 14, -4
 301 0002 064B     		ldr	r3, .L25
 302 0004 8140     		lsl	r1, r1, r0
 303              	.LVL26:
 331:../Libraries/STM32F0xx_StdPeriph_Driver/src/stm32f0xx_dac.c ****   /* Check the parameters */
 332:../Libraries/STM32F0xx_StdPeriph_Driver/src/stm32f0xx_dac.c ****   assert_param(IS_DAC_CHANNEL(DAC_Channel));
 333:../Libraries/STM32F0xx_StdPeriph_Driver/src/stm32f0xx_dac.c ****   assert_param(IS_DAC_WAVE(DAC_Wave)); 
 334:../Libraries/STM32F0xx_StdPeriph_Driver/src/stm32f0xx_dac.c ****   assert_param(IS_FUNCTIONAL_STATE(NewState));
 335:../Libraries/STM32F0xx_StdPeriph_Driver/src/stm32f0xx_dac.c **** 
 336:../Libraries/STM32F0xx_StdPeriph_Driver/src/stm32f0xx_dac.c ****   if (NewState != DISABLE)
 304              		.loc 1 336 0
 305 0006 002A     		cmp	r2, #0
 306 0008 03D0     		beq	.L23
 337:../Libraries/STM32F0xx_StdPeriph_Driver/src/stm32f0xx_dac.c ****   {
 338:../Libraries/STM32F0xx_StdPeriph_Driver/src/stm32f0xx_dac.c ****     /* Enable the selected wave generation for the selected DAC channel */
 339:../Libraries/STM32F0xx_StdPeriph_Driver/src/stm32f0xx_dac.c ****     DAC->CR |= DAC_Wave << DAC_Channel;
 307              		.loc 1 339 0
 308 000a 1A68     		ldr	r2, [r3]
 309              	.LVL27:
 310 000c 1143     		orr	r1, r2
 311 000e 1960     		str	r1, [r3]
 312 0010 02E0     		b	.L22
 313              	.LVL28:
 314              	.L23:
 340:../Libraries/STM32F0xx_StdPeriph_Driver/src/stm32f0xx_dac.c ****   }
 341:../Libraries/STM32F0xx_StdPeriph_Driver/src/stm32f0xx_dac.c ****   else
 342:../Libraries/STM32F0xx_StdPeriph_Driver/src/stm32f0xx_dac.c ****   {
 343:../Libraries/STM32F0xx_StdPeriph_Driver/src/stm32f0xx_dac.c ****     /* Disable the selected wave generation for the selected DAC channel */
 344:../Libraries/STM32F0xx_StdPeriph_Driver/src/stm32f0xx_dac.c ****     DAC->CR &= ~(DAC_Wave << DAC_Channel);
 315              		.loc 1 344 0
 316 0012 1A68     		ldr	r2, [r3]
 317              	.LVL29:
 318 0014 8A43     		bic	r2, r1
 319 0016 1A60     		str	r2, [r3]
 320              	.L22:
 345:../Libraries/STM32F0xx_StdPeriph_Driver/src/stm32f0xx_dac.c ****   }
 346:../Libraries/STM32F0xx_StdPeriph_Driver/src/stm32f0xx_dac.c **** }
 321              		.loc 1 346 0
 322              		@ sp needed for prologue
 323 0018 00BD     		pop	{pc}
 324              	.L26:
 325 001a C046     		.align	2
 326              	.L25:
 327 001c 00740040 		.word	1073771520
 328              		.cfi_endproc
 329              	.LFE39:
 331              		.section	.text.DAC_SetChannel1Data,"ax",%progbits
 332              		.align	1
 333              		.global	DAC_SetChannel1Data
 334              		.code	16
 335              		.thumb_func
 337              	DAC_SetChannel1Data:
 338              	.LFB40:
 347:../Libraries/STM32F0xx_StdPeriph_Driver/src/stm32f0xx_dac.c **** 
 348:../Libraries/STM32F0xx_StdPeriph_Driver/src/stm32f0xx_dac.c **** /**
 349:../Libraries/STM32F0xx_StdPeriph_Driver/src/stm32f0xx_dac.c ****   * @brief  Set the specified data holding register value for DAC channel1.
 350:../Libraries/STM32F0xx_StdPeriph_Driver/src/stm32f0xx_dac.c ****   * @param  DAC_Align: Specifies the data alignment for DAC channel1.
 351:../Libraries/STM32F0xx_StdPeriph_Driver/src/stm32f0xx_dac.c ****   *          This parameter can be one of the following values:
 352:../Libraries/STM32F0xx_StdPeriph_Driver/src/stm32f0xx_dac.c ****   *            @arg DAC_Align_8b_R: 8bit right data alignment selected
 353:../Libraries/STM32F0xx_StdPeriph_Driver/src/stm32f0xx_dac.c ****   *            @arg DAC_Align_12b_L: 12bit left data alignment selected
 354:../Libraries/STM32F0xx_StdPeriph_Driver/src/stm32f0xx_dac.c ****   *            @arg DAC_Align_12b_R: 12bit right data alignment selected
 355:../Libraries/STM32F0xx_StdPeriph_Driver/src/stm32f0xx_dac.c ****   * @param  Data: Data to be loaded in the selected data holding register.
 356:../Libraries/STM32F0xx_StdPeriph_Driver/src/stm32f0xx_dac.c ****   * @retval None
 357:../Libraries/STM32F0xx_StdPeriph_Driver/src/stm32f0xx_dac.c ****   */
 358:../Libraries/STM32F0xx_StdPeriph_Driver/src/stm32f0xx_dac.c **** void DAC_SetChannel1Data(uint32_t DAC_Align, uint16_t Data)
 359:../Libraries/STM32F0xx_StdPeriph_Driver/src/stm32f0xx_dac.c **** {  
 339              		.loc 1 359 0
 340              		.cfi_startproc
 341              	.LVL30:
 342 0000 82B0     		sub	sp, sp, #8
 343              	.LCFI6:
 344              		.cfi_def_cfa_offset 8
 360:../Libraries/STM32F0xx_StdPeriph_Driver/src/stm32f0xx_dac.c ****   __IO uint32_t tmp = 0;
 345              		.loc 1 360 0
 346 0002 0023     		mov	r3, #0
 347 0004 0193     		str	r3, [sp, #4]
 348              	.LVL31:
 361:../Libraries/STM32F0xx_StdPeriph_Driver/src/stm32f0xx_dac.c ****   
 362:../Libraries/STM32F0xx_StdPeriph_Driver/src/stm32f0xx_dac.c ****   /* Check the parameters */
 363:../Libraries/STM32F0xx_StdPeriph_Driver/src/stm32f0xx_dac.c ****   assert_param(IS_DAC_ALIGN(DAC_Align));
 364:../Libraries/STM32F0xx_StdPeriph_Driver/src/stm32f0xx_dac.c ****   assert_param(IS_DAC_DATA(Data));
 365:../Libraries/STM32F0xx_StdPeriph_Driver/src/stm32f0xx_dac.c ****   
 366:../Libraries/STM32F0xx_StdPeriph_Driver/src/stm32f0xx_dac.c ****   tmp = (uint32_t)DAC_BASE; 
 349              		.loc 1 366 0
 350 0006 054B     		ldr	r3, .L28
 351 0008 0193     		str	r3, [sp, #4]
 367:../Libraries/STM32F0xx_StdPeriph_Driver/src/stm32f0xx_dac.c ****   tmp += DHR12R1_OFFSET + DAC_Align;
 352              		.loc 1 367 0
 353 000a 019B     		ldr	r3, [sp, #4]
 354 000c 0833     		add	r3, r3, #8
 355 000e 1818     		add	r0, r3, r0
 356              	.LVL32:
 357 0010 0190     		str	r0, [sp, #4]
 358              	.LVL33:
 368:../Libraries/STM32F0xx_StdPeriph_Driver/src/stm32f0xx_dac.c **** 
 369:../Libraries/STM32F0xx_StdPeriph_Driver/src/stm32f0xx_dac.c ****   /* Set the DAC channel1 selected data holding register */
 370:../Libraries/STM32F0xx_StdPeriph_Driver/src/stm32f0xx_dac.c ****   *(__IO uint32_t *) tmp = Data;
 359              		.loc 1 370 0
 360 0012 019B     		ldr	r3, [sp, #4]
 361 0014 1960     		str	r1, [r3]
 371:../Libraries/STM32F0xx_StdPeriph_Driver/src/stm32f0xx_dac.c **** }
 362              		.loc 1 371 0
 363 0016 02B0     		add	sp, sp, #8
 364              		@ sp needed for prologue
 365 0018 7047     		bx	lr
 366              	.L29:
 367 001a C046     		.align	2
 368              	.L28:
 369 001c 00740040 		.word	1073771520
 370              		.cfi_endproc
 371              	.LFE40:
 373              		.section	.text.DAC_SetChannel2Data,"ax",%progbits
 374              		.align	1
 375              		.global	DAC_SetChannel2Data
 376              		.code	16
 377              		.thumb_func
 379              	DAC_SetChannel2Data:
 380              	.LFB41:
 372:../Libraries/STM32F0xx_StdPeriph_Driver/src/stm32f0xx_dac.c **** 
 373:../Libraries/STM32F0xx_StdPeriph_Driver/src/stm32f0xx_dac.c **** /**
 374:../Libraries/STM32F0xx_StdPeriph_Driver/src/stm32f0xx_dac.c ****   * @brief  Sets the specified data holding register value for DAC channel2.
 375:../Libraries/STM32F0xx_StdPeriph_Driver/src/stm32f0xx_dac.c ****   *         This function is applicable only for STM32F072 devices.  
 376:../Libraries/STM32F0xx_StdPeriph_Driver/src/stm32f0xx_dac.c ****   * @param  DAC_Align: Specifies the data alignment for DAC channel2.
 377:../Libraries/STM32F0xx_StdPeriph_Driver/src/stm32f0xx_dac.c ****   *          This parameter can be:
 378:../Libraries/STM32F0xx_StdPeriph_Driver/src/stm32f0xx_dac.c ****   *            @arg DAC_Align_8b_R: 8bit right data alignment selected
 379:../Libraries/STM32F0xx_StdPeriph_Driver/src/stm32f0xx_dac.c ****   *            @arg DAC_Align_12b_L: 12bit left data alignment selected
 380:../Libraries/STM32F0xx_StdPeriph_Driver/src/stm32f0xx_dac.c ****   *            @arg DAC_Align_12b_R: 12bit right data alignment selected
 381:../Libraries/STM32F0xx_StdPeriph_Driver/src/stm32f0xx_dac.c ****   * @param  Data: Data to be loaded in the selected data holding register.
 382:../Libraries/STM32F0xx_StdPeriph_Driver/src/stm32f0xx_dac.c ****   * @retval None
 383:../Libraries/STM32F0xx_StdPeriph_Driver/src/stm32f0xx_dac.c ****   */
 384:../Libraries/STM32F0xx_StdPeriph_Driver/src/stm32f0xx_dac.c **** void DAC_SetChannel2Data(uint32_t DAC_Align, uint16_t Data)
 385:../Libraries/STM32F0xx_StdPeriph_Driver/src/stm32f0xx_dac.c **** {
 381              		.loc 1 385 0
 382              		.cfi_startproc
 383              	.LVL34:
 384 0000 82B0     		sub	sp, sp, #8
 385              	.LCFI7:
 386              		.cfi_def_cfa_offset 8
 386:../Libraries/STM32F0xx_StdPeriph_Driver/src/stm32f0xx_dac.c ****   __IO uint32_t tmp = 0;
 387              		.loc 1 386 0
 388 0002 0023     		mov	r3, #0
 389 0004 0193     		str	r3, [sp, #4]
 390              	.LVL35:
 387:../Libraries/STM32F0xx_StdPeriph_Driver/src/stm32f0xx_dac.c **** 
 388:../Libraries/STM32F0xx_StdPeriph_Driver/src/stm32f0xx_dac.c ****   /* Check the parameters */
 389:../Libraries/STM32F0xx_StdPeriph_Driver/src/stm32f0xx_dac.c ****   assert_param(IS_DAC_ALIGN(DAC_Align));
 390:../Libraries/STM32F0xx_StdPeriph_Driver/src/stm32f0xx_dac.c ****   assert_param(IS_DAC_DATA(Data));
 391:../Libraries/STM32F0xx_StdPeriph_Driver/src/stm32f0xx_dac.c ****   
 392:../Libraries/STM32F0xx_StdPeriph_Driver/src/stm32f0xx_dac.c ****   tmp = (uint32_t)DAC_BASE;
 391              		.loc 1 392 0
 392 0006 054B     		ldr	r3, .L31
 393 0008 0193     		str	r3, [sp, #4]
 393:../Libraries/STM32F0xx_StdPeriph_Driver/src/stm32f0xx_dac.c ****   tmp += DHR12R2_OFFSET + DAC_Align;
 394              		.loc 1 393 0
 395 000a 019B     		ldr	r3, [sp, #4]
 396 000c 1433     		add	r3, r3, #20
 397 000e 1818     		add	r0, r3, r0
 398              	.LVL36:
 399 0010 0190     		str	r0, [sp, #4]
 400              	.LVL37:
 394:../Libraries/STM32F0xx_StdPeriph_Driver/src/stm32f0xx_dac.c **** 
 395:../Libraries/STM32F0xx_StdPeriph_Driver/src/stm32f0xx_dac.c ****   /* Set the DAC channel2 selected data holding register */
 396:../Libraries/STM32F0xx_StdPeriph_Driver/src/stm32f0xx_dac.c ****   *(__IO uint32_t *)tmp = Data;
 401              		.loc 1 396 0
 402 0012 019B     		ldr	r3, [sp, #4]
 403 0014 1960     		str	r1, [r3]
 397:../Libraries/STM32F0xx_StdPeriph_Driver/src/stm32f0xx_dac.c **** }
 404              		.loc 1 397 0
 405 0016 02B0     		add	sp, sp, #8
 406              		@ sp needed for prologue
 407 0018 7047     		bx	lr
 408              	.L32:
 409 001a C046     		.align	2
 410              	.L31:
 411 001c 00740040 		.word	1073771520
 412              		.cfi_endproc
 413              	.LFE41:
 415              		.section	.text.DAC_SetDualChannelData,"ax",%progbits
 416              		.align	1
 417              		.global	DAC_SetDualChannelData
 418              		.code	16
 419              		.thumb_func
 421              	DAC_SetDualChannelData:
 422              	.LFB42:
 398:../Libraries/STM32F0xx_StdPeriph_Driver/src/stm32f0xx_dac.c **** 
 399:../Libraries/STM32F0xx_StdPeriph_Driver/src/stm32f0xx_dac.c **** /**
 400:../Libraries/STM32F0xx_StdPeriph_Driver/src/stm32f0xx_dac.c ****   * @brief  Sets the specified data holding register value for dual channel DAC.
 401:../Libraries/STM32F0xx_StdPeriph_Driver/src/stm32f0xx_dac.c ****   *         This function is applicable only for STM32F072 devices.  
 402:../Libraries/STM32F0xx_StdPeriph_Driver/src/stm32f0xx_dac.c ****   * @param  DAC_Align: Specifies the data alignment for dual channel DAC.
 403:../Libraries/STM32F0xx_StdPeriph_Driver/src/stm32f0xx_dac.c ****   *          This parameter can be:
 404:../Libraries/STM32F0xx_StdPeriph_Driver/src/stm32f0xx_dac.c ****   *            @arg DAC_Align_8b_R: 8bit right data alignment selected
 405:../Libraries/STM32F0xx_StdPeriph_Driver/src/stm32f0xx_dac.c ****   *            @arg DAC_Align_12b_L: 12bit left data alignment selected
 406:../Libraries/STM32F0xx_StdPeriph_Driver/src/stm32f0xx_dac.c ****   *            @arg DAC_Align_12b_R: 12bit right data alignment selected
 407:../Libraries/STM32F0xx_StdPeriph_Driver/src/stm32f0xx_dac.c ****   * @param  Data2: Data for DAC Channel2 to be loaded in the selected data holding register.
 408:../Libraries/STM32F0xx_StdPeriph_Driver/src/stm32f0xx_dac.c ****   * @param  Data1: Data for DAC Channel1 to be loaded in the selected data  holding register.
 409:../Libraries/STM32F0xx_StdPeriph_Driver/src/stm32f0xx_dac.c ****   * @note   In dual mode, a unique register access is required to write in both
 410:../Libraries/STM32F0xx_StdPeriph_Driver/src/stm32f0xx_dac.c ****   *          DAC channels at the same time.
 411:../Libraries/STM32F0xx_StdPeriph_Driver/src/stm32f0xx_dac.c ****   * @retval None
 412:../Libraries/STM32F0xx_StdPeriph_Driver/src/stm32f0xx_dac.c ****   */
 413:../Libraries/STM32F0xx_StdPeriph_Driver/src/stm32f0xx_dac.c **** void DAC_SetDualChannelData(uint32_t DAC_Align, uint16_t Data2, uint16_t Data1)
 414:../Libraries/STM32F0xx_StdPeriph_Driver/src/stm32f0xx_dac.c **** {
 423              		.loc 1 414 0
 424              		.cfi_startproc
 425              	.LVL38:
 426 0000 00B5     		push	{lr}
 427              	.LCFI8:
 428              		.cfi_def_cfa_offset 4
 429              		.cfi_offset 14, -4
 415:../Libraries/STM32F0xx_StdPeriph_Driver/src/stm32f0xx_dac.c ****   uint32_t data = 0, tmp = 0;
 416:../Libraries/STM32F0xx_StdPeriph_Driver/src/stm32f0xx_dac.c ****   
 417:../Libraries/STM32F0xx_StdPeriph_Driver/src/stm32f0xx_dac.c ****   /* Check the parameters */
 418:../Libraries/STM32F0xx_StdPeriph_Driver/src/stm32f0xx_dac.c ****   assert_param(IS_DAC_ALIGN(DAC_Align));
 419:../Libraries/STM32F0xx_StdPeriph_Driver/src/stm32f0xx_dac.c ****   assert_param(IS_DAC_DATA(Data1));
 420:../Libraries/STM32F0xx_StdPeriph_Driver/src/stm32f0xx_dac.c ****   assert_param(IS_DAC_DATA(Data2));
 421:../Libraries/STM32F0xx_StdPeriph_Driver/src/stm32f0xx_dac.c ****   
 422:../Libraries/STM32F0xx_StdPeriph_Driver/src/stm32f0xx_dac.c ****   /* Calculate and set dual DAC data holding register value */
 423:../Libraries/STM32F0xx_StdPeriph_Driver/src/stm32f0xx_dac.c ****   if (DAC_Align == DAC_Align_8b_R)
 430              		.loc 1 423 0
 431 0002 0828     		cmp	r0, #8
 432 0004 01D1     		bne	.L34
 424:../Libraries/STM32F0xx_StdPeriph_Driver/src/stm32f0xx_dac.c ****   {
 425:../Libraries/STM32F0xx_StdPeriph_Driver/src/stm32f0xx_dac.c ****     data = ((uint32_t)Data2 << 8) | Data1; 
 433              		.loc 1 425 0
 434 0006 0902     		lsl	r1, r1, #8
 435              	.LVL39:
 436 0008 00E0     		b	.L36
 437              	.LVL40:
 438              	.L34:
 426:../Libraries/STM32F0xx_StdPeriph_Driver/src/stm32f0xx_dac.c ****   }
 427:../Libraries/STM32F0xx_StdPeriph_Driver/src/stm32f0xx_dac.c ****   else
 428:../Libraries/STM32F0xx_StdPeriph_Driver/src/stm32f0xx_dac.c ****   {
 429:../Libraries/STM32F0xx_StdPeriph_Driver/src/stm32f0xx_dac.c ****     data = ((uint32_t)Data2 << 16) | Data1;
 439              		.loc 1 429 0
 440 000a 0904     		lsl	r1, r1, #16
 441              	.LVL41:
 442              	.L36:
 430:../Libraries/STM32F0xx_StdPeriph_Driver/src/stm32f0xx_dac.c ****   }
 431:../Libraries/STM32F0xx_StdPeriph_Driver/src/stm32f0xx_dac.c ****   
 432:../Libraries/STM32F0xx_StdPeriph_Driver/src/stm32f0xx_dac.c ****   tmp = (uint32_t)DAC_BASE;
 433:../Libraries/STM32F0xx_StdPeriph_Driver/src/stm32f0xx_dac.c ****   tmp += DHR12RD_OFFSET + DAC_Align;
 443              		.loc 1 433 0
 444 000c 024B     		ldr	r3, .L37
 429:../Libraries/STM32F0xx_StdPeriph_Driver/src/stm32f0xx_dac.c ****     data = ((uint32_t)Data2 << 16) | Data1;
 445              		.loc 1 429 0
 446 000e 1143     		orr	r1, r2
 447              	.LVL42:
 448              		.loc 1 433 0
 449 0010 C018     		add	r0, r0, r3
 450              	.LVL43:
 434:../Libraries/STM32F0xx_StdPeriph_Driver/src/stm32f0xx_dac.c **** 
 435:../Libraries/STM32F0xx_StdPeriph_Driver/src/stm32f0xx_dac.c ****   /* Set the dual DAC selected data holding register */
 436:../Libraries/STM32F0xx_StdPeriph_Driver/src/stm32f0xx_dac.c ****   *(__IO uint32_t *)tmp = data;
 451              		.loc 1 436 0
 452 0012 0160     		str	r1, [r0]
 437:../Libraries/STM32F0xx_StdPeriph_Driver/src/stm32f0xx_dac.c **** }
 453              		.loc 1 437 0
 454              		@ sp needed for prologue
 455 0014 00BD     		pop	{pc}
 456              	.L38:
 457 0016 C046     		.align	2
 458              	.L37:
 459 0018 20740040 		.word	1073771552
 460              		.cfi_endproc
 461              	.LFE42:
 463              		.section	.text.DAC_GetDataOutputValue,"ax",%progbits
 464              		.align	1
 465              		.global	DAC_GetDataOutputValue
 466              		.code	16
 467              		.thumb_func
 469              	DAC_GetDataOutputValue:
 470              	.LFB43:
 438:../Libraries/STM32F0xx_StdPeriph_Driver/src/stm32f0xx_dac.c **** 
 439:../Libraries/STM32F0xx_StdPeriph_Driver/src/stm32f0xx_dac.c **** /**
 440:../Libraries/STM32F0xx_StdPeriph_Driver/src/stm32f0xx_dac.c ****   * @brief  Returns the last data output value of the selected DAC channel.
 441:../Libraries/STM32F0xx_StdPeriph_Driver/src/stm32f0xx_dac.c ****   * @param  DAC_Channel: The selected DAC channel. 
 442:../Libraries/STM32F0xx_StdPeriph_Driver/src/stm32f0xx_dac.c ****   *          This parameter can be one of the following values:
 443:../Libraries/STM32F0xx_StdPeriph_Driver/src/stm32f0xx_dac.c ****   *            @arg DAC_Channel_1: DAC Channel1 selected
 444:../Libraries/STM32F0xx_StdPeriph_Driver/src/stm32f0xx_dac.c ****   *            @arg DAC_Channel_2: DAC Channel2 selected, applicable only for STM32F072 devices
 445:../Libraries/STM32F0xx_StdPeriph_Driver/src/stm32f0xx_dac.c ****   * @retval The selected DAC channel data output value.
 446:../Libraries/STM32F0xx_StdPeriph_Driver/src/stm32f0xx_dac.c ****   */
 447:../Libraries/STM32F0xx_StdPeriph_Driver/src/stm32f0xx_dac.c **** uint16_t DAC_GetDataOutputValue(uint32_t DAC_Channel)
 448:../Libraries/STM32F0xx_StdPeriph_Driver/src/stm32f0xx_dac.c **** {
 471              		.loc 1 448 0
 472              		.cfi_startproc
 473              	.LVL44:
 474 0000 82B0     		sub	sp, sp, #8
 475              	.LCFI9:
 476              		.cfi_def_cfa_offset 8
 449:../Libraries/STM32F0xx_StdPeriph_Driver/src/stm32f0xx_dac.c ****   __IO uint32_t tmp = 0;
 477              		.loc 1 449 0
 478 0002 0023     		mov	r3, #0
 479 0004 0193     		str	r3, [sp, #4]
 480              	.LVL45:
 450:../Libraries/STM32F0xx_StdPeriph_Driver/src/stm32f0xx_dac.c ****   
 451:../Libraries/STM32F0xx_StdPeriph_Driver/src/stm32f0xx_dac.c ****   /* Check the parameters */
 452:../Libraries/STM32F0xx_StdPeriph_Driver/src/stm32f0xx_dac.c ****   assert_param(IS_DAC_CHANNEL(DAC_Channel));
 453:../Libraries/STM32F0xx_StdPeriph_Driver/src/stm32f0xx_dac.c ****   
 454:../Libraries/STM32F0xx_StdPeriph_Driver/src/stm32f0xx_dac.c ****   tmp = (uint32_t) DAC_BASE ;
 481              		.loc 1 454 0
 482 0006 064B     		ldr	r3, .L40
 455:../Libraries/STM32F0xx_StdPeriph_Driver/src/stm32f0xx_dac.c ****   tmp += DOR_OFFSET + ((uint32_t)DAC_Channel >> 2);
 483              		.loc 1 455 0
 484 0008 8008     		lsr	r0, r0, #2
 485              	.LVL46:
 454:../Libraries/STM32F0xx_StdPeriph_Driver/src/stm32f0xx_dac.c ****   tmp = (uint32_t) DAC_BASE ;
 486              		.loc 1 454 0
 487 000a 0193     		str	r3, [sp, #4]
 488              		.loc 1 455 0
 489 000c 019B     		ldr	r3, [sp, #4]
 490 000e 2C33     		add	r3, r3, #44
 491 0010 1818     		add	r0, r3, r0
 492              	.LVL47:
 493 0012 0190     		str	r0, [sp, #4]
 494              	.LVL48:
 456:../Libraries/STM32F0xx_StdPeriph_Driver/src/stm32f0xx_dac.c ****   
 457:../Libraries/STM32F0xx_StdPeriph_Driver/src/stm32f0xx_dac.c ****   /* Returns the DAC channel data output register value */
 458:../Libraries/STM32F0xx_StdPeriph_Driver/src/stm32f0xx_dac.c ****   return (uint16_t) (*(__IO uint32_t*) tmp);
 495              		.loc 1 458 0
 496 0014 019B     		ldr	r3, [sp, #4]
 497 0016 1868     		ldr	r0, [r3]
 498              	.LVL49:
 499 0018 80B2     		uxth	r0, r0
 459:../Libraries/STM32F0xx_StdPeriph_Driver/src/stm32f0xx_dac.c **** }
 500              		.loc 1 459 0
 501 001a 02B0     		add	sp, sp, #8
 502              		@ sp needed for prologue
 503 001c 7047     		bx	lr
 504              	.L41:
 505 001e C046     		.align	2
 506              	.L40:
 507 0020 00740040 		.word	1073771520
 508              		.cfi_endproc
 509              	.LFE43:
 511              		.section	.text.DAC_DMACmd,"ax",%progbits
 512              		.align	1
 513              		.global	DAC_DMACmd
 514              		.code	16
 515              		.thumb_func
 517              	DAC_DMACmd:
 518              	.LFB44:
 460:../Libraries/STM32F0xx_StdPeriph_Driver/src/stm32f0xx_dac.c **** 
 461:../Libraries/STM32F0xx_StdPeriph_Driver/src/stm32f0xx_dac.c **** /**
 462:../Libraries/STM32F0xx_StdPeriph_Driver/src/stm32f0xx_dac.c ****   * @}
 463:../Libraries/STM32F0xx_StdPeriph_Driver/src/stm32f0xx_dac.c ****   */
 464:../Libraries/STM32F0xx_StdPeriph_Driver/src/stm32f0xx_dac.c **** 
 465:../Libraries/STM32F0xx_StdPeriph_Driver/src/stm32f0xx_dac.c **** /** @defgroup DAC_Group2 DMA management functions
 466:../Libraries/STM32F0xx_StdPeriph_Driver/src/stm32f0xx_dac.c ****  *  @brief   DMA management functions
 467:../Libraries/STM32F0xx_StdPeriph_Driver/src/stm32f0xx_dac.c ****  *
 468:../Libraries/STM32F0xx_StdPeriph_Driver/src/stm32f0xx_dac.c **** @verbatim   
 469:../Libraries/STM32F0xx_StdPeriph_Driver/src/stm32f0xx_dac.c ****  ===============================================================================
 470:../Libraries/STM32F0xx_StdPeriph_Driver/src/stm32f0xx_dac.c ****                     ##### DMA management functions #####
 471:../Libraries/STM32F0xx_StdPeriph_Driver/src/stm32f0xx_dac.c ****  ===============================================================================  
 472:../Libraries/STM32F0xx_StdPeriph_Driver/src/stm32f0xx_dac.c **** 
 473:../Libraries/STM32F0xx_StdPeriph_Driver/src/stm32f0xx_dac.c **** @endverbatim
 474:../Libraries/STM32F0xx_StdPeriph_Driver/src/stm32f0xx_dac.c ****   * @{
 475:../Libraries/STM32F0xx_StdPeriph_Driver/src/stm32f0xx_dac.c ****   */
 476:../Libraries/STM32F0xx_StdPeriph_Driver/src/stm32f0xx_dac.c **** 
 477:../Libraries/STM32F0xx_StdPeriph_Driver/src/stm32f0xx_dac.c **** /**
 478:../Libraries/STM32F0xx_StdPeriph_Driver/src/stm32f0xx_dac.c ****   * @brief  Enables or disables the specified DAC channel DMA request.
 479:../Libraries/STM32F0xx_StdPeriph_Driver/src/stm32f0xx_dac.c ****   *         When enabled DMA1 is generated when an external trigger (EXTI Line9,
 480:../Libraries/STM32F0xx_StdPeriph_Driver/src/stm32f0xx_dac.c ****   *         TIM2, TIM3, TIM6 or TIM15  but not a software trigger) occurs
 481:../Libraries/STM32F0xx_StdPeriph_Driver/src/stm32f0xx_dac.c ****   * @param  DAC_Channel: the selected DAC channel.
 482:../Libraries/STM32F0xx_StdPeriph_Driver/src/stm32f0xx_dac.c ****   *          This parameter can be one of the following values:
 483:../Libraries/STM32F0xx_StdPeriph_Driver/src/stm32f0xx_dac.c ****   *            @arg DAC_Channel_1: DAC Channel1 selected
 484:../Libraries/STM32F0xx_StdPeriph_Driver/src/stm32f0xx_dac.c ****   *            @arg DAC_Channel_2: DAC Channel2 selected, applicable only for STM32F072 devices
 485:../Libraries/STM32F0xx_StdPeriph_Driver/src/stm32f0xx_dac.c ****   * @param  NewState: new state of the selected DAC channel DMA request.
 486:../Libraries/STM32F0xx_StdPeriph_Driver/src/stm32f0xx_dac.c ****   *          This parameter can be: ENABLE or DISABLE.
 487:../Libraries/STM32F0xx_StdPeriph_Driver/src/stm32f0xx_dac.c ****   * @note   The DAC channel1 is mapped on DMA1 channel3 which must be already configured. 
 488:../Libraries/STM32F0xx_StdPeriph_Driver/src/stm32f0xx_dac.c ****   * @note   The DAC channel2 is mapped on DMA1 channel4 which must be already configured.  
 489:../Libraries/STM32F0xx_StdPeriph_Driver/src/stm32f0xx_dac.c ****   * @retval None
 490:../Libraries/STM32F0xx_StdPeriph_Driver/src/stm32f0xx_dac.c ****   */
 491:../Libraries/STM32F0xx_StdPeriph_Driver/src/stm32f0xx_dac.c **** void DAC_DMACmd(uint32_t DAC_Channel, FunctionalState NewState)
 492:../Libraries/STM32F0xx_StdPeriph_Driver/src/stm32f0xx_dac.c **** {
 519              		.loc 1 492 0
 520              		.cfi_startproc
 521              	.LVL50:
 522 0000 8022     		mov	r2, #128
 523 0002 00B5     		push	{lr}
 524              	.LCFI10:
 525              		.cfi_def_cfa_offset 4
 526              		.cfi_offset 14, -4
 527 0004 084B     		ldr	r3, .L45
 528 0006 5201     		lsl	r2, r2, #5
 493:../Libraries/STM32F0xx_StdPeriph_Driver/src/stm32f0xx_dac.c ****   /* Check the parameters */
 494:../Libraries/STM32F0xx_StdPeriph_Driver/src/stm32f0xx_dac.c ****   assert_param(IS_DAC_CHANNEL(DAC_Channel));
 495:../Libraries/STM32F0xx_StdPeriph_Driver/src/stm32f0xx_dac.c ****   assert_param(IS_FUNCTIONAL_STATE(NewState));
 496:../Libraries/STM32F0xx_StdPeriph_Driver/src/stm32f0xx_dac.c **** 
 497:../Libraries/STM32F0xx_StdPeriph_Driver/src/stm32f0xx_dac.c ****   if (NewState != DISABLE)
 529              		.loc 1 497 0
 530 0008 0029     		cmp	r1, #0
 531 000a 05D0     		beq	.L43
 498:../Libraries/STM32F0xx_StdPeriph_Driver/src/stm32f0xx_dac.c ****   {
 499:../Libraries/STM32F0xx_StdPeriph_Driver/src/stm32f0xx_dac.c ****     /* Enable the selected DAC channel DMA request */
 500:../Libraries/STM32F0xx_StdPeriph_Driver/src/stm32f0xx_dac.c ****     DAC->CR |= (DAC_CR_DMAEN1 << DAC_Channel);
 532              		.loc 1 500 0
 533 000c 1968     		ldr	r1, [r3]
 534              	.LVL51:
 535 000e 8240     		lsl	r2, r2, r0
 536 0010 101C     		mov	r0, r2
 537              	.LVL52:
 538 0012 0843     		orr	r0, r1
 539 0014 1860     		str	r0, [r3]
 540 0016 05E0     		b	.L42
 541              	.LVL53:
 542              	.L43:
 501:../Libraries/STM32F0xx_StdPeriph_Driver/src/stm32f0xx_dac.c ****   }
 502:../Libraries/STM32F0xx_StdPeriph_Driver/src/stm32f0xx_dac.c ****   else
 503:../Libraries/STM32F0xx_StdPeriph_Driver/src/stm32f0xx_dac.c ****   {
 504:../Libraries/STM32F0xx_StdPeriph_Driver/src/stm32f0xx_dac.c ****     /* Disable the selected DAC channel DMA request */
 505:../Libraries/STM32F0xx_StdPeriph_Driver/src/stm32f0xx_dac.c ****     DAC->CR &= (~(DAC_CR_DMAEN1 << DAC_Channel));
 543              		.loc 1 505 0
 544 0018 1968     		ldr	r1, [r3]
 545              	.LVL54:
 546 001a 8240     		lsl	r2, r2, r0
 547 001c 101C     		mov	r0, r2
 548              	.LVL55:
 549 001e 0A1C     		mov	r2, r1
 550 0020 8243     		bic	r2, r0
 551 0022 1A60     		str	r2, [r3]
 552              	.L42:
 506:../Libraries/STM32F0xx_StdPeriph_Driver/src/stm32f0xx_dac.c ****   }
 507:../Libraries/STM32F0xx_StdPeriph_Driver/src/stm32f0xx_dac.c **** }
 553              		.loc 1 507 0
 554              		@ sp needed for prologue
 555 0024 00BD     		pop	{pc}
 556              	.L46:
 557 0026 C046     		.align	2
 558              	.L45:
 559 0028 00740040 		.word	1073771520
 560              		.cfi_endproc
 561              	.LFE44:
 563              		.section	.text.DAC_ITConfig,"ax",%progbits
 564              		.align	1
 565              		.global	DAC_ITConfig
 566              		.code	16
 567              		.thumb_func
 569              	DAC_ITConfig:
 570              	.LFB45:
 508:../Libraries/STM32F0xx_StdPeriph_Driver/src/stm32f0xx_dac.c **** 
 509:../Libraries/STM32F0xx_StdPeriph_Driver/src/stm32f0xx_dac.c **** /**
 510:../Libraries/STM32F0xx_StdPeriph_Driver/src/stm32f0xx_dac.c ****   * @}
 511:../Libraries/STM32F0xx_StdPeriph_Driver/src/stm32f0xx_dac.c ****   */
 512:../Libraries/STM32F0xx_StdPeriph_Driver/src/stm32f0xx_dac.c **** 
 513:../Libraries/STM32F0xx_StdPeriph_Driver/src/stm32f0xx_dac.c **** /** @defgroup DAC_Group3 Interrupts and flags management functions
 514:../Libraries/STM32F0xx_StdPeriph_Driver/src/stm32f0xx_dac.c ****  *  @brief   Interrupts and flags management functions
 515:../Libraries/STM32F0xx_StdPeriph_Driver/src/stm32f0xx_dac.c ****  *
 516:../Libraries/STM32F0xx_StdPeriph_Driver/src/stm32f0xx_dac.c **** @verbatim   
 517:../Libraries/STM32F0xx_StdPeriph_Driver/src/stm32f0xx_dac.c ****  ===============================================================================
 518:../Libraries/STM32F0xx_StdPeriph_Driver/src/stm32f0xx_dac.c ****             ##### Interrupts and flags management functions #####
 519:../Libraries/STM32F0xx_StdPeriph_Driver/src/stm32f0xx_dac.c ****  ===============================================================================  
 520:../Libraries/STM32F0xx_StdPeriph_Driver/src/stm32f0xx_dac.c **** 
 521:../Libraries/STM32F0xx_StdPeriph_Driver/src/stm32f0xx_dac.c **** @endverbatim
 522:../Libraries/STM32F0xx_StdPeriph_Driver/src/stm32f0xx_dac.c ****   * @{
 523:../Libraries/STM32F0xx_StdPeriph_Driver/src/stm32f0xx_dac.c ****   */
 524:../Libraries/STM32F0xx_StdPeriph_Driver/src/stm32f0xx_dac.c **** 
 525:../Libraries/STM32F0xx_StdPeriph_Driver/src/stm32f0xx_dac.c **** /**
 526:../Libraries/STM32F0xx_StdPeriph_Driver/src/stm32f0xx_dac.c ****   * @brief  Enables or disables the specified DAC interrupts.
 527:../Libraries/STM32F0xx_StdPeriph_Driver/src/stm32f0xx_dac.c ****   * @param  DAC_Channel: The selected DAC channel. 
 528:../Libraries/STM32F0xx_StdPeriph_Driver/src/stm32f0xx_dac.c ****   *          This parameter can be:
 529:../Libraries/STM32F0xx_StdPeriph_Driver/src/stm32f0xx_dac.c ****   *            @arg DAC_Channel_1: DAC Channel1 selected
 530:../Libraries/STM32F0xx_StdPeriph_Driver/src/stm32f0xx_dac.c ****   *            @arg DAC_Channel_2: DAC Channel2 selected, applicable only for STM32F072 devices
 531:../Libraries/STM32F0xx_StdPeriph_Driver/src/stm32f0xx_dac.c ****   * @param  DAC_IT: specifies the DAC interrupt sources to be enabled or disabled. 
 532:../Libraries/STM32F0xx_StdPeriph_Driver/src/stm32f0xx_dac.c ****   *          This parameter can be the following values:
 533:../Libraries/STM32F0xx_StdPeriph_Driver/src/stm32f0xx_dac.c ****   *            @arg DAC_IT_DMAUDR: DMA underrun interrupt mask
 534:../Libraries/STM32F0xx_StdPeriph_Driver/src/stm32f0xx_dac.c ****   * @note   The DMA underrun occurs when a second external trigger arrives before the 
 535:../Libraries/STM32F0xx_StdPeriph_Driver/src/stm32f0xx_dac.c ****   *         acknowledgement for the first external trigger is received (first request).
 536:../Libraries/STM32F0xx_StdPeriph_Driver/src/stm32f0xx_dac.c ****   * @param  NewState: new state of the specified DAC interrupts.
 537:../Libraries/STM32F0xx_StdPeriph_Driver/src/stm32f0xx_dac.c ****   *          This parameter can be: ENABLE or DISABLE.
 538:../Libraries/STM32F0xx_StdPeriph_Driver/src/stm32f0xx_dac.c ****   * @retval None
 539:../Libraries/STM32F0xx_StdPeriph_Driver/src/stm32f0xx_dac.c ****   */ 
 540:../Libraries/STM32F0xx_StdPeriph_Driver/src/stm32f0xx_dac.c **** void DAC_ITConfig(uint32_t DAC_Channel, uint32_t DAC_IT, FunctionalState NewState)  
 541:../Libraries/STM32F0xx_StdPeriph_Driver/src/stm32f0xx_dac.c **** {
 571              		.loc 1 541 0
 572              		.cfi_startproc
 573              	.LVL56:
 574 0000 00B5     		push	{lr}
 575              	.LCFI11:
 576              		.cfi_def_cfa_offset 4
 577              		.cfi_offset 14, -4
 578 0002 064B     		ldr	r3, .L50
 579 0004 8140     		lsl	r1, r1, r0
 580              	.LVL57:
 542:../Libraries/STM32F0xx_StdPeriph_Driver/src/stm32f0xx_dac.c ****   /* Check the parameters */
 543:../Libraries/STM32F0xx_StdPeriph_Driver/src/stm32f0xx_dac.c ****   assert_param(IS_DAC_CHANNEL(DAC_Channel));
 544:../Libraries/STM32F0xx_StdPeriph_Driver/src/stm32f0xx_dac.c ****   assert_param(IS_FUNCTIONAL_STATE(NewState));
 545:../Libraries/STM32F0xx_StdPeriph_Driver/src/stm32f0xx_dac.c ****   assert_param(IS_DAC_IT(DAC_IT)); 
 546:../Libraries/STM32F0xx_StdPeriph_Driver/src/stm32f0xx_dac.c **** 
 547:../Libraries/STM32F0xx_StdPeriph_Driver/src/stm32f0xx_dac.c ****   if (NewState != DISABLE)
 581              		.loc 1 547 0
 582 0006 002A     		cmp	r2, #0
 583 0008 03D0     		beq	.L48
 548:../Libraries/STM32F0xx_StdPeriph_Driver/src/stm32f0xx_dac.c ****   {
 549:../Libraries/STM32F0xx_StdPeriph_Driver/src/stm32f0xx_dac.c ****     /* Enable the selected DAC interrupts */
 550:../Libraries/STM32F0xx_StdPeriph_Driver/src/stm32f0xx_dac.c ****     DAC->CR |=  (DAC_IT << DAC_Channel);
 584              		.loc 1 550 0
 585 000a 1A68     		ldr	r2, [r3]
 586              	.LVL58:
 587 000c 1143     		orr	r1, r2
 588 000e 1960     		str	r1, [r3]
 589 0010 02E0     		b	.L47
 590              	.LVL59:
 591              	.L48:
 551:../Libraries/STM32F0xx_StdPeriph_Driver/src/stm32f0xx_dac.c ****   }
 552:../Libraries/STM32F0xx_StdPeriph_Driver/src/stm32f0xx_dac.c ****   else
 553:../Libraries/STM32F0xx_StdPeriph_Driver/src/stm32f0xx_dac.c ****   {
 554:../Libraries/STM32F0xx_StdPeriph_Driver/src/stm32f0xx_dac.c ****     /* Disable the selected DAC interrupts */
 555:../Libraries/STM32F0xx_StdPeriph_Driver/src/stm32f0xx_dac.c ****     DAC->CR &= (~(uint32_t)(DAC_IT << DAC_Channel));
 592              		.loc 1 555 0
 593 0012 1A68     		ldr	r2, [r3]
 594              	.LVL60:
 595 0014 8A43     		bic	r2, r1
 596 0016 1A60     		str	r2, [r3]
 597              	.L47:
 556:../Libraries/STM32F0xx_StdPeriph_Driver/src/stm32f0xx_dac.c ****   }
 557:../Libraries/STM32F0xx_StdPeriph_Driver/src/stm32f0xx_dac.c **** }
 598              		.loc 1 557 0
 599              		@ sp needed for prologue
 600 0018 00BD     		pop	{pc}
 601              	.L51:
 602 001a C046     		.align	2
 603              	.L50:
 604 001c 00740040 		.word	1073771520
 605              		.cfi_endproc
 606              	.LFE45:
 608              		.section	.text.DAC_GetFlagStatus,"ax",%progbits
 609              		.align	1
 610              		.global	DAC_GetFlagStatus
 611              		.code	16
 612              		.thumb_func
 614              	DAC_GetFlagStatus:
 615              	.LFB46:
 558:../Libraries/STM32F0xx_StdPeriph_Driver/src/stm32f0xx_dac.c **** 
 559:../Libraries/STM32F0xx_StdPeriph_Driver/src/stm32f0xx_dac.c **** /**
 560:../Libraries/STM32F0xx_StdPeriph_Driver/src/stm32f0xx_dac.c ****   * @brief  Checks whether the specified DAC flag is set or not.
 561:../Libraries/STM32F0xx_StdPeriph_Driver/src/stm32f0xx_dac.c ****   * @param  DAC_Channel: The selected DAC channel. 
 562:../Libraries/STM32F0xx_StdPeriph_Driver/src/stm32f0xx_dac.c ****   *          This parameter can be one of the following values:
 563:../Libraries/STM32F0xx_StdPeriph_Driver/src/stm32f0xx_dac.c ****   *            @arg DAC_Channel_1: DAC Channel1 selected
 564:../Libraries/STM32F0xx_StdPeriph_Driver/src/stm32f0xx_dac.c ****   *            @arg DAC_Channel_2: DAC Channel2 selected, applicable only for STM32F072 devices
 565:../Libraries/STM32F0xx_StdPeriph_Driver/src/stm32f0xx_dac.c ****   * @param  DAC_FLAG: specifies the flag to check. 
 566:../Libraries/STM32F0xx_StdPeriph_Driver/src/stm32f0xx_dac.c ****   *          This parameter can be only of the following value:
 567:../Libraries/STM32F0xx_StdPeriph_Driver/src/stm32f0xx_dac.c ****   *            @arg DAC_FLAG_DMAUDR: DMA underrun flag
 568:../Libraries/STM32F0xx_StdPeriph_Driver/src/stm32f0xx_dac.c ****   * @note   The DMA underrun occurs when a second external trigger arrives before the 
 569:../Libraries/STM32F0xx_StdPeriph_Driver/src/stm32f0xx_dac.c ****   *         acknowledgement for the first external trigger is received (first request).
 570:../Libraries/STM32F0xx_StdPeriph_Driver/src/stm32f0xx_dac.c ****   * @retval The new state of DAC_FLAG (SET or RESET).
 571:../Libraries/STM32F0xx_StdPeriph_Driver/src/stm32f0xx_dac.c ****   */
 572:../Libraries/STM32F0xx_StdPeriph_Driver/src/stm32f0xx_dac.c **** FlagStatus DAC_GetFlagStatus(uint32_t DAC_Channel, uint32_t DAC_FLAG)
 573:../Libraries/STM32F0xx_StdPeriph_Driver/src/stm32f0xx_dac.c **** {
 616              		.loc 1 573 0
 617              		.cfi_startproc
 618              	.LVL61:
 574:../Libraries/STM32F0xx_StdPeriph_Driver/src/stm32f0xx_dac.c ****   FlagStatus bitstatus = RESET;
 575:../Libraries/STM32F0xx_StdPeriph_Driver/src/stm32f0xx_dac.c ****   /* Check the parameters */
 576:../Libraries/STM32F0xx_StdPeriph_Driver/src/stm32f0xx_dac.c ****   assert_param(IS_DAC_CHANNEL(DAC_Channel));
 577:../Libraries/STM32F0xx_StdPeriph_Driver/src/stm32f0xx_dac.c ****   assert_param(IS_DAC_FLAG(DAC_FLAG));
 578:../Libraries/STM32F0xx_StdPeriph_Driver/src/stm32f0xx_dac.c **** 
 579:../Libraries/STM32F0xx_StdPeriph_Driver/src/stm32f0xx_dac.c ****   /* Check the status of the specified DAC flag */
 580:../Libraries/STM32F0xx_StdPeriph_Driver/src/stm32f0xx_dac.c ****   if ((DAC->SR & (DAC_FLAG << DAC_Channel)) != (uint8_t)RESET)
 619              		.loc 1 580 0
 620 0000 034B     		ldr	r3, .L53
 621 0002 8140     		lsl	r1, r1, r0
 622              	.LVL62:
 623 0004 5B6B     		ldr	r3, [r3, #52]
 624              	.LVL63:
 625 0006 081C     		mov	r0, r1
 626              	.LVL64:
 627 0008 1840     		and	r0, r3
 581:../Libraries/STM32F0xx_StdPeriph_Driver/src/stm32f0xx_dac.c ****   {
 582:../Libraries/STM32F0xx_StdPeriph_Driver/src/stm32f0xx_dac.c ****     /* DAC_FLAG is set */
 583:../Libraries/STM32F0xx_StdPeriph_Driver/src/stm32f0xx_dac.c ****     bitstatus = SET;
 584:../Libraries/STM32F0xx_StdPeriph_Driver/src/stm32f0xx_dac.c ****   }
 585:../Libraries/STM32F0xx_StdPeriph_Driver/src/stm32f0xx_dac.c ****   else
 586:../Libraries/STM32F0xx_StdPeriph_Driver/src/stm32f0xx_dac.c ****   {
 587:../Libraries/STM32F0xx_StdPeriph_Driver/src/stm32f0xx_dac.c ****     /* DAC_FLAG is reset */
 588:../Libraries/STM32F0xx_StdPeriph_Driver/src/stm32f0xx_dac.c ****     bitstatus = RESET;
 589:../Libraries/STM32F0xx_StdPeriph_Driver/src/stm32f0xx_dac.c ****   }
 590:../Libraries/STM32F0xx_StdPeriph_Driver/src/stm32f0xx_dac.c ****   /* Return the DAC_FLAG status */
 591:../Libraries/STM32F0xx_StdPeriph_Driver/src/stm32f0xx_dac.c ****   return  bitstatus;
 628              		.loc 1 591 0
 629 000a 431E     		sub	r3, r0, #1
 630 000c 9841     		sbc	r0, r0, r3
 592:../Libraries/STM32F0xx_StdPeriph_Driver/src/stm32f0xx_dac.c **** }
 631              		.loc 1 592 0
 632              		@ sp needed for prologue
 633 000e 7047     		bx	lr
 634              	.L54:
 635              		.align	2
 636              	.L53:
 637 0010 00740040 		.word	1073771520
 638              		.cfi_endproc
 639              	.LFE46:
 641              		.section	.text.DAC_ClearFlag,"ax",%progbits
 642              		.align	1
 643              		.global	DAC_ClearFlag
 644              		.code	16
 645              		.thumb_func
 647              	DAC_ClearFlag:
 648              	.LFB47:
 593:../Libraries/STM32F0xx_StdPeriph_Driver/src/stm32f0xx_dac.c **** 
 594:../Libraries/STM32F0xx_StdPeriph_Driver/src/stm32f0xx_dac.c **** /**
 595:../Libraries/STM32F0xx_StdPeriph_Driver/src/stm32f0xx_dac.c ****   * @brief  Clears the DAC channel's pending flags.
 596:../Libraries/STM32F0xx_StdPeriph_Driver/src/stm32f0xx_dac.c ****   * @param  DAC_Channel: The selected DAC channel. 
 597:../Libraries/STM32F0xx_StdPeriph_Driver/src/stm32f0xx_dac.c ****   *          This parameter can be one of the following values:
 598:../Libraries/STM32F0xx_StdPeriph_Driver/src/stm32f0xx_dac.c ****   *            @arg DAC_Channel_1: DAC Channel1 selected
 599:../Libraries/STM32F0xx_StdPeriph_Driver/src/stm32f0xx_dac.c ****   *            @arg DAC_Channel_2: DAC Channel2 selected, applicable only for STM32F072 devices
 600:../Libraries/STM32F0xx_StdPeriph_Driver/src/stm32f0xx_dac.c ****   * @param  DAC_FLAG: specifies the flag to clear. 
 601:../Libraries/STM32F0xx_StdPeriph_Driver/src/stm32f0xx_dac.c ****   *          This parameter can be of the following value:
 602:../Libraries/STM32F0xx_StdPeriph_Driver/src/stm32f0xx_dac.c ****   *            @arg DAC_FLAG_DMAUDR: DMA underrun flag                           
 603:../Libraries/STM32F0xx_StdPeriph_Driver/src/stm32f0xx_dac.c ****   * @retval None
 604:../Libraries/STM32F0xx_StdPeriph_Driver/src/stm32f0xx_dac.c ****   */
 605:../Libraries/STM32F0xx_StdPeriph_Driver/src/stm32f0xx_dac.c **** void DAC_ClearFlag(uint32_t DAC_Channel, uint32_t DAC_FLAG)
 606:../Libraries/STM32F0xx_StdPeriph_Driver/src/stm32f0xx_dac.c **** {
 649              		.loc 1 606 0
 650              		.cfi_startproc
 651              	.LVL65:
 607:../Libraries/STM32F0xx_StdPeriph_Driver/src/stm32f0xx_dac.c ****   /* Check the parameters */
 608:../Libraries/STM32F0xx_StdPeriph_Driver/src/stm32f0xx_dac.c ****   assert_param(IS_DAC_CHANNEL(DAC_Channel));
 609:../Libraries/STM32F0xx_StdPeriph_Driver/src/stm32f0xx_dac.c ****   assert_param(IS_DAC_FLAG(DAC_FLAG));
 610:../Libraries/STM32F0xx_StdPeriph_Driver/src/stm32f0xx_dac.c **** 
 611:../Libraries/STM32F0xx_StdPeriph_Driver/src/stm32f0xx_dac.c ****   /* Clear the selected DAC flags */
 612:../Libraries/STM32F0xx_StdPeriph_Driver/src/stm32f0xx_dac.c ****   DAC->SR = (DAC_FLAG << DAC_Channel);
 652              		.loc 1 612 0
 653 0000 014B     		ldr	r3, .L56
 654 0002 8140     		lsl	r1, r1, r0
 655              	.LVL66:
 656 0004 5963     		str	r1, [r3, #52]
 613:../Libraries/STM32F0xx_StdPeriph_Driver/src/stm32f0xx_dac.c **** }
 657              		.loc 1 613 0
 658              		@ sp needed for prologue
 659 0006 7047     		bx	lr
 660              	.L57:
 661              		.align	2
 662              	.L56:
 663 0008 00740040 		.word	1073771520
 664              		.cfi_endproc
 665              	.LFE47:
 667              		.section	.text.DAC_GetITStatus,"ax",%progbits
 668              		.align	1
 669              		.global	DAC_GetITStatus
 670              		.code	16
 671              		.thumb_func
 673              	DAC_GetITStatus:
 674              	.LFB48:
 614:../Libraries/STM32F0xx_StdPeriph_Driver/src/stm32f0xx_dac.c **** 
 615:../Libraries/STM32F0xx_StdPeriph_Driver/src/stm32f0xx_dac.c **** /**
 616:../Libraries/STM32F0xx_StdPeriph_Driver/src/stm32f0xx_dac.c ****   * @brief  Checks whether the specified DAC interrupt has occurred or not.
 617:../Libraries/STM32F0xx_StdPeriph_Driver/src/stm32f0xx_dac.c ****   * @param  DAC_Channel: The selected DAC channel. 
 618:../Libraries/STM32F0xx_StdPeriph_Driver/src/stm32f0xx_dac.c ****   *          This parameter can be one of the following values:
 619:../Libraries/STM32F0xx_StdPeriph_Driver/src/stm32f0xx_dac.c ****   *            @arg DAC_Channel_1: DAC Channel1 selected
 620:../Libraries/STM32F0xx_StdPeriph_Driver/src/stm32f0xx_dac.c ****   *            @arg DAC_Channel_2: DAC Channel2 selected, applicable only for STM32F072 devices
 621:../Libraries/STM32F0xx_StdPeriph_Driver/src/stm32f0xx_dac.c ****   * @param  DAC_IT: specifies the DAC interrupt source to check. 
 622:../Libraries/STM32F0xx_StdPeriph_Driver/src/stm32f0xx_dac.c ****   *          This parameter can be the following values:
 623:../Libraries/STM32F0xx_StdPeriph_Driver/src/stm32f0xx_dac.c ****   *            @arg DAC_IT_DMAUDR: DMA underrun interrupt mask
 624:../Libraries/STM32F0xx_StdPeriph_Driver/src/stm32f0xx_dac.c ****   * @note   The DMA underrun occurs when a second external trigger arrives before the 
 625:../Libraries/STM32F0xx_StdPeriph_Driver/src/stm32f0xx_dac.c ****   *         acknowledgement for the first external trigger is received (first request).
 626:../Libraries/STM32F0xx_StdPeriph_Driver/src/stm32f0xx_dac.c ****   * @retval The new state of DAC_IT (SET or RESET).
 627:../Libraries/STM32F0xx_StdPeriph_Driver/src/stm32f0xx_dac.c ****   */
 628:../Libraries/STM32F0xx_StdPeriph_Driver/src/stm32f0xx_dac.c **** ITStatus DAC_GetITStatus(uint32_t DAC_Channel, uint32_t DAC_IT)
 629:../Libraries/STM32F0xx_StdPeriph_Driver/src/stm32f0xx_dac.c **** {
 675              		.loc 1 629 0
 676              		.cfi_startproc
 677              	.LVL67:
 630:../Libraries/STM32F0xx_StdPeriph_Driver/src/stm32f0xx_dac.c ****   ITStatus bitstatus = RESET;
 631:../Libraries/STM32F0xx_StdPeriph_Driver/src/stm32f0xx_dac.c ****   uint32_t enablestatus = 0;
 632:../Libraries/STM32F0xx_StdPeriph_Driver/src/stm32f0xx_dac.c ****   
 633:../Libraries/STM32F0xx_StdPeriph_Driver/src/stm32f0xx_dac.c ****   /* Check the parameters */
 634:../Libraries/STM32F0xx_StdPeriph_Driver/src/stm32f0xx_dac.c ****   assert_param(IS_DAC_CHANNEL(DAC_Channel));
 635:../Libraries/STM32F0xx_StdPeriph_Driver/src/stm32f0xx_dac.c ****   assert_param(IS_DAC_IT(DAC_IT));
 636:../Libraries/STM32F0xx_StdPeriph_Driver/src/stm32f0xx_dac.c **** 
 637:../Libraries/STM32F0xx_StdPeriph_Driver/src/stm32f0xx_dac.c ****   /* Get the DAC_IT enable bit status */
 638:../Libraries/STM32F0xx_StdPeriph_Driver/src/stm32f0xx_dac.c ****   enablestatus = (DAC->CR & (DAC_IT << DAC_Channel)) ;
 678              		.loc 1 638 0
 679 0000 064B     		ldr	r3, .L62
 680 0002 8140     		lsl	r1, r1, r0
 681              	.LVL68:
 682 0004 1A68     		ldr	r2, [r3]
 683              	.LVL69:
 639:../Libraries/STM32F0xx_StdPeriph_Driver/src/stm32f0xx_dac.c ****   
 640:../Libraries/STM32F0xx_StdPeriph_Driver/src/stm32f0xx_dac.c ****   /* Check the status of the specified DAC interrupt */
 641:../Libraries/STM32F0xx_StdPeriph_Driver/src/stm32f0xx_dac.c ****   if (((DAC->SR & (DAC_IT << DAC_Channel)) != (uint32_t)RESET) && enablestatus)
 684              		.loc 1 641 0
 685 0006 5B6B     		ldr	r3, [r3, #52]
 629:../Libraries/STM32F0xx_StdPeriph_Driver/src/stm32f0xx_dac.c **** {
 686              		.loc 1 629 0
 687 0008 00B5     		push	{lr}
 688              	.LCFI12:
 689              		.cfi_def_cfa_offset 4
 690              		.cfi_offset 14, -4
 642:../Libraries/STM32F0xx_StdPeriph_Driver/src/stm32f0xx_dac.c ****   {
 643:../Libraries/STM32F0xx_StdPeriph_Driver/src/stm32f0xx_dac.c ****     /* DAC_IT is set */
 644:../Libraries/STM32F0xx_StdPeriph_Driver/src/stm32f0xx_dac.c ****     bitstatus = SET;
 645:../Libraries/STM32F0xx_StdPeriph_Driver/src/stm32f0xx_dac.c ****   }
 646:../Libraries/STM32F0xx_StdPeriph_Driver/src/stm32f0xx_dac.c ****   else
 647:../Libraries/STM32F0xx_StdPeriph_Driver/src/stm32f0xx_dac.c ****   {
 648:../Libraries/STM32F0xx_StdPeriph_Driver/src/stm32f0xx_dac.c ****     /* DAC_IT is reset */
 649:../Libraries/STM32F0xx_StdPeriph_Driver/src/stm32f0xx_dac.c ****     bitstatus = RESET;
 691              		.loc 1 649 0
 692 000a 0020     		mov	r0, #0
 693              	.LVL70:
 641:../Libraries/STM32F0xx_StdPeriph_Driver/src/stm32f0xx_dac.c ****   if (((DAC->SR & (DAC_IT << DAC_Channel)) != (uint32_t)RESET) && enablestatus)
 694              		.loc 1 641 0
 695 000c 0B42     		tst	r3, r1
 696 000e 03D0     		beq	.L59
 638:../Libraries/STM32F0xx_StdPeriph_Driver/src/stm32f0xx_dac.c ****   enablestatus = (DAC->CR & (DAC_IT << DAC_Channel)) ;
 697              		.loc 1 638 0 discriminator 1
 698 0010 101C     		mov	r0, r2
 699 0012 0840     		and	r0, r1
 700              	.LVL71:
 644:../Libraries/STM32F0xx_StdPeriph_Driver/src/stm32f0xx_dac.c ****     bitstatus = SET;
 701              		.loc 1 644 0 discriminator 1
 702 0014 411E     		sub	r1, r0, #1
 703 0016 8841     		sbc	r0, r0, r1
 704              	.LVL72:
 705              	.L59:
 650:../Libraries/STM32F0xx_StdPeriph_Driver/src/stm32f0xx_dac.c ****   }
 651:../Libraries/STM32F0xx_StdPeriph_Driver/src/stm32f0xx_dac.c ****   /* Return the DAC_IT status */
 652:../Libraries/STM32F0xx_StdPeriph_Driver/src/stm32f0xx_dac.c ****   return  bitstatus;
 653:../Libraries/STM32F0xx_StdPeriph_Driver/src/stm32f0xx_dac.c **** }
 706              		.loc 1 653 0
 707              		@ sp needed for prologue
 708 0018 00BD     		pop	{pc}
 709              	.L63:
 710 001a C046     		.align	2
 711              	.L62:
 712 001c 00740040 		.word	1073771520
 713              		.cfi_endproc
 714              	.LFE48:
 716              		.section	.text.DAC_ClearITPendingBit,"ax",%progbits
 717              		.align	1
 718              		.global	DAC_ClearITPendingBit
 719              		.code	16
 720              		.thumb_func
 722              	DAC_ClearITPendingBit:
 723              	.LFB49:
 654:../Libraries/STM32F0xx_StdPeriph_Driver/src/stm32f0xx_dac.c **** 
 655:../Libraries/STM32F0xx_StdPeriph_Driver/src/stm32f0xx_dac.c **** /**
 656:../Libraries/STM32F0xx_StdPeriph_Driver/src/stm32f0xx_dac.c ****   * @brief  Clears the DAC channel's interrupt pending bits.
 657:../Libraries/STM32F0xx_StdPeriph_Driver/src/stm32f0xx_dac.c ****   * @param  DAC_Channel: The selected DAC channel. 
 658:../Libraries/STM32F0xx_StdPeriph_Driver/src/stm32f0xx_dac.c ****   *          This parameter can be one of the following values:
 659:../Libraries/STM32F0xx_StdPeriph_Driver/src/stm32f0xx_dac.c ****   *            @arg DAC_Channel_1: DAC Channel1 selected
 660:../Libraries/STM32F0xx_StdPeriph_Driver/src/stm32f0xx_dac.c ****   *            @arg DAC_Channel_2: DAC Channel2 selected, applicable only for STM32F072 devices
 661:../Libraries/STM32F0xx_StdPeriph_Driver/src/stm32f0xx_dac.c ****   * @param  DAC_IT: specifies the DAC interrupt pending bit to clear.
 662:../Libraries/STM32F0xx_StdPeriph_Driver/src/stm32f0xx_dac.c ****   *          This parameter can be the following values:
 663:../Libraries/STM32F0xx_StdPeriph_Driver/src/stm32f0xx_dac.c ****   *            @arg DAC_IT_DMAUDR: DMA underrun interrupt mask                                     
 664:../Libraries/STM32F0xx_StdPeriph_Driver/src/stm32f0xx_dac.c ****   * @retval None
 665:../Libraries/STM32F0xx_StdPeriph_Driver/src/stm32f0xx_dac.c ****   */
 666:../Libraries/STM32F0xx_StdPeriph_Driver/src/stm32f0xx_dac.c **** void DAC_ClearITPendingBit(uint32_t DAC_Channel, uint32_t DAC_IT)
 667:../Libraries/STM32F0xx_StdPeriph_Driver/src/stm32f0xx_dac.c **** {
 724              		.loc 1 667 0
 725              		.cfi_startproc
 726              	.LVL73:
 668:../Libraries/STM32F0xx_StdPeriph_Driver/src/stm32f0xx_dac.c ****   /* Check the parameters */
 669:../Libraries/STM32F0xx_StdPeriph_Driver/src/stm32f0xx_dac.c ****   assert_param(IS_DAC_CHANNEL(DAC_Channel));
 670:../Libraries/STM32F0xx_StdPeriph_Driver/src/stm32f0xx_dac.c ****   assert_param(IS_DAC_IT(DAC_IT)); 
 671:../Libraries/STM32F0xx_StdPeriph_Driver/src/stm32f0xx_dac.c **** 
 672:../Libraries/STM32F0xx_StdPeriph_Driver/src/stm32f0xx_dac.c ****   /* Clear the selected DAC interrupt pending bits */
 673:../Libraries/STM32F0xx_StdPeriph_Driver/src/stm32f0xx_dac.c ****   DAC->SR = (DAC_IT << DAC_Channel);
 727              		.loc 1 673 0
 728 0000 014B     		ldr	r3, .L65
 729 0002 8140     		lsl	r1, r1, r0
 730              	.LVL74:
 731 0004 5963     		str	r1, [r3, #52]
 674:../Libraries/STM32F0xx_StdPeriph_Driver/src/stm32f0xx_dac.c **** }
 732              		.loc 1 674 0
 733              		@ sp needed for prologue
 734 0006 7047     		bx	lr
 735              	.L66:
 736              		.align	2
 737              	.L65:
 738 0008 00740040 		.word	1073771520
 739              		.cfi_endproc
 740              	.LFE49:
 742              		.text
 743              	.Letext0:
 744              		.file 2 "c:\\program files (x86)\\codesourcery\\sourcery_codebench_lite_for_arm_eabi\\bin\\../lib/
 745              		.file 3 "D:\\EclipseIndigo\\workspace\\cam_hub\\scr/stm32f0xx.h"
 746              		.file 4 "D:\\EclipseIndigo\\workspace\\cam_hub\\Libraries\\STM32F0xx_StdPeriph_Driver\\inc/stm32f0
 747              		.file 5 "D:\\EclipseIndigo\\workspace\\cam_hub\\Libraries\\STM32F0xx_StdPeriph_Driver\\inc/stm32f0