   1              		.cpu cortex-m0
   2              		.fpu softvfp
   3              		.eabi_attribute 20, 1
   4              		.eabi_attribute 21, 1
   5              		.eabi_attribute 23, 3
   6              		.eabi_attribute 24, 1
   7              		.eabi_attribute 25, 1
   8              		.eabi_attribute 26, 1
   9              		.eabi_attribute 30, 4
  10              		.eabi_attribute 34, 0
  11              		.eabi_attribute 18, 4
  12              		.code	16
  13              		.file	"stm32f0xx_it.c"
  14              		.text
  15              	.Ltext0:
  16              		.cfi_sections	.debug_frame
  17              		.section	.text.NMI_Handler,"ax",%progbits
  18              		.align	1
  19              		.global	NMI_Handler
  20              		.code	16
  21              		.thumb_func
  23              	NMI_Handler:
  24              	.LFB33:
  25              		.file 1 "../scr/stm32f0xx_it.c"
   1:../scr/stm32f0xx_it.c **** /**
   2:../scr/stm32f0xx_it.c ****  ******************************************************************************
   3:../scr/stm32f0xx_it.c ****  * @file    Project/STM32F0xx_StdPeriph_Templates/stm32f0xx_it.c
   4:../scr/stm32f0xx_it.c ****  * @author  MCD Application Team
   5:../scr/stm32f0xx_it.c ****  * @version V1.5.0
   6:../scr/stm32f0xx_it.c ****  * @date    05-December-2014
   7:../scr/stm32f0xx_it.c ****  * @brief   Main Interrupt Service Routines.
   8:../scr/stm32f0xx_it.c ****  *          This file provides template for all exceptions handler and
   9:../scr/stm32f0xx_it.c ****  *          peripherals interrupt service routine.
  10:../scr/stm32f0xx_it.c ****  ******************************************************************************
  11:../scr/stm32f0xx_it.c ****  * @attention
  12:../scr/stm32f0xx_it.c ****  *
  13:../scr/stm32f0xx_it.c ****  * <h2><center>&copy; COPYRIGHT 2014 STMicroelectronics</center></h2>
  14:../scr/stm32f0xx_it.c ****  *
  15:../scr/stm32f0xx_it.c ****  * Licensed under MCD-ST Liberty SW License Agreement V2, (the "License");
  16:../scr/stm32f0xx_it.c ****  * You may not use this file except in compliance with the License.
  17:../scr/stm32f0xx_it.c ****  * You may obtain a copy of the License at:
  18:../scr/stm32f0xx_it.c ****  *
  19:../scr/stm32f0xx_it.c ****  *        http://www.st.com/software_license_agreement_liberty_v2
  20:../scr/stm32f0xx_it.c ****  *
  21:../scr/stm32f0xx_it.c ****  * Unless required by applicable law or agreed to in writing, software
  22:../scr/stm32f0xx_it.c ****  * distributed under the License is distributed on an "AS IS" BASIS,
  23:../scr/stm32f0xx_it.c ****  * WITHOUT WARRANTIES OR CONDITIONS OF ANY KIND, either express or implied.
  24:../scr/stm32f0xx_it.c ****  * See the License for the specific language governing permissions and
  25:../scr/stm32f0xx_it.c ****  * limitations under the License.
  26:../scr/stm32f0xx_it.c ****  *
  27:../scr/stm32f0xx_it.c ****  ******************************************************************************
  28:../scr/stm32f0xx_it.c ****  */
  29:../scr/stm32f0xx_it.c **** 
  30:../scr/stm32f0xx_it.c **** /* Includes ------------------------------------------------------------------*/
  31:../scr/stm32f0xx_it.c **** #include "stm32f0xx.h"
  32:../scr/stm32f0xx_it.c **** #include "stm32f0xx_it.h"
  33:../scr/stm32f0xx_it.c **** #include "main.h"
  34:../scr/stm32f0xx_it.c **** #include "xprintf.h"
  35:../scr/stm32f0xx_it.c **** #include "string.h"
  36:../scr/stm32f0xx_it.c **** /** @addtogroup Template_Project
  37:../scr/stm32f0xx_it.c ****  * @{
  38:../scr/stm32f0xx_it.c ****  */
  39:../scr/stm32f0xx_it.c **** 
  40:../scr/stm32f0xx_it.c **** /* Private typedef -----------------------------------------------------------*/
  41:../scr/stm32f0xx_it.c **** /* Private define ------------------------------------------------------------*/
  42:../scr/stm32f0xx_it.c **** /* Private macro -------------------------------------------------------------*/
  43:../scr/stm32f0xx_it.c **** /* Private variables ---------------------------------------------------------*/
  44:../scr/stm32f0xx_it.c **** volatile extern uint32_t ulSecCount;
  45:../scr/stm32f0xx_it.c **** volatile extern uint32_t ulTickCount;
  46:../scr/stm32f0xx_it.c **** volatile extern uint32_t ulMiliCount;
  47:../scr/stm32f0xx_it.c **** volatile extern unsigned long ulTick100;
  48:../scr/stm32f0xx_it.c **** extern void USARTxPutChar(USART_TypeDef * USARTx, uint8_t c);
  49:../scr/stm32f0xx_it.c **** extern void USARTxPutString(USART_TypeDef * USARTx, unsigned char *s);
  50:../scr/stm32f0xx_it.c **** /* Private function prototypes -----------------------------------------------*/
  51:../scr/stm32f0xx_it.c **** /* Private functions ---------------------------------------------------------*/
  52:../scr/stm32f0xx_it.c **** 
  53:../scr/stm32f0xx_it.c **** /******************************************************************************/
  54:../scr/stm32f0xx_it.c **** /*            Cortex-M0 Processor Exceptions Handlers                         */
  55:../scr/stm32f0xx_it.c **** /******************************************************************************/
  56:../scr/stm32f0xx_it.c **** 
  57:../scr/stm32f0xx_it.c **** /**
  58:../scr/stm32f0xx_it.c ****  * @brief  This function handles NMI exception.
  59:../scr/stm32f0xx_it.c ****  * @param  None
  60:../scr/stm32f0xx_it.c ****  * @retval None
  61:../scr/stm32f0xx_it.c ****  */
  62:../scr/stm32f0xx_it.c **** void NMI_Handler(void) {
  26              		.loc 1 62 0
  27              		.cfi_startproc
  63:../scr/stm32f0xx_it.c **** }
  28              		.loc 1 63 0
  29              		@ sp needed for prologue
  30 0000 7047     		bx	lr
  31              		.cfi_endproc
  32              	.LFE33:
  34              		.section	.text.HardFault_Handler,"ax",%progbits
  35              		.align	1
  36              		.global	HardFault_Handler
  37              		.code	16
  38              		.thumb_func
  40              	HardFault_Handler:
  41              	.LFB34:
  64:../scr/stm32f0xx_it.c **** 
  65:../scr/stm32f0xx_it.c **** /**
  66:../scr/stm32f0xx_it.c ****  * @brief  This function handles Hard Fault exception.
  67:../scr/stm32f0xx_it.c ****  * @param  None
  68:../scr/stm32f0xx_it.c ****  * @retval None
  69:../scr/stm32f0xx_it.c ****  */
  70:../scr/stm32f0xx_it.c **** void HardFault_Handler(void) {
  42              		.loc 1 70 0
  43              		.cfi_startproc
  44 0000 00B5     		push	{lr}
  45              	.LCFI0:
  46              		.cfi_def_cfa_offset 4
  47              		.cfi_offset 14, -4
  48              	.L3:
  49 0002 FEE7     		b	.L3
  50              		.cfi_endproc
  51              	.LFE34:
  53              		.section	.text.SVC_Handler,"ax",%progbits
  54              		.align	1
  55              		.global	SVC_Handler
  56              		.code	16
  57              		.thumb_func
  59              	SVC_Handler:
  60              	.LFB35:
  71:../scr/stm32f0xx_it.c **** 	/* Go to infinite loop when Hard Fault exception occurs */
  72:../scr/stm32f0xx_it.c **** 	while (1) {
  73:../scr/stm32f0xx_it.c **** 	}
  74:../scr/stm32f0xx_it.c **** }
  75:../scr/stm32f0xx_it.c **** 
  76:../scr/stm32f0xx_it.c **** /**
  77:../scr/stm32f0xx_it.c ****  * @brief  This function handles SVCall exception.
  78:../scr/stm32f0xx_it.c ****  * @param  None
  79:../scr/stm32f0xx_it.c ****  * @retval None
  80:../scr/stm32f0xx_it.c ****  */
  81:../scr/stm32f0xx_it.c **** void SVC_Handler(void) {
  61              		.loc 1 81 0
  62              		.cfi_startproc
  82:../scr/stm32f0xx_it.c **** }
  63              		.loc 1 82 0
  64              		@ sp needed for prologue
  65 0000 7047     		bx	lr
  66              		.cfi_endproc
  67              	.LFE35:
  69              		.section	.text.PendSV_Handler,"ax",%progbits
  70              		.align	1
  71              		.global	PendSV_Handler
  72              		.code	16
  73              		.thumb_func
  75              	PendSV_Handler:
  76              	.LFB36:
  83:../scr/stm32f0xx_it.c **** 
  84:../scr/stm32f0xx_it.c **** /**
  85:../scr/stm32f0xx_it.c ****  * @brief  This function handles PendSVC exception.
  86:../scr/stm32f0xx_it.c ****  * @param  None
  87:../scr/stm32f0xx_it.c ****  * @retval None
  88:../scr/stm32f0xx_it.c ****  */
  89:../scr/stm32f0xx_it.c **** void PendSV_Handler(void) {
  77              		.loc 1 89 0
  78              		.cfi_startproc
  90:../scr/stm32f0xx_it.c **** }
  79              		.loc 1 90 0
  80              		@ sp needed for prologue
  81 0000 7047     		bx	lr
  82              		.cfi_endproc
  83              	.LFE36:
  85              		.global	__aeabi_uidivmod
  86              		.section	.text.SysTick_Handler,"ax",%progbits
  87              		.align	1
  88              		.global	SysTick_Handler
  89              		.code	16
  90              		.thumb_func
  92              	SysTick_Handler:
  93              	.LFB37:
  91:../scr/stm32f0xx_it.c **** 
  92:../scr/stm32f0xx_it.c **** /**
  93:../scr/stm32f0xx_it.c ****  * @brief  This function handles SysTick Handler.
  94:../scr/stm32f0xx_it.c ****  * @param  None
  95:../scr/stm32f0xx_it.c ****  * @retval None
  96:../scr/stm32f0xx_it.c ****  */
  97:../scr/stm32f0xx_it.c **** void SysTick_Handler(void) {
  94              		.loc 1 97 0
  95              		.cfi_startproc
  98:../scr/stm32f0xx_it.c **** 	ulTickCount++;
  96              		.loc 1 98 0
  97 0000 0D4B     		ldr	r3, .L9
  97:../scr/stm32f0xx_it.c **** void SysTick_Handler(void) {
  98              		.loc 1 97 0
  99 0002 10B5     		push	{r4, lr}
 100              	.LCFI1:
 101              		.cfi_def_cfa_offset 8
 102              		.cfi_offset 4, -8
 103              		.cfi_offset 14, -4
 104              		.loc 1 98 0
 105 0004 1A68     		ldr	r2, [r3]
  99:../scr/stm32f0xx_it.c **** 	ulMiliCount++;
 106              		.loc 1 99 0
 107 0006 0D4C     		ldr	r4, .L9+4
  98:../scr/stm32f0xx_it.c **** 	ulTickCount++;
 108              		.loc 1 98 0
 109 0008 0132     		add	r2, r2, #1
 110              	.LVL0:
 111 000a 1A60     		str	r2, [r3]
 112              	.LVL1:
 113              		.loc 1 99 0
 114 000c 2368     		ldr	r3, [r4]
 100:../scr/stm32f0xx_it.c **** 
 101:../scr/stm32f0xx_it.c **** 	if ((ulMiliCount % 10) == 0) {
 115              		.loc 1 101 0
 116 000e 0A21     		mov	r1, #10
  99:../scr/stm32f0xx_it.c **** 	ulMiliCount++;
 117              		.loc 1 99 0
 118 0010 0133     		add	r3, r3, #1
 119              	.LVL2:
 120 0012 2360     		str	r3, [r4]
 121              	.LVL3:
 122              		.loc 1 101 0
 123 0014 2068     		ldr	r0, [r4]
 124 0016 FFF7FEFF 		bl	__aeabi_uidivmod
 125              	.LVL4:
 126 001a 0029     		cmp	r1, #0
 127 001c 03D1     		bne	.L7
 102:../scr/stm32f0xx_it.c **** 		ulTick100++;
 128              		.loc 1 102 0
 129 001e 084B     		ldr	r3, .L9+8
 130 0020 1A68     		ldr	r2, [r3]
 131 0022 0132     		add	r2, r2, #1
 132              	.LVL5:
 133 0024 1A60     		str	r2, [r3]
 134              	.LVL6:
 135              	.L7:
 103:../scr/stm32f0xx_it.c **** 	}
 104:../scr/stm32f0xx_it.c **** 
 105:../scr/stm32f0xx_it.c **** 	if (ulMiliCount >= 100) {
 136              		.loc 1 105 0
 137 0026 2368     		ldr	r3, [r4]
 138 0028 632B     		cmp	r3, #99
 139 002a 03D9     		bls	.L6
 106:../scr/stm32f0xx_it.c **** 		ulSecCount++;
 140              		.loc 1 106 0
 141 002c 054B     		ldr	r3, .L9+12
 142 002e 1A68     		ldr	r2, [r3]
 143              	.LVL7:
 144 0030 0132     		add	r2, r2, #1
 145              	.LVL8:
 146 0032 1A60     		str	r2, [r3]
 147              	.LVL9:
 148              	.L6:
 107:../scr/stm32f0xx_it.c **** 	//	ulMiliCount = 0;
 108:../scr/stm32f0xx_it.c **** 	}
 109:../scr/stm32f0xx_it.c **** }
 149              		.loc 1 109 0
 150              		@ sp needed for prologue
 151 0034 10BD     		pop	{r4, pc}
 152              	.L10:
 153 0036 C046     		.align	2
 154              	.L9:
 155 0038 00000000 		.word	ulTickCount
 156 003c 00000000 		.word	ulMiliCount
 157 0040 00000000 		.word	ulTick100
 158 0044 00000000 		.word	ulSecCount
 159              		.cfi_endproc
 160              	.LFE37:
 162              		.section	.text.USART1_IRQHandler,"ax",%progbits
 163              		.align	1
 164              		.global	USART1_IRQHandler
 165              		.code	16
 166              		.thumb_func
 168              	USART1_IRQHandler:
 169              	.LFB38:
 110:../scr/stm32f0xx_it.c **** char buff_cmd[256];
 111:../scr/stm32f0xx_it.c **** int buff_cmd_idx = 0;
 112:../scr/stm32f0xx_it.c **** char buff_data[1024];
 113:../scr/stm32f0xx_it.c **** int buff_data_idx = 0;
 114:../scr/stm32f0xx_it.c **** int Camera_idx = 0;
 115:../scr/stm32f0xx_it.c **** int On_handler_cmd_from_deveice = 0;
 116:../scr/stm32f0xx_it.c **** int last_time_rec_byte_time = 0;
 117:../scr/stm32f0xx_it.c **** void USART1_IRQHandler(void) {
 170              		.loc 1 117 0
 171              		.cfi_startproc
 172 0000 38B5     		push	{r3, r4, r5, lr}
 173              	.LCFI2:
 174              		.cfi_def_cfa_offset 16
 175              		.cfi_offset 3, -16
 176              		.cfi_offset 4, -12
 177              		.cfi_offset 5, -8
 178              		.cfi_offset 14, -4
 118:../scr/stm32f0xx_it.c **** 	if (USART_GetITStatus(USART1, USART_IT_RXNE) == SET) {
 179              		.loc 1 118 0
 180 0002 3C48     		ldr	r0, .L41
 181 0004 3C49     		ldr	r1, .L41+4
 182 0006 FFF7FEFF 		bl	USART_GetITStatus
 183              	.LVL10:
 184 000a 0128     		cmp	r0, #1
 185 000c 71D1     		bne	.L11
 186              	.LBB2:
 119:../scr/stm32f0xx_it.c **** 		uint16_t cChar;
 120:../scr/stm32f0xx_it.c **** 		//last_time_rec_byte_time = ulMiliCount;
 121:../scr/stm32f0xx_it.c **** 		cChar = USART_ReceiveData(USART1);
 187              		.loc 1 121 0
 188 000e 3948     		ldr	r0, .L41
 189 0010 FFF7FEFF 		bl	USART_ReceiveData
 190              	.LVL11:
 191 0014 394D     		ldr	r5, .L41+8
 192 0016 041C     		mov	r4, r0
 193              	.LVL12:
 122:../scr/stm32f0xx_it.c **** 		if (cChar == 0x56 || buff_data_idx == 0) {
 194              		.loc 1 122 0
 195 0018 5628     		cmp	r0, #86
 196 001a 03D0     		beq	.L14
 197              		.loc 1 122 0 is_stmt 0 discriminator 1
 198 001c 384B     		ldr	r3, .L41+12
 199 001e 1B68     		ldr	r3, [r3]
 200 0020 002B     		cmp	r3, #0
 201 0022 06D1     		bne	.L15
 202              	.L14:
 123:../scr/stm32f0xx_it.c **** 			buff_cmd_idx = 0;
 124:../scr/stm32f0xx_it.c **** 			memset(buff_cmd, 0, sizeof(buff_cmd));
 203              		.loc 1 124 0 is_stmt 1
 204 0024 8022     		mov	r2, #128
 123:../scr/stm32f0xx_it.c **** 			buff_cmd_idx = 0;
 205              		.loc 1 123 0
 206 0026 0021     		mov	r1, #0
 207              		.loc 1 124 0
 208 0028 3648     		ldr	r0, .L41+16
 209              	.LVL13:
 210 002a 5200     		lsl	r2, r2, #1
 123:../scr/stm32f0xx_it.c **** 			buff_cmd_idx = 0;
 211              		.loc 1 123 0
 212 002c 2960     		str	r1, [r5]
 213              		.loc 1 124 0
 214 002e FFF7FEFF 		bl	memset
 215              	.LVL14:
 216              	.L15:
 125:../scr/stm32f0xx_it.c **** 		}
 126:../scr/stm32f0xx_it.c **** 		if (buff_cmd_idx == 1) {
 217              		.loc 1 126 0
 218 0032 2B68     		ldr	r3, [r5]
 219 0034 012B     		cmp	r3, #1
 220 0036 36D1     		bne	.L16
 127:../scr/stm32f0xx_it.c **** 			if (cChar) {
 221              		.loc 1 127 0
 222 0038 002C     		cmp	r4, #0
 223 003a 34D0     		beq	.L16
 128:../scr/stm32f0xx_it.c **** 				Camera_idx = cChar;
 224              		.loc 1 128 0
 225 003c 324D     		ldr	r5, .L41+20
 129:../scr/stm32f0xx_it.c **** 				switch (Camera_idx) {
 226              		.loc 1 129 0
 227 003e 601E     		sub	r0, r4, #1
 128:../scr/stm32f0xx_it.c **** 				Camera_idx = cChar;
 228              		.loc 1 128 0
 229 0040 2C60     		str	r4, [r5]
 230              		.loc 1 129 0
 231 0042 0528     		cmp	r0, #5
 232 0044 2FD8     		bhi	.L16
 233 0046 FFF7FEFF 		bl	__gnu_thumb1_case_uqi
 234              	.L23:
 235 004a 03       		.byte	(.L17-.L23)/2
 236 004b 0A       		.byte	(.L18-.L23)/2
 237 004c 11       		.byte	(.L19-.L23)/2
 238 004d 18       		.byte	(.L20-.L23)/2
 239 004e 1F       		.byte	(.L21-.L23)/2
 240 004f 26       		.byte	(.L22-.L23)/2
 241              		.align	1
 242              	.L17:
 130:../scr/stm32f0xx_it.c **** 				case 1:
 131:../scr/stm32f0xx_it.c **** 					USARTxPutChar(USART2, 0x56);
 243              		.loc 1 131 0
 244 0050 2E48     		ldr	r0, .L41+24
 245 0052 5621     		mov	r1, #86
 246 0054 FFF7FEFF 		bl	USARTxPutChar
 247              	.LVL15:
 132:../scr/stm32f0xx_it.c **** 					USARTxPutChar(USART2, Camera_idx);
 248              		.loc 1 132 0
 249 0058 2978     		ldrb	r1, [r5]
 250 005a 2C48     		ldr	r0, .L41+24
 251 005c 21E0     		b	.L39
 252              	.L18:
 133:../scr/stm32f0xx_it.c **** 					break;
 134:../scr/stm32f0xx_it.c **** 				case 2:
 135:../scr/stm32f0xx_it.c **** 					USARTxPutChar(USART3, 0x56);
 253              		.loc 1 135 0
 254 005e 2C48     		ldr	r0, .L41+28
 255 0060 5621     		mov	r1, #86
 256 0062 FFF7FEFF 		bl	USARTxPutChar
 257              	.LVL16:
 136:../scr/stm32f0xx_it.c **** 					USARTxPutChar(USART3, Camera_idx);
 258              		.loc 1 136 0
 259 0066 2978     		ldrb	r1, [r5]
 260 0068 2948     		ldr	r0, .L41+28
 261 006a 1AE0     		b	.L39
 262              	.L19:
 137:../scr/stm32f0xx_it.c **** 					break;
 138:../scr/stm32f0xx_it.c **** 				case 3:
 139:../scr/stm32f0xx_it.c **** 					USARTxPutChar(USART4, 0x56);
 263              		.loc 1 139 0
 264 006c 2948     		ldr	r0, .L41+32
 265 006e 5621     		mov	r1, #86
 266 0070 FFF7FEFF 		bl	USARTxPutChar
 267              	.LVL17:
 140:../scr/stm32f0xx_it.c **** 					USARTxPutChar(USART4, Camera_idx);
 268              		.loc 1 140 0
 269 0074 2978     		ldrb	r1, [r5]
 270 0076 2748     		ldr	r0, .L41+32
 271 0078 13E0     		b	.L39
 272              	.L20:
 141:../scr/stm32f0xx_it.c **** 					break;
 142:../scr/stm32f0xx_it.c **** 				case 4:
 143:../scr/stm32f0xx_it.c **** 					USARTxPutChar(USART5, 0x56);
 273              		.loc 1 143 0
 274 007a 2748     		ldr	r0, .L41+36
 275 007c 5621     		mov	r1, #86
 276 007e FFF7FEFF 		bl	USARTxPutChar
 277              	.LVL18:
 144:../scr/stm32f0xx_it.c **** 					USARTxPutChar(USART5, Camera_idx);
 278              		.loc 1 144 0
 279 0082 2978     		ldrb	r1, [r5]
 280 0084 2448     		ldr	r0, .L41+36
 281 0086 0CE0     		b	.L39
 282              	.L21:
 145:../scr/stm32f0xx_it.c **** 					break;
 146:../scr/stm32f0xx_it.c **** 				case 5:
 147:../scr/stm32f0xx_it.c **** 					USARTxPutChar(USART6, 0x56);
 283              		.loc 1 147 0
 284 0088 2448     		ldr	r0, .L41+40
 285 008a 5621     		mov	r1, #86
 286 008c FFF7FEFF 		bl	USARTxPutChar
 287              	.LVL19:
 148:../scr/stm32f0xx_it.c **** 					USARTxPutChar(USART6, Camera_idx);
 288              		.loc 1 148 0
 289 0090 2978     		ldrb	r1, [r5]
 290 0092 2248     		ldr	r0, .L41+40
 291 0094 05E0     		b	.L39
 292              	.L22:
 149:../scr/stm32f0xx_it.c **** 					break;
 150:../scr/stm32f0xx_it.c **** 				case 6:
 151:../scr/stm32f0xx_it.c **** 					USARTxPutChar(USART7, 0x56);
 293              		.loc 1 151 0
 294 0096 2248     		ldr	r0, .L41+44
 295 0098 5621     		mov	r1, #86
 296 009a FFF7FEFF 		bl	USARTxPutChar
 297              	.LVL20:
 152:../scr/stm32f0xx_it.c **** 					USARTxPutChar(USART7, Camera_idx);
 298              		.loc 1 152 0
 299 009e 2978     		ldrb	r1, [r5]
 300 00a0 1F48     		ldr	r0, .L41+44
 301              	.L39:
 302 00a2 FFF7FEFF 		bl	USARTxPutChar
 303              	.LVL21:
 304              	.L16:
 153:../scr/stm32f0xx_it.c **** 					break;
 154:../scr/stm32f0xx_it.c **** 				default:
 155:../scr/stm32f0xx_it.c **** 					break;
 156:../scr/stm32f0xx_it.c **** 				}
 157:../scr/stm32f0xx_it.c **** 			}
 158:../scr/stm32f0xx_it.c **** 		}
 159:../scr/stm32f0xx_it.c **** 		if (buff_cmd_idx > 1) {
 305              		.loc 1 159 0
 306 00a6 154B     		ldr	r3, .L41+8
 307 00a8 1B68     		ldr	r3, [r3]
 308 00aa 012B     		cmp	r3, #1
 309 00ac 21DD     		ble	.L11
 160:../scr/stm32f0xx_it.c **** 			switch (Camera_idx) {
 310              		.loc 1 160 0
 311 00ae 164B     		ldr	r3, .L41+20
 312 00b0 1868     		ldr	r0, [r3]
 313 00b2 0138     		sub	r0, r0, #1
 314 00b4 0528     		cmp	r0, #5
 315 00b6 12D8     		bhi	.L25
 316 00b8 E1B2     		uxtb	r1, r4
 317 00ba FFF7FEFF 		bl	__gnu_thumb1_case_uqi
 318              	.L32:
 319 00be 03       		.byte	(.L26-.L32)/2
 320 00bf 05       		.byte	(.L27-.L32)/2
 321 00c0 07       		.byte	(.L28-.L32)/2
 322 00c1 09       		.byte	(.L29-.L32)/2
 323 00c2 0B       		.byte	(.L30-.L32)/2
 324 00c3 0D       		.byte	(.L31-.L32)/2
 325              		.align	1
 326              	.L26:
 161:../scr/stm32f0xx_it.c **** 			case 1:
 162:../scr/stm32f0xx_it.c **** 				USARTxPutChar(USART2, cChar);
 327              		.loc 1 162 0
 328 00c4 1148     		ldr	r0, .L41+24
 329 00c6 08E0     		b	.L40
 330              	.L27:
 163:../scr/stm32f0xx_it.c **** 				break;
 164:../scr/stm32f0xx_it.c **** 			case 2:
 165:../scr/stm32f0xx_it.c **** 				USARTxPutChar(USART3, cChar);
 331              		.loc 1 165 0
 332 00c8 1148     		ldr	r0, .L41+28
 333 00ca 06E0     		b	.L40
 334              	.L28:
 166:../scr/stm32f0xx_it.c **** 				break;
 167:../scr/stm32f0xx_it.c **** 			case 3:
 168:../scr/stm32f0xx_it.c **** 				USARTxPutChar(USART4, cChar);
 335              		.loc 1 168 0
 336 00cc 1148     		ldr	r0, .L41+32
 337 00ce 04E0     		b	.L40
 338              	.L29:
 169:../scr/stm32f0xx_it.c **** 				break;
 170:../scr/stm32f0xx_it.c **** 			case 4:
 171:../scr/stm32f0xx_it.c **** 				USARTxPutChar(USART5, cChar);
 339              		.loc 1 171 0
 340 00d0 1148     		ldr	r0, .L41+36
 341 00d2 02E0     		b	.L40
 342              	.L30:
 172:../scr/stm32f0xx_it.c **** 				break;
 173:../scr/stm32f0xx_it.c **** 			case 5:
 174:../scr/stm32f0xx_it.c **** 				USARTxPutChar(USART6, cChar);
 343              		.loc 1 174 0
 344 00d4 1148     		ldr	r0, .L41+40
 345 00d6 00E0     		b	.L40
 346              	.L31:
 175:../scr/stm32f0xx_it.c **** 				break;
 176:../scr/stm32f0xx_it.c **** 			case 6:
 177:../scr/stm32f0xx_it.c **** 				USARTxPutChar(USART7, cChar);
 347              		.loc 1 177 0
 348 00d8 1148     		ldr	r0, .L41+44
 349              	.L40:
 350 00da FFF7FEFF 		bl	USARTxPutChar
 351              	.LVL22:
 352              	.L25:
 178:../scr/stm32f0xx_it.c **** 				break;
 179:../scr/stm32f0xx_it.c **** 			default:
 180:../scr/stm32f0xx_it.c **** 				break;
 181:../scr/stm32f0xx_it.c **** 			}
 182:../scr/stm32f0xx_it.c **** 			buff_cmd[buff_cmd_idx] = cChar;
 353              		.loc 1 182 0
 354 00de 074A     		ldr	r2, .L41+8
 355 00e0 0849     		ldr	r1, .L41+16
 356 00e2 1368     		ldr	r3, [r2]
 183:../scr/stm32f0xx_it.c **** 			buff_cmd_idx++;
 184:../scr/stm32f0xx_it.c **** 			USART_ClearITPendingBit(USART1, USART_IT_RXNE);
 357              		.loc 1 184 0
 358 00e4 0348     		ldr	r0, .L41
 182:../scr/stm32f0xx_it.c **** 			buff_cmd[buff_cmd_idx] = cChar;
 359              		.loc 1 182 0
 360 00e6 CC54     		strb	r4, [r1, r3]
 183:../scr/stm32f0xx_it.c **** 			buff_cmd_idx++;
 361              		.loc 1 183 0
 362 00e8 0133     		add	r3, r3, #1
 363              		.loc 1 184 0
 364 00ea 0349     		ldr	r1, .L41+4
 183:../scr/stm32f0xx_it.c **** 			buff_cmd_idx++;
 365              		.loc 1 183 0
 366 00ec 1360     		str	r3, [r2]
 367              		.loc 1 184 0
 368 00ee FFF7FEFF 		bl	USART_ClearITPendingBit
 369              	.LVL23:
 370              	.L11:
 371              	.LBE2:
 185:../scr/stm32f0xx_it.c **** 
 186:../scr/stm32f0xx_it.c **** 		}
 187:../scr/stm32f0xx_it.c **** 	}
 188:../scr/stm32f0xx_it.c **** }
 372              		.loc 1 188 0
 373              		@ sp needed for prologue
 374 00f2 38BD     		pop	{r3, r4, r5, pc}
 375              	.L42:
 376              		.align	2
 377              	.L41:
 378 00f4 00380140 		.word	1073821696
 379 00f8 05010500 		.word	327941
 380 00fc 00000000 		.word	.LANCHOR1
 381 0100 00000000 		.word	.LANCHOR0
 382 0104 00000000 		.word	buff_cmd
 383 0108 00000000 		.word	.LANCHOR2
 384 010c 00440040 		.word	1073759232
 385 0110 00480040 		.word	1073760256
 386 0114 004C0040 		.word	1073761280
 387 0118 00500040 		.word	1073762304
 388 011c 00140140 		.word	1073812480
 389 0120 00180140 		.word	1073813504
 390              		.cfi_endproc
 391              	.LFE38:
 393              		.section	.text.USART2_IRQHandler,"ax",%progbits
 394              		.align	1
 395              		.global	USART2_IRQHandler
 396              		.code	16
 397              		.thumb_func
 399              	USART2_IRQHandler:
 400              	.LFB39:
 189:../scr/stm32f0xx_it.c **** void USART2_IRQHandler(void) {
 401              		.loc 1 189 0
 402              		.cfi_startproc
 403 0000 38B5     		push	{r3, r4, r5, lr}
 404              	.LCFI3:
 405              		.cfi_def_cfa_offset 16
 406              		.cfi_offset 3, -16
 407              		.cfi_offset 4, -12
 408              		.cfi_offset 5, -8
 409              		.cfi_offset 14, -4
 190:../scr/stm32f0xx_it.c **** 	uint16_t cChar;
 191:../scr/stm32f0xx_it.c **** 	if (USART_GetITStatus(USART2, USART_IT_RXNE) == SET) {
 410              		.loc 1 191 0
 411 0002 1A48     		ldr	r0, .L48
 412 0004 1A49     		ldr	r1, .L48+4
 413 0006 FFF7FEFF 		bl	USART_GetITStatus
 414              	.LVL24:
 415 000a 0128     		cmp	r0, #1
 416 000c 2DD1     		bne	.L43
 192:../scr/stm32f0xx_it.c **** 		cChar = USART_ReceiveData(USART2);
 417              		.loc 1 192 0
 418 000e 1748     		ldr	r0, .L48
 419 0010 FFF7FEFF 		bl	USART_ReceiveData
 420              	.LVL25:
 421 0014 041C     		mov	r4, r0
 422              	.LVL26:
 193:../scr/stm32f0xx_it.c **** 		if (cChar == 0x76) {
 423              		.loc 1 193 0
 424 0016 7628     		cmp	r0, #118
 425 0018 09D1     		bne	.L45
 194:../scr/stm32f0xx_it.c **** 			buff_cmd_idx = 0;
 426              		.loc 1 194 0
 427 001a 164B     		ldr	r3, .L48+8
 428 001c 0021     		mov	r1, #0
 429 001e 1960     		str	r1, [r3]
 195:../scr/stm32f0xx_it.c **** 			buff_data_idx = 0;
 196:../scr/stm32f0xx_it.c **** 			memset(buff_data, 0, sizeof(buff_data));
 430              		.loc 1 196 0
 431 0020 8022     		mov	r2, #128
 195:../scr/stm32f0xx_it.c **** 			buff_data_idx = 0;
 432              		.loc 1 195 0
 433 0022 154B     		ldr	r3, .L48+12
 434              		.loc 1 196 0
 435 0024 1548     		ldr	r0, .L48+16
 436              	.LVL27:
 437 0026 D200     		lsl	r2, r2, #3
 195:../scr/stm32f0xx_it.c **** 			buff_data_idx = 0;
 438              		.loc 1 195 0
 439 0028 1960     		str	r1, [r3]
 440              		.loc 1 196 0
 441 002a FFF7FEFF 		bl	memset
 442              	.LVL28:
 443              	.L45:
 197:../scr/stm32f0xx_it.c **** 		}
 198:../scr/stm32f0xx_it.c **** 		if (buff_data_idx == 1) {
 444              		.loc 1 198 0
 445 002e 124B     		ldr	r3, .L48+12
 446 0030 1B68     		ldr	r3, [r3]
 447 0032 012B     		cmp	r3, #1
 448 0034 08D1     		bne	.L46
 199:../scr/stm32f0xx_it.c **** 			USARTxPutChar(USART2, 0x76);
 449              		.loc 1 199 0
 450 0036 0D48     		ldr	r0, .L48
 451 0038 7621     		mov	r1, #118
 452 003a FFF7FEFF 		bl	USARTxPutChar
 453              	.LVL29:
 200:../scr/stm32f0xx_it.c **** 			USARTxPutChar(USART2, Camera_idx);
 454              		.loc 1 200 0
 455 003e 104B     		ldr	r3, .L48+20
 456 0040 0A48     		ldr	r0, .L48
 457 0042 1978     		ldrb	r1, [r3]
 458 0044 FFF7FEFF 		bl	USARTxPutChar
 459              	.LVL30:
 460              	.L46:
 201:../scr/stm32f0xx_it.c **** 		}
 202:../scr/stm32f0xx_it.c **** 		if (buff_data_idx > 1) {
 461              		.loc 1 202 0
 462 0048 0B4D     		ldr	r5, .L48+12
 463 004a 2B68     		ldr	r3, [r5]
 464 004c 012B     		cmp	r3, #1
 465 004e 03DD     		ble	.L47
 203:../scr/stm32f0xx_it.c **** 			USARTxPutChar(USART2, cChar);
 466              		.loc 1 203 0
 467 0050 E1B2     		uxtb	r1, r4
 468 0052 0648     		ldr	r0, .L48
 469 0054 FFF7FEFF 		bl	USARTxPutChar
 470              	.LVL31:
 471              	.L47:
 204:../scr/stm32f0xx_it.c **** 		}
 205:../scr/stm32f0xx_it.c **** 		buff_data[buff_data_idx] = cChar;
 472              		.loc 1 205 0
 473 0058 2B68     		ldr	r3, [r5]
 474 005a 084A     		ldr	r2, .L48+16
 206:../scr/stm32f0xx_it.c **** 		buff_data_idx++;
 207:../scr/stm32f0xx_it.c **** 		USART_ClearITPendingBit(USART2, USART_IT_RXNE);
 475              		.loc 1 207 0
 476 005c 0348     		ldr	r0, .L48
 205:../scr/stm32f0xx_it.c **** 		buff_data[buff_data_idx] = cChar;
 477              		.loc 1 205 0
 478 005e D454     		strb	r4, [r2, r3]
 479              		.loc 1 207 0
 480 0060 0349     		ldr	r1, .L48+4
 206:../scr/stm32f0xx_it.c **** 		buff_data_idx++;
 481              		.loc 1 206 0
 482 0062 0133     		add	r3, r3, #1
 483 0064 2B60     		str	r3, [r5]
 484              		.loc 1 207 0
 485 0066 FFF7FEFF 		bl	USART_ClearITPendingBit
 486              	.LVL32:
 487              	.L43:
 208:../scr/stm32f0xx_it.c **** 	}
 209:../scr/stm32f0xx_it.c **** }
 488              		.loc 1 209 0
 489              		@ sp needed for prologue
 490 006a 38BD     		pop	{r3, r4, r5, pc}
 491              	.L49:
 492              		.align	2
 493              	.L48:
 494 006c 00440040 		.word	1073759232
 495 0070 05010500 		.word	327941
 496 0074 00000000 		.word	.LANCHOR1
 497 0078 00000000 		.word	.LANCHOR0
 498 007c 00000000 		.word	buff_data
 499 0080 00000000 		.word	.LANCHOR2
 500              		.cfi_endproc
 501              	.LFE39:
 503              		.section	.text.USART3_8_IRQHandler,"ax",%progbits
 504              		.align	1
 505              		.global	USART3_8_IRQHandler
 506              		.code	16
 507              		.thumb_func
 509              	USART3_8_IRQHandler:
 510              	.LFB40:
 210:../scr/stm32f0xx_it.c **** void USART3_8_IRQHandler(void) {
 511              		.loc 1 210 0
 512              		.cfi_startproc
 513 0000 08B5     		push	{r3, lr}
 514              	.LCFI4:
 515              		.cfi_def_cfa_offset 8
 516              		.cfi_offset 3, -8
 517              		.cfi_offset 14, -4
 211:../scr/stm32f0xx_it.c **** 	uint16_t cChar;
 212:../scr/stm32f0xx_it.c **** 	if (USART_GetITStatus(USART3, USART_IT_RXNE) == SET) {
 518              		.loc 1 212 0
 519 0002 2748     		ldr	r0, .L57
 520 0004 2749     		ldr	r1, .L57+4
 521 0006 FFF7FEFF 		bl	USART_GetITStatus
 522              	.LVL33:
 523 000a 0128     		cmp	r0, #1
 524 000c 06D1     		bne	.L51
 213:../scr/stm32f0xx_it.c **** 		cChar = USART_ReceiveData(USART3);
 525              		.loc 1 213 0
 526 000e 2448     		ldr	r0, .L57
 527 0010 FFF7FEFF 		bl	USART_ReceiveData
 528              	.LVL34:
 214:../scr/stm32f0xx_it.c **** 
 215:../scr/stm32f0xx_it.c **** 		USART_ClearITPendingBit(USART3, USART_IT_RXNE);
 529              		.loc 1 215 0
 530 0014 2248     		ldr	r0, .L57
 531 0016 2349     		ldr	r1, .L57+4
 532 0018 FFF7FEFF 		bl	USART_ClearITPendingBit
 533              	.LVL35:
 534              	.L51:
 216:../scr/stm32f0xx_it.c **** 	}
 217:../scr/stm32f0xx_it.c **** 	if (USART_GetITStatus(USART4, USART_IT_RXNE) == SET) {
 535              		.loc 1 217 0
 536 001c 2248     		ldr	r0, .L57+8
 537 001e 2149     		ldr	r1, .L57+4
 538 0020 FFF7FEFF 		bl	USART_GetITStatus
 539              	.LVL36:
 540 0024 0128     		cmp	r0, #1
 541 0026 06D1     		bne	.L52
 218:../scr/stm32f0xx_it.c **** 		cChar = USART_ReceiveData(USART4);
 542              		.loc 1 218 0
 543 0028 1F48     		ldr	r0, .L57+8
 544 002a FFF7FEFF 		bl	USART_ReceiveData
 545              	.LVL37:
 219:../scr/stm32f0xx_it.c **** 
 220:../scr/stm32f0xx_it.c **** 		USART_ClearITPendingBit(USART4, USART_IT_RXNE);
 546              		.loc 1 220 0
 547 002e 1E48     		ldr	r0, .L57+8
 548 0030 1C49     		ldr	r1, .L57+4
 549 0032 FFF7FEFF 		bl	USART_ClearITPendingBit
 550              	.LVL38:
 551              	.L52:
 221:../scr/stm32f0xx_it.c **** 	}
 222:../scr/stm32f0xx_it.c **** 	if (USART_GetITStatus(USART5, USART_IT_RXNE) == SET) {
 552              		.loc 1 222 0
 553 0036 1D48     		ldr	r0, .L57+12
 554 0038 1A49     		ldr	r1, .L57+4
 555 003a FFF7FEFF 		bl	USART_GetITStatus
 556              	.LVL39:
 557 003e 0128     		cmp	r0, #1
 558 0040 06D1     		bne	.L53
 223:../scr/stm32f0xx_it.c **** 		cChar = USART_ReceiveData(USART5);
 559              		.loc 1 223 0
 560 0042 1A48     		ldr	r0, .L57+12
 561 0044 FFF7FEFF 		bl	USART_ReceiveData
 562              	.LVL40:
 224:../scr/stm32f0xx_it.c **** 
 225:../scr/stm32f0xx_it.c **** 		USART_ClearITPendingBit(USART5, USART_IT_RXNE);
 563              		.loc 1 225 0
 564 0048 1848     		ldr	r0, .L57+12
 565 004a 1649     		ldr	r1, .L57+4
 566 004c FFF7FEFF 		bl	USART_ClearITPendingBit
 567              	.LVL41:
 568              	.L53:
 226:../scr/stm32f0xx_it.c **** 	}
 227:../scr/stm32f0xx_it.c **** 	if (USART_GetITStatus(USART6, USART_IT_RXNE) == SET) {
 569              		.loc 1 227 0
 570 0050 1748     		ldr	r0, .L57+16
 571 0052 1449     		ldr	r1, .L57+4
 572 0054 FFF7FEFF 		bl	USART_GetITStatus
 573              	.LVL42:
 574 0058 0128     		cmp	r0, #1
 575 005a 06D1     		bne	.L54
 228:../scr/stm32f0xx_it.c **** 		cChar = USART_ReceiveData(USART6);
 576              		.loc 1 228 0
 577 005c 1448     		ldr	r0, .L57+16
 578 005e FFF7FEFF 		bl	USART_ReceiveData
 579              	.LVL43:
 229:../scr/stm32f0xx_it.c **** 
 230:../scr/stm32f0xx_it.c **** 		USART_ClearITPendingBit(USART6, USART_IT_RXNE);
 580              		.loc 1 230 0
 581 0062 1348     		ldr	r0, .L57+16
 582 0064 0F49     		ldr	r1, .L57+4
 583 0066 FFF7FEFF 		bl	USART_ClearITPendingBit
 584              	.LVL44:
 585              	.L54:
 231:../scr/stm32f0xx_it.c **** 	}
 232:../scr/stm32f0xx_it.c **** 	if (USART_GetITStatus(USART7, USART_IT_RXNE) == SET) {
 586              		.loc 1 232 0
 587 006a 1248     		ldr	r0, .L57+20
 588 006c 0D49     		ldr	r1, .L57+4
 589 006e FFF7FEFF 		bl	USART_GetITStatus
 590              	.LVL45:
 591 0072 0128     		cmp	r0, #1
 592 0074 06D1     		bne	.L55
 233:../scr/stm32f0xx_it.c **** 		cChar = USART_ReceiveData(USART7);
 593              		.loc 1 233 0
 594 0076 0F48     		ldr	r0, .L57+20
 595 0078 FFF7FEFF 		bl	USART_ReceiveData
 596              	.LVL46:
 234:../scr/stm32f0xx_it.c **** 
 235:../scr/stm32f0xx_it.c **** 		USART_ClearITPendingBit(USART7, USART_IT_RXNE);
 597              		.loc 1 235 0
 598 007c 0D48     		ldr	r0, .L57+20
 599 007e 0949     		ldr	r1, .L57+4
 600 0080 FFF7FEFF 		bl	USART_ClearITPendingBit
 601              	.LVL47:
 602              	.L55:
 236:../scr/stm32f0xx_it.c **** 	}
 237:../scr/stm32f0xx_it.c **** 	if (USART_GetITStatus(USART8, USART_IT_RXNE) == SET) {
 603              		.loc 1 237 0
 604 0084 0C48     		ldr	r0, .L57+24
 605 0086 0749     		ldr	r1, .L57+4
 606 0088 FFF7FEFF 		bl	USART_GetITStatus
 607              	.LVL48:
 608 008c 0128     		cmp	r0, #1
 609 008e 06D1     		bne	.L50
 238:../scr/stm32f0xx_it.c **** 		cChar = USART_ReceiveData(USART8);
 610              		.loc 1 238 0
 611 0090 0948     		ldr	r0, .L57+24
 612 0092 FFF7FEFF 		bl	USART_ReceiveData
 613              	.LVL49:
 239:../scr/stm32f0xx_it.c **** 
 240:../scr/stm32f0xx_it.c **** 		USART_ClearITPendingBit(USART8, USART_IT_RXNE);
 614              		.loc 1 240 0
 615 0096 0848     		ldr	r0, .L57+24
 616 0098 0249     		ldr	r1, .L57+4
 617 009a FFF7FEFF 		bl	USART_ClearITPendingBit
 618              	.LVL50:
 619              	.L50:
 241:../scr/stm32f0xx_it.c **** 	}
 242:../scr/stm32f0xx_it.c **** }
 620              		.loc 1 242 0
 621              		@ sp needed for prologue
 622 009e 08BD     		pop	{r3, pc}
 623              	.L58:
 624              		.align	2
 625              	.L57:
 626 00a0 00480040 		.word	1073760256
 627 00a4 05010500 		.word	327941
 628 00a8 004C0040 		.word	1073761280
 629 00ac 00500040 		.word	1073762304
 630 00b0 00140140 		.word	1073812480
 631 00b4 00180140 		.word	1073813504
 632 00b8 001C0140 		.word	1073814528
 633              		.cfi_endproc
 634              	.LFE40:
 636              		.global	last_time_rec_byte_time
 637              		.global	On_handler_cmd_from_deveice
 638              		.global	Camera_idx
 639              		.global	buff_data_idx
 640              		.comm	buff_data,1024,1
 641              		.global	buff_cmd_idx
 642              		.comm	buff_cmd,256,1
 643              		.section	.bss.On_handler_cmd_from_deveice,"aw",%nobits
 644              		.align	2
 647              	On_handler_cmd_from_deveice:
 648 0000 00000000 		.space	4
 649              		.section	.bss.buff_data_idx,"aw",%nobits
 650              		.align	2
 651              		.set	.LANCHOR0,. + 0
 654              	buff_data_idx:
 655 0000 00000000 		.space	4
 656              		.section	.bss.buff_cmd_idx,"aw",%nobits
 657              		.align	2
 658              		.set	.LANCHOR1,. + 0
 661              	buff_cmd_idx:
 662 0000 00000000 		.space	4
 663              		.section	.bss.Camera_idx,"aw",%nobits
 664              		.align	2
 665              		.set	.LANCHOR2,. + 0
 668              	Camera_idx:
 669 0000 00000000 		.space	4
 670              		.section	.bss.last_time_rec_byte_time,"aw",%nobits
 671              		.align	2
 674              	last_time_rec_byte_time:
 675 0000 00000000 		.space	4
 676              		.text
 677              	.Letext0:
 678              		.file 2 "c:\\program files (x86)\\codesourcery\\sourcery_codebench_lite_for_arm_eabi\\bin\\../lib/
 679              		.file 3 "../scr/stm32f0xx.h"
 680              		.file 4 "D:\\EclipseIndigo\\workspace\\cam_hub\\Libraries\\STM32F0xx_StdPeriph_Driver\\inc/stm32f0